GAS LISTING /tmp/ccZyg3wo.s 			page 1


   1              		.file	"system.cpp"
   2              		.option pic
   3              		.option norelax
   4              		.text
   5              	.Ltext0:
   6              		.align	2
   7              		.globl	_Z6memsetPKvii
   9              	_Z6memsetPKvii:
  10              	.LFB47:
  11              		.file 1 "src/kernel/../../src/kernel/tests/test2.hpp"
   1:src/kernel/../../src/kernel/tests/test2.hpp **** //
   2:src/kernel/../../src/kernel/tests/test2.hpp **** // Created by os on 1/10/23.
   3:src/kernel/../../src/kernel/tests/test2.hpp **** //
   4:src/kernel/../../src/kernel/tests/test2.hpp **** 
   5:src/kernel/../../src/kernel/tests/test2.hpp **** #ifndef KERNEL_FOR_RISCV_ARCHITECURE_TEST2_HPP
   6:src/kernel/../../src/kernel/tests/test2.hpp **** #define KERNEL_FOR_RISCV_ARCHITECURE_TEST2_HPP
   7:src/kernel/../../src/kernel/tests/test2.hpp **** #include "../../../h/kernel/slab.hpp"
   8:src/kernel/../../src/kernel/tests/test2.hpp **** 
   9:src/kernel/../../src/kernel/tests/test2.hpp **** #define RUN_NUM (5)
  10:src/kernel/../../src/kernel/tests/test2.hpp **** #define ITERATIONS (1000)
  11:src/kernel/../../src/kernel/tests/test2.hpp **** 
  12:src/kernel/../../src/kernel/tests/test2.hpp **** #define shared_size (7)
  13:src/kernel/../../src/kernel/tests/test2.hpp **** #define MASK (0xA5)
  14:src/kernel/../../src/kernel/tests/test2.hpp **** 
  15:src/kernel/../../src/kernel/tests/test2.hpp **** struct data_s {
  16:src/kernel/../../src/kernel/tests/test2.hpp ****     int id;
  17:src/kernel/../../src/kernel/tests/test2.hpp ****     kmem_cache_t  *shared;
  18:src/kernel/../../src/kernel/tests/test2.hpp ****     int iterations;
  19:src/kernel/../../src/kernel/tests/test2.hpp **** };
  20:src/kernel/../../src/kernel/tests/test2.hpp **** 
  21:src/kernel/../../src/kernel/tests/test2.hpp **** const char * const CACHE_NAMES[] = {"tc_0",
  22:src/kernel/../../src/kernel/tests/test2.hpp ****                                     "tc_1",
  23:src/kernel/../../src/kernel/tests/test2.hpp ****                                     "tc_2",
  24:src/kernel/../../src/kernel/tests/test2.hpp ****                                     "tc_3",
  25:src/kernel/../../src/kernel/tests/test2.hpp ****                                     "tc_4"};
  26:src/kernel/../../src/kernel/tests/test2.hpp **** 
  27:src/kernel/../../src/kernel/tests/test2.hpp **** void memset(const void *data, int size, int value) {
  12              		.loc 1 27 52
  13              		.cfi_startproc
  14              	.LVL0:
  15 0000 130101FF 		addi	sp,sp,-16
  16              		.cfi_def_cfa_offset 16
  17 0004 23348100 		sd	s0,8(sp)
  18              		.cfi_offset 8, -8
  19 0008 13040101 		addi	s0,sp,16
  20              		.cfi_def_cfa 8, 0
  28:src/kernel/../../src/kernel/tests/test2.hpp ****     for (int j = 0; j < size; j++) {
  21              		.loc 1 28 5
  22              	.LVL1:
  23              	.LBB2:
  24              		.loc 1 28 14 is_stmt 0
  25 000c 93070000 		li	a5,0
  26              	.LVL2:
  27              	.L3:
  28              		.loc 1 28 23 is_stmt 1 discriminator 3
  29 0010 63DAB700 		bge	a5,a1,.L1
  29:src/kernel/../../src/kernel/tests/test2.hpp ****         *((char *)data + j) = value;
GAS LISTING /tmp/ccZyg3wo.s 			page 2


  30              		.loc 1 29 9 discriminator 2
  31              		.loc 1 29 24 is_stmt 0 discriminator 2
  32 0014 3307F500 		add	a4,a0,a5
  33              		.loc 1 29 29 discriminator 2
  34 0018 2300C700 		sb	a2,0(a4)
  28:src/kernel/../../src/kernel/tests/test2.hpp ****     for (int j = 0; j < size; j++) {
  35              		.loc 1 28 5 is_stmt 1 discriminator 2
  36 001c 9B871700 		addiw	a5,a5,1
  37              	.LVL3:
  38 0020 6FF01FFF 		j	.L3
  39              	.LVL4:
  40              	.L1:
  41              	.LBE2:
  30:src/kernel/../../src/kernel/tests/test2.hpp ****     }
  31:src/kernel/../../src/kernel/tests/test2.hpp **** }
  42              		.loc 1 31 1 is_stmt 0
  43 0024 03348100 		ld	s0,8(sp)
  44              		.cfi_restore 8
  45              		.cfi_def_cfa 2, 16
  46 0028 13010101 		addi	sp,sp,16
  47              		.cfi_def_cfa_offset 0
  48 002c 67800000 		jr	ra
  49              		.cfi_endproc
  50              	.LFE47:
  52              		.align	2
  53              		.globl	_Z9constructPv
  55              	_Z9constructPv:
  56              	.LFB48:
  32:src/kernel/../../src/kernel/tests/test2.hpp **** 
  33:src/kernel/../../src/kernel/tests/test2.hpp **** void construct(void *data) {
  57              		.loc 1 33 28 is_stmt 1
  58              		.cfi_startproc
  59              	.LVL5:
  60 0030 130101FF 		addi	sp,sp,-16
  61              		.cfi_def_cfa_offset 16
  62 0034 23341100 		sd	ra,8(sp)
  63 0038 23308100 		sd	s0,0(sp)
  64              		.cfi_offset 1, -8
  65              		.cfi_offset 8, -16
  66 003c 13040101 		addi	s0,sp,16
  67              		.cfi_def_cfa 8, 0
  34:src/kernel/../../src/kernel/tests/test2.hpp **** //    static int i = 1;
  35:src/kernel/../../src/kernel/tests/test2.hpp **** //    printf("%d Shared object constructed.\n", i++);
  36:src/kernel/../../src/kernel/tests/test2.hpp ****     memset(data, shared_size, MASK);
  68              		.loc 1 36 5
  69              		.loc 1 36 11 is_stmt 0
  70 0040 1306500A 		li	a2,165
  71 0044 93057000 		li	a1,7
  72 0048 97000000 		call	_Z6memsetPKvii
  72      E7800000 
  73              	.LVL6:
  37:src/kernel/../../src/kernel/tests/test2.hpp **** }
  74              		.loc 1 37 1
  75 0050 83308100 		ld	ra,8(sp)
  76              		.cfi_restore 1
  77 0054 03340100 		ld	s0,0(sp)
  78              		.cfi_restore 8
GAS LISTING /tmp/ccZyg3wo.s 			page 3


  79              		.cfi_def_cfa 2, 16
  80 0058 13010101 		addi	sp,sp,16
  81              		.cfi_def_cfa_offset 0
  82 005c 67800000 		jr	ra
  83              		.cfi_endproc
  84              	.LFE48:
  86              		.align	2
  87              		.globl	_Z5checkPvm
  89              	_Z5checkPvm:
  90              	.LFB49:
  38:src/kernel/../../src/kernel/tests/test2.hpp **** 
  39:src/kernel/../../src/kernel/tests/test2.hpp **** int check(void *data, size_t size) {
  91              		.loc 1 39 36 is_stmt 1
  92              		.cfi_startproc
  93              	.LVL7:
  94 0060 130101FF 		addi	sp,sp,-16
  95              		.cfi_def_cfa_offset 16
  96 0064 23348100 		sd	s0,8(sp)
  97              		.cfi_offset 8, -8
  98 0068 13040101 		addi	s0,sp,16
  99              		.cfi_def_cfa 8, 0
 100 006c 13060500 		mv	a2,a0
  40:src/kernel/../../src/kernel/tests/test2.hpp ****     int ret = 1;
 101              		.loc 1 40 5
 102              	.LVL8:
  41:src/kernel/../../src/kernel/tests/test2.hpp ****     for (uint64 i = 0; i < size; i++) {
 103              		.loc 1 41 5
 104              	.LBB3:
 105              		.loc 1 41 17 is_stmt 0
 106 0070 93070000 		li	a5,0
 107              	.LBE3:
  40:src/kernel/../../src/kernel/tests/test2.hpp ****     int ret = 1;
 108              		.loc 1 40 9
 109 0074 13051000 		li	a0,1
 110              	.LVL9:
 111 0078 6F008000 		j	.L10
 112              	.LVL10:
 113              	.L9:
 114              	.LBB4:
 115              		.loc 1 41 5 is_stmt 1 discriminator 2
 116 007c 93871700 		addi	a5,a5,1
 117              	.LVL11:
 118              	.L10:
 119              		.loc 1 41 26 discriminator 1
 120 0080 63FEB700 		bgeu	a5,a1,.L8
  42:src/kernel/../../src/kernel/tests/test2.hpp ****         if (((unsigned char *)data)[i] != MASK) {
 121              		.loc 1 42 9
 122              		.loc 1 42 38 is_stmt 0
 123 0084 3307F600 		add	a4,a2,a5
 124 0088 83460700 		lbu	a3,0(a4)
 125              		.loc 1 42 9
 126 008c 1307500A 		li	a4,165
 127 0090 E386E6FE 		beq	a3,a4,.L9
  43:src/kernel/../../src/kernel/tests/test2.hpp ****             ret = 0;
 128              		.loc 1 43 17
 129 0094 13050000 		li	a0,0
 130              	.LVL12:
GAS LISTING /tmp/ccZyg3wo.s 			page 4


 131 0098 6FF05FFE 		j	.L9
 132              	.LVL13:
 133              	.L8:
 134              	.LBE4:
  44:src/kernel/../../src/kernel/tests/test2.hpp ****         }
  45:src/kernel/../../src/kernel/tests/test2.hpp ****     }
  46:src/kernel/../../src/kernel/tests/test2.hpp **** 
  47:src/kernel/../../src/kernel/tests/test2.hpp ****     return ret;
 135              		.loc 1 47 5 is_stmt 1
  48:src/kernel/../../src/kernel/tests/test2.hpp **** }
 136              		.loc 1 48 1 is_stmt 0
 137 009c 03348100 		ld	s0,8(sp)
 138              		.cfi_restore 8
 139              		.cfi_def_cfa 2, 16
 140 00a0 13010101 		addi	sp,sp,16
 141              		.cfi_def_cfa_offset 0
 142 00a4 67800000 		jr	ra
 143              		.cfi_endproc
 144              	.LFE49:
 146              		.section	.rodata.str1.8,"aMS",@progbits,1
 147              		.align	3
 148              	.LC0:
 149 0000 56616C75 		.string	"Value not correct!"
 149      65206E6F 
 149      7420636F 
 149      72726563 
 149      742100
 150              		.text
 151              		.align	2
 152              		.globl	_Z4workPv
 154              	_Z4workPv:
 155              	.LFB50:
  49:src/kernel/../../src/kernel/tests/test2.hpp **** 
  50:src/kernel/../../src/kernel/tests/test2.hpp **** struct objects_s {
  51:src/kernel/../../src/kernel/tests/test2.hpp ****     kmem_cache_t *cache;
  52:src/kernel/../../src/kernel/tests/test2.hpp ****     void *data;
  53:src/kernel/../../src/kernel/tests/test2.hpp **** };
  54:src/kernel/../../src/kernel/tests/test2.hpp **** 
  55:src/kernel/../../src/kernel/tests/test2.hpp **** void work(void* pdata) {
 156              		.loc 1 55 24 is_stmt 1
 157              		.cfi_startproc
 158              	.LVL14:
 159 00a8 130101F8 		addi	sp,sp,-128
 160              		.cfi_def_cfa_offset 128
 161 00ac 233C1106 		sd	ra,120(sp)
 162 00b0 23388106 		sd	s0,112(sp)
 163 00b4 23349106 		sd	s1,104(sp)
 164 00b8 23302107 		sd	s2,96(sp)
 165 00bc 233C3105 		sd	s3,88(sp)
 166 00c0 23384105 		sd	s4,80(sp)
 167 00c4 23345105 		sd	s5,72(sp)
 168 00c8 23306105 		sd	s6,64(sp)
 169 00cc 233C7103 		sd	s7,56(sp)
 170 00d0 23388103 		sd	s8,48(sp)
 171 00d4 23349103 		sd	s9,40(sp)
 172              		.cfi_offset 1, -8
 173              		.cfi_offset 8, -16
GAS LISTING /tmp/ccZyg3wo.s 			page 5


 174              		.cfi_offset 9, -24
 175              		.cfi_offset 18, -32
 176              		.cfi_offset 19, -40
 177              		.cfi_offset 20, -48
 178              		.cfi_offset 21, -56
 179              		.cfi_offset 22, -64
 180              		.cfi_offset 23, -72
 181              		.cfi_offset 24, -80
 182              		.cfi_offset 25, -88
 183 00d8 13040108 		addi	s0,sp,128
 184              		.cfi_def_cfa 8, 0
  56:src/kernel/../../src/kernel/tests/test2.hpp ****     struct data_s data = *(struct data_s*) pdata;
 185              		.loc 1 56 5
 186              		.loc 1 56 19 is_stmt 0
 187 00dc 033C0500 		ld	s8,0(a0)
 188 00e0 233484F9 		sd	s8,-120(s0)
 189 00e4 83378500 		ld	a5,8(a0)
 190 00e8 2338F4F8 		sd	a5,-112(s0)
 191 00ec 83370501 		ld	a5,16(a0)
 192 00f0 233CF4F8 		sd	a5,-104(s0)
  57:src/kernel/../../src/kernel/tests/test2.hpp ****     int size = 0;
 193              		.loc 1 57 5 is_stmt 1
 194              	.LVL15:
  58:src/kernel/../../src/kernel/tests/test2.hpp ****     int object_size = data.id + 1;
 195              		.loc 1 58 5
 196              		.loc 1 58 28 is_stmt 0
 197 00f4 9B070C00 		sext.w	a5,s8
 198              		.loc 1 58 9
 199 00f8 1B0C1C00 		addiw	s8,s8,1
 200              	.LVL16:
  59:src/kernel/../../src/kernel/tests/test2.hpp ****     kmem_cache_t *cache = kmem_cache_create(CACHE_NAMES[data.id], object_size, 0, 0);
 201              		.loc 1 59 5 is_stmt 1
 202              		.loc 1 59 64 is_stmt 0
 203 00fc 13973700 		slli	a4,a5,3
 204 0100 97070000 		lla	a5,.LANCHOR0
 204      93870700 
 205              	.LVL17:
 206 0108 B387E700 		add	a5,a5,a4
 207              		.loc 1 59 44
 208 010c 130B0C00 		mv	s6,s8
 209 0110 93060000 		li	a3,0
 210 0114 13060000 		li	a2,0
 211 0118 93050C00 		mv	a1,s8
 212 011c 03B50700 		ld	a0,0(a5)
 213              	.LVL18:
 214 0120 97000000 		call	_Z17kmem_cache_createPKcmPFvPvES3_@plt
 214      E7800000 
 215              	.LVL19:
 216 0128 130A0500 		mv	s4,a0
 217              	.LVL20:
  60:src/kernel/../../src/kernel/tests/test2.hpp **** 
  61:src/kernel/../../src/kernel/tests/test2.hpp ****     struct objects_s *objs = (struct objects_s*)(kmalloc(sizeof(struct objects_s) * data.iterations
 218              		.loc 1 61 5 is_stmt 1
 219              		.loc 1 61 90 is_stmt 0
 220 012c 832B84F9 		lw	s7,-104(s0)
 221              		.loc 1 61 57
 222 0130 13954B00 		slli	a0,s7,4
GAS LISTING /tmp/ccZyg3wo.s 			page 6


 223              	.LVL21:
 224 0134 97000000 		call	_Z7kmallocm@plt
 224      E7800000 
 225              	.LVL22:
 226 013c 930A0500 		mv	s5,a0
 227              	.LBB5:
  62:src/kernel/../../src/kernel/tests/test2.hpp **** 
  63:src/kernel/../../src/kernel/tests/test2.hpp ****     for (int i = 0; i < data.iterations; i++) {
 228              		.loc 1 63 14
 229 0140 93040000 		li	s1,0
 230              	.LBE5:
  57:src/kernel/../../src/kernel/tests/test2.hpp ****     int object_size = data.id + 1;
 231              		.loc 1 57 9
 232 0144 93090000 		li	s3,0
 233 0148 6F008003 		j	.L17
 234              	.LVL23:
 235              	.L15:
 236              	.LBB6:
  64:src/kernel/../../src/kernel/tests/test2.hpp ****         if (i % 100 == 0) {
  65:src/kernel/../../src/kernel/tests/test2.hpp ****             objs[size].data = kmem_cache_alloc(data.shared);
  66:src/kernel/../../src/kernel/tests/test2.hpp ****             objs[size].cache = data.shared;
  67:src/kernel/../../src/kernel/tests/test2.hpp ****             if (!check(objs[size].data, shared_size)) {
  68:src/kernel/../../src/kernel/tests/test2.hpp ****                 ConsoleUtil::printString("Value not correct!");
  69:src/kernel/../../src/kernel/tests/test2.hpp ****             }
  70:src/kernel/../../src/kernel/tests/test2.hpp ****         }
  71:src/kernel/../../src/kernel/tests/test2.hpp ****         else {
  72:src/kernel/../../src/kernel/tests/test2.hpp ****             objs[size].data = kmem_cache_alloc(cache);
 237              		.loc 1 72 13 is_stmt 1
 238              		.loc 1 72 22 is_stmt 0
 239 014c 13994900 		slli	s2,s3,4
 240 0150 33892A01 		add	s2,s5,s2
 241              		.loc 1 72 47
 242 0154 13050A00 		mv	a0,s4
 243 0158 97000000 		call	_Z16kmem_cache_allocP5Cache@plt
 243      E7800000 
 244              	.LVL24:
 245              		.loc 1 72 29
 246 0160 2334A900 		sd	a0,8(s2)
  73:src/kernel/../../src/kernel/tests/test2.hpp ****             objs[size].cache = cache;
 247              		.loc 1 73 13 is_stmt 1
 248              		.loc 1 73 30 is_stmt 0
 249 0164 23304901 		sd	s4,0(s2)
  74:src/kernel/../../src/kernel/tests/test2.hpp ****             memset(objs[size].data, object_size, MASK);
 250              		.loc 1 74 13 is_stmt 1
 251              		.loc 1 74 19 is_stmt 0
 252 0168 1306500A 		li	a2,165
 253 016c 93050C00 		mv	a1,s8
 254 0170 97000000 		call	_Z6memsetPKvii
 254      E7800000 
 255              	.LVL25:
 256              	.L16:
  75:src/kernel/../../src/kernel/tests/test2.hpp ****         }
  76:src/kernel/../../src/kernel/tests/test2.hpp ****         size++;
 257              		.loc 1 76 9 is_stmt 1 discriminator 2
 258              		.loc 1 76 13 is_stmt 0 discriminator 2
 259 0178 9B891900 		addiw	s3,s3,1
 260              	.LVL26:
GAS LISTING /tmp/ccZyg3wo.s 			page 7


  63:src/kernel/../../src/kernel/tests/test2.hpp ****         if (i % 100 == 0) {
 261              		.loc 1 63 5 is_stmt 1 discriminator 2
 262 017c 9B841400 		addiw	s1,s1,1
 263              	.LVL27:
 264              	.L17:
  63:src/kernel/../../src/kernel/tests/test2.hpp ****         if (i % 100 == 0) {
 265              		.loc 1 63 23 discriminator 1
 266 0180 63DA7405 		ble	s7,s1,.L14
  64:src/kernel/../../src/kernel/tests/test2.hpp ****             objs[size].data = kmem_cache_alloc(data.shared);
 267              		.loc 1 64 9
  64:src/kernel/../../src/kernel/tests/test2.hpp ****             objs[size].data = kmem_cache_alloc(data.shared);
 268              		.loc 1 64 15 is_stmt 0
 269 0184 93074006 		li	a5,100
 270 0188 BBE7F402 		remw	a5,s1,a5
  64:src/kernel/../../src/kernel/tests/test2.hpp ****             objs[size].data = kmem_cache_alloc(data.shared);
 271              		.loc 1 64 9
 272 018c E39007FC 		bnez	a5,.L15
  65:src/kernel/../../src/kernel/tests/test2.hpp ****             objs[size].cache = data.shared;
 273              		.loc 1 65 13 is_stmt 1
  65:src/kernel/../../src/kernel/tests/test2.hpp ****             objs[size].cache = data.shared;
 274              		.loc 1 65 47 is_stmt 0
 275 0190 833C04F9 		ld	s9,-112(s0)
  65:src/kernel/../../src/kernel/tests/test2.hpp ****             objs[size].cache = data.shared;
 276              		.loc 1 65 22
 277 0194 13994900 		slli	s2,s3,4
 278 0198 33892A01 		add	s2,s5,s2
  65:src/kernel/../../src/kernel/tests/test2.hpp ****             objs[size].cache = data.shared;
 279              		.loc 1 65 47
 280 019c 13850C00 		mv	a0,s9
 281 01a0 97000000 		call	_Z16kmem_cache_allocP5Cache@plt
 281      E7800000 
 282              	.LVL28:
  65:src/kernel/../../src/kernel/tests/test2.hpp ****             objs[size].cache = data.shared;
 283              		.loc 1 65 29
 284 01a8 2334A900 		sd	a0,8(s2)
  66:src/kernel/../../src/kernel/tests/test2.hpp ****             if (!check(objs[size].data, shared_size)) {
 285              		.loc 1 66 13 is_stmt 1
  66:src/kernel/../../src/kernel/tests/test2.hpp ****             if (!check(objs[size].data, shared_size)) {
 286              		.loc 1 66 30 is_stmt 0
 287 01ac 23309901 		sd	s9,0(s2)
  67:src/kernel/../../src/kernel/tests/test2.hpp ****                 ConsoleUtil::printString("Value not correct!");
 288              		.loc 1 67 13 is_stmt 1
  67:src/kernel/../../src/kernel/tests/test2.hpp ****                 ConsoleUtil::printString("Value not correct!");
 289              		.loc 1 67 23 is_stmt 0
 290 01b0 93057000 		li	a1,7
 291 01b4 97000000 		call	_Z5checkPvm
 291      E7800000 
 292              	.LVL29:
  67:src/kernel/../../src/kernel/tests/test2.hpp ****                 ConsoleUtil::printString("Value not correct!");
 293              		.loc 1 67 13
 294 01bc E31E05FA 		bnez	a0,.L16
  68:src/kernel/../../src/kernel/tests/test2.hpp ****             }
 295              		.loc 1 68 17 is_stmt 1
  68:src/kernel/../../src/kernel/tests/test2.hpp ****             }
 296              		.loc 1 68 41 is_stmt 0
 297 01c0 17050000 		lla	a0,.LC0
 297      13050500 
GAS LISTING /tmp/ccZyg3wo.s 			page 8


 298 01c8 97000000 		call	_ZN11ConsoleUtil11printStringEPKc@plt
 298      E7800000 
 299              	.LVL30:
 300 01d0 6FF09FFA 		j	.L16
 301              	.L14:
 302              	.LBE6:
  77:src/kernel/../../src/kernel/tests/test2.hpp ****     }
  78:src/kernel/../../src/kernel/tests/test2.hpp **** 
  79:src/kernel/../../src/kernel/tests/test2.hpp ****     kmem_cache_info(cache);
 303              		.loc 1 79 5 is_stmt 1
 304              		.loc 1 79 20 is_stmt 0
 305 01d4 13050A00 		mv	a0,s4
 306 01d8 97000000 		call	_Z15kmem_cache_infoP5Cache@plt
 306      E7800000 
 307              	.LVL31:
  80:src/kernel/../../src/kernel/tests/test2.hpp ****     kmem_cache_info(data.shared);
 308              		.loc 1 80 5 is_stmt 1
 309              		.loc 1 80 20 is_stmt 0
 310 01e0 033504F9 		ld	a0,-112(s0)
 311 01e4 97000000 		call	_Z15kmem_cache_infoP5Cache@plt
 311      E7800000 
 312              	.LVL32:
 313              	.LBB7:
  81:src/kernel/../../src/kernel/tests/test2.hpp **** 
  82:src/kernel/../../src/kernel/tests/test2.hpp ****     for (int i = 0; i < size; i++) {
 314              		.loc 1 82 14
 315 01ec 13090000 		li	s2,0
 316 01f0 6F000003 		j	.L21
 317              	.LVL33:
 318              	.L22:
  83:src/kernel/../../src/kernel/tests/test2.hpp ****         if (!check(objs[i].data, (cache == objs[i].cache) ? object_size : shared_size)) {
 319              		.loc 1 83 19
 320 01f4 93050B00 		mv	a1,s6
 321 01f8 6F004004 		j	.L19
 322              	.L24:
  84:src/kernel/../../src/kernel/tests/test2.hpp ****             ConsoleUtil::printString("Value not correct!");
 323              		.loc 1 84 13 is_stmt 1
 324              		.loc 1 84 37 is_stmt 0
 325 01fc 17050000 		lla	a0,.LC0
 325      13050500 
 326 0204 97000000 		call	_ZN11ConsoleUtil11printStringEPKc@plt
 326      E7800000 
 327              	.LVL34:
 328              	.L20:
  85:src/kernel/../../src/kernel/tests/test2.hpp ****         }
  86:src/kernel/../../src/kernel/tests/test2.hpp ****         kmem_cache_free(objs[i].cache, objs[i].data);
 329              		.loc 1 86 9 is_stmt 1
 330              		.loc 1 86 24 is_stmt 0
 331 020c 83B58400 		ld	a1,8(s1)
 332 0210 03B50400 		ld	a0,0(s1)
 333 0214 97000000 		call	_Z15kmem_cache_freeP5CachePv@plt
 333      E7800000 
 334              	.LVL35:
  82:src/kernel/../../src/kernel/tests/test2.hpp ****         if (!check(objs[i].data, (cache == objs[i].cache) ? object_size : shared_size)) {
 335              		.loc 1 82 5 is_stmt 1
 336 021c 1B091900 		addiw	s2,s2,1
 337              	.LVL36:
GAS LISTING /tmp/ccZyg3wo.s 			page 9


 338              	.L21:
  82:src/kernel/../../src/kernel/tests/test2.hpp ****         if (!check(objs[i].data, (cache == objs[i].cache) ? object_size : shared_size)) {
 339              		.loc 1 82 23 discriminator 1
 340 0220 63563903 		ble	s3,s2,.L18
  83:src/kernel/../../src/kernel/tests/test2.hpp ****             ConsoleUtil::printString("Value not correct!");
 341              		.loc 1 83 9
  83:src/kernel/../../src/kernel/tests/test2.hpp ****             ConsoleUtil::printString("Value not correct!");
 342              		.loc 1 83 26 is_stmt 0
 343 0224 93144900 		slli	s1,s2,4
 344 0228 B3849A00 		add	s1,s5,s1
  83:src/kernel/../../src/kernel/tests/test2.hpp ****             ConsoleUtil::printString("Value not correct!");
 345              		.loc 1 83 19
 346 022c 03B58400 		ld	a0,8(s1)
  83:src/kernel/../../src/kernel/tests/test2.hpp ****             ConsoleUtil::printString("Value not correct!");
 347              		.loc 1 83 52
 348 0230 83B70400 		ld	a5,0(s1)
  83:src/kernel/../../src/kernel/tests/test2.hpp ****             ConsoleUtil::printString("Value not correct!");
 349              		.loc 1 83 19
 350 0234 E38047FD 		beq	a5,s4,.L22
 351 0238 93057000 		li	a1,7
 352              	.L19:
  83:src/kernel/../../src/kernel/tests/test2.hpp ****             ConsoleUtil::printString("Value not correct!");
 353              		.loc 1 83 19 discriminator 4
 354 023c 97000000 		call	_Z5checkPvm
 354      E7800000 
 355              	.LVL37:
  83:src/kernel/../../src/kernel/tests/test2.hpp ****             ConsoleUtil::printString("Value not correct!");
 356              		.loc 1 83 9 discriminator 4
 357 0244 E31405FC 		bnez	a0,.L20
 358 0248 6FF05FFB 		j	.L24
 359              	.L18:
 360              	.LBE7:
  87:src/kernel/../../src/kernel/tests/test2.hpp ****     }
  88:src/kernel/../../src/kernel/tests/test2.hpp **** 
  89:src/kernel/../../src/kernel/tests/test2.hpp ****     kfree(objs);
 361              		.loc 1 89 5 is_stmt 1
 362              		.loc 1 89 10 is_stmt 0
 363 024c 13850A00 		mv	a0,s5
 364 0250 97000000 		call	_Z5kfreePKv@plt
 364      E7800000 
 365              	.LVL38:
  90:src/kernel/../../src/kernel/tests/test2.hpp ****     kmem_cache_destroy(cache);
 366              		.loc 1 90 5 is_stmt 1
 367              		.loc 1 90 23 is_stmt 0
 368 0258 13050A00 		mv	a0,s4
 369 025c 97000000 		call	_Z18kmem_cache_destroyP5Cache@plt
 369      E7800000 
 370              	.LVL39:
  91:src/kernel/../../src/kernel/tests/test2.hpp **** }
 371              		.loc 1 91 1
 372 0264 83308107 		ld	ra,120(sp)
 373              		.cfi_restore 1
 374 0268 03340107 		ld	s0,112(sp)
 375              		.cfi_restore 8
 376              		.cfi_def_cfa 2, 128
 377              	.LVL40:
 378 026c 83348106 		ld	s1,104(sp)
GAS LISTING /tmp/ccZyg3wo.s 			page 10


 379              		.cfi_restore 9
 380 0270 03390106 		ld	s2,96(sp)
 381              		.cfi_restore 18
 382              	.LVL41:
 383 0274 83398105 		ld	s3,88(sp)
 384              		.cfi_restore 19
 385              	.LVL42:
 386 0278 033A0105 		ld	s4,80(sp)
 387              		.cfi_restore 20
 388              	.LVL43:
 389 027c 833A8104 		ld	s5,72(sp)
 390              		.cfi_restore 21
 391 0280 033B0104 		ld	s6,64(sp)
 392              		.cfi_restore 22
 393 0284 833B8103 		ld	s7,56(sp)
 394              		.cfi_restore 23
 395 0288 033C0103 		ld	s8,48(sp)
 396              		.cfi_restore 24
 397 028c 833C8102 		ld	s9,40(sp)
 398              		.cfi_restore 25
 399 0290 13010108 		addi	sp,sp,128
 400              		.cfi_def_cfa_offset 0
 401              	.LVL44:
 402 0294 67800000 		jr	ra
 403              		.cfi_endproc
 404              	.LFE50:
 406              		.align	2
 407              		.globl	_Z4runsPFvPvEP6data_si
 409              	_Z4runsPFvPvEP6data_si:
 410              	.LFB51:
  92:src/kernel/../../src/kernel/tests/test2.hpp **** 
  93:src/kernel/../../src/kernel/tests/test2.hpp **** 
  94:src/kernel/../../src/kernel/tests/test2.hpp **** 
  95:src/kernel/../../src/kernel/tests/test2.hpp **** void runs(void(*work)(void*), struct data_s* data, int num) {
 411              		.loc 1 95 61 is_stmt 1
 412              		.cfi_startproc
 413              	.LVL45:
 414 0298 130101FB 		addi	sp,sp,-80
 415              		.cfi_def_cfa_offset 80
 416 029c 23341104 		sd	ra,72(sp)
 417 02a0 23308104 		sd	s0,64(sp)
 418 02a4 233C9102 		sd	s1,56(sp)
 419 02a8 23382103 		sd	s2,48(sp)
 420 02ac 23343103 		sd	s3,40(sp)
 421 02b0 23304103 		sd	s4,32(sp)
 422              		.cfi_offset 1, -8
 423              		.cfi_offset 8, -16
 424              		.cfi_offset 9, -24
 425              		.cfi_offset 18, -32
 426              		.cfi_offset 19, -40
 427              		.cfi_offset 20, -48
 428 02b4 13040105 		addi	s0,sp,80
 429              		.cfi_def_cfa 8, 0
 430 02b8 130A0500 		mv	s4,a0
 431 02bc 13890500 		mv	s2,a1
 432 02c0 93090600 		mv	s3,a2
  96:src/kernel/../../src/kernel/tests/test2.hpp ****     for (int i = 0; i < num; i++) {
GAS LISTING /tmp/ccZyg3wo.s 			page 11


 433              		.loc 1 96 5
 434              	.LVL46:
 435              	.LBB8:
 436              		.loc 1 96 14 is_stmt 0
 437 02c4 93040000 		li	s1,0
 438              	.LVL47:
 439              	.L27:
 440              		.loc 1 96 23 is_stmt 1 discriminator 1
 441 02c8 63D83403 		bge	s1,s3,.L25
 442              	.LBB9:
  97:src/kernel/../../src/kernel/tests/test2.hpp ****         struct data_s private_data;
 443              		.loc 1 97 9
  98:src/kernel/../../src/kernel/tests/test2.hpp ****         private_data = *(struct data_s*) data;
 444              		.loc 1 98 9
 445              		.loc 1 98 22 is_stmt 0
 446 02cc 83370900 		ld	a5,0(s2)
 447 02d0 233CF4FA 		sd	a5,-72(s0)
 448 02d4 83378900 		ld	a5,8(s2)
 449 02d8 2330F4FC 		sd	a5,-64(s0)
 450 02dc 83370901 		ld	a5,16(s2)
 451 02e0 2334F4FC 		sd	a5,-56(s0)
  99:src/kernel/../../src/kernel/tests/test2.hpp ****         private_data.id = i;
 452              		.loc 1 99 9 is_stmt 1
 453              		.loc 1 99 25 is_stmt 0
 454 02e4 232C94FA 		sw	s1,-72(s0)
 100:src/kernel/../../src/kernel/tests/test2.hpp ****         work(&private_data);
 455              		.loc 1 100 9 is_stmt 1
 456              		.loc 1 100 13 is_stmt 0
 457 02e8 130584FB 		addi	a0,s0,-72
 458 02ec E7000A00 		jalr	s4
 459              	.LVL48:
 460              	.LBE9:
  96:src/kernel/../../src/kernel/tests/test2.hpp ****         struct data_s private_data;
 461              		.loc 1 96 5 is_stmt 1
 462 02f0 9B841400 		addiw	s1,s1,1
 463              	.LVL49:
 464 02f4 6FF05FFD 		j	.L27
 465              	.LVL50:
 466              	.L25:
 467              	.LBE8:
 101:src/kernel/../../src/kernel/tests/test2.hpp ****     }
 102:src/kernel/../../src/kernel/tests/test2.hpp **** }
 468              		.loc 1 102 1 is_stmt 0
 469 02f8 83308104 		ld	ra,72(sp)
 470              		.cfi_restore 1
 471 02fc 03340104 		ld	s0,64(sp)
 472              		.cfi_restore 8
 473              		.cfi_def_cfa 2, 80
 474 0300 83348103 		ld	s1,56(sp)
 475              		.cfi_restore 9
 476              	.LVL51:
 477 0304 03390103 		ld	s2,48(sp)
 478              		.cfi_restore 18
 479              	.LVL52:
 480 0308 83398102 		ld	s3,40(sp)
 481              		.cfi_restore 19
 482 030c 033A0102 		ld	s4,32(sp)
GAS LISTING /tmp/ccZyg3wo.s 			page 12


 483              		.cfi_restore 20
 484              	.LVL53:
 485 0310 13010105 		addi	sp,sp,80
 486              		.cfi_def_cfa_offset 0
 487 0314 67800000 		jr	ra
 488              		.cfi_endproc
 489              	.LFE51:
 491              		.section	.rodata.str1.8
 492 0013 00000000 		.align	3
 492      00
 493              	.LC1:
 494 0018 73686172 		.string	"shared object"
 494      6564206F 
 494      626A6563 
 494      7400
 495              		.text
 496              		.align	2
 497              		.globl	_Z5test2v
 499              	_Z5test2v:
 500              	.LFB52:
 103:src/kernel/../../src/kernel/tests/test2.hpp **** 
 104:src/kernel/../../src/kernel/tests/test2.hpp **** void test2() {
 501              		.loc 1 104 14 is_stmt 1
 502              		.cfi_startproc
 503 0318 130101FC 		addi	sp,sp,-64
 504              		.cfi_def_cfa_offset 64
 505 031c 233C1102 		sd	ra,56(sp)
 506 0320 23388102 		sd	s0,48(sp)
 507 0324 23349102 		sd	s1,40(sp)
 508              		.cfi_offset 1, -8
 509              		.cfi_offset 8, -16
 510              		.cfi_offset 9, -24
 511 0328 13040104 		addi	s0,sp,64
 512              		.cfi_def_cfa 8, 0
 105:src/kernel/../../src/kernel/tests/test2.hpp ****     kmem_cache_t *shared = kmem_cache_create("shared object", shared_size, construct, nullptr);
 513              		.loc 1 105 5
 514              		.loc 1 105 45 is_stmt 0
 515 032c 93060000 		li	a3,0
 516 0330 17060000 		lla	a2,_Z9constructPv
 516      13060600 
 517 0338 93057000 		li	a1,7
 518 033c 17050000 		lla	a0,.LC1
 518      13050500 
 519 0344 97000000 		call	_Z17kmem_cache_createPKcmPFvPvES3_@plt
 519      E7800000 
 520              	.LVL54:
 521 034c 93040500 		mv	s1,a0
 522              	.LVL55:
 106:src/kernel/../../src/kernel/tests/test2.hpp **** 
 107:src/kernel/../../src/kernel/tests/test2.hpp ****     struct data_s data;
 523              		.loc 1 107 5 is_stmt 1
 108:src/kernel/../../src/kernel/tests/test2.hpp ****     data.shared = shared;
 524              		.loc 1 108 5
 525              		.loc 1 108 17 is_stmt 0
 526 0350 2338A4FC 		sd	a0,-48(s0)
 109:src/kernel/../../src/kernel/tests/test2.hpp ****     data.iterations = ITERATIONS;
 527              		.loc 1 109 5 is_stmt 1
GAS LISTING /tmp/ccZyg3wo.s 			page 13


 528              		.loc 1 109 21 is_stmt 0
 529 0354 9307803E 		li	a5,1000
 530 0358 232CF4FC 		sw	a5,-40(s0)
 110:src/kernel/../../src/kernel/tests/test2.hpp ****     runs(work, &data, RUN_NUM);
 531              		.loc 1 110 5 is_stmt 1
 532              		.loc 1 110 9 is_stmt 0
 533 035c 13065000 		li	a2,5
 534 0360 930584FC 		addi	a1,s0,-56
 535 0364 17050000 		lla	a0,_Z4workPv
 535      13050500 
 536 036c 97000000 		call	_Z4runsPFvPvEP6data_si
 536      E7800000 
 537              	.LVL56:
 111:src/kernel/../../src/kernel/tests/test2.hpp **** 
 112:src/kernel/../../src/kernel/tests/test2.hpp ****     kmem_cache_destroy(shared);
 538              		.loc 1 112 5 is_stmt 1
 539              		.loc 1 112 23 is_stmt 0
 540 0374 13850400 		mv	a0,s1
 541 0378 97000000 		call	_Z18kmem_cache_destroyP5Cache@plt
 541      E7800000 
 542              	.LVL57:
 113:src/kernel/../../src/kernel/tests/test2.hpp **** }
 543              		.loc 1 113 1
 544 0380 83308103 		ld	ra,56(sp)
 545              		.cfi_restore 1
 546 0384 03340103 		ld	s0,48(sp)
 547              		.cfi_restore 8
 548              		.cfi_def_cfa 2, 64
 549 0388 83348102 		ld	s1,40(sp)
 550              		.cfi_restore 9
 551              	.LVL58:
 552 038c 13010104 		addi	sp,sp,64
 553              		.cfi_def_cfa_offset 0
 554 0390 67800000 		jr	ra
 555              		.cfi_endproc
 556              	.LFE52:
 558              		.section	.rodata.str1.8
 559 0026 0000     		.align	3
 560              	.LC2:
 561 0028 544D5031 		.string	"TMP1"
 561      00
 562 002d 000000   		.align	3
 563              	.LC3:
 564 0030 0A00     		.string	"\n"
 565 0032 00000000 		.align	3
 565      0000
 566              	.LC4:
 567 0038 00       		.string	""
 568              		.text
 569              		.align	2
 570              		.globl	_ZN6SystemC2Ev
 572              	_ZN6SystemC2Ev:
 573              	.LFB54:
 574              		.file 2 "src/kernel/system.cpp"
   1:src/kernel/system.cpp **** //
   2:src/kernel/system.cpp **** // Created by os on 5/31/22.
   3:src/kernel/system.cpp **** //
GAS LISTING /tmp/ccZyg3wo.s 			page 14


   4:src/kernel/system.cpp **** 
   5:src/kernel/system.cpp **** #include "../../h/kernel/system.hpp"
   6:src/kernel/system.cpp **** #include "../../h/kernel/riscv.hpp"
   7:src/kernel/system.cpp **** #include "../../h/user/syscall_c.h"
   8:src/kernel/system.cpp **** #include "../../src/user/tests/userMain.hpp"
   9:src/kernel/system.cpp **** #include "../../src/kernel/tests/test2.hpp"
  10:src/kernel/system.cpp **** #include "../../h/user/printing.hpp"
  11:src/kernel/system.cpp **** #include "../../h/kernel/tcb.hpp"
  12:src/kernel/system.cpp **** #include "../../h/kernel/scheduler.hpp"
  13:src/kernel/system.cpp **** #include "../../src/user/tests/userMain.hpp"
  14:src/kernel/system.cpp **** 
  15:src/kernel/system.cpp **** bool System::initialized = false;
  16:src/kernel/system.cpp **** 
  17:src/kernel/system.cpp **** 
  18:src/kernel/system.cpp **** System::System() {
 575              		.loc 2 18 1 is_stmt 1
 576              		.cfi_startproc
 577              	.LVL59:
  19:src/kernel/system.cpp ****     //check whether system is already running to prevent user malicious access
  20:src/kernel/system.cpp ****     if (!initialized) {
 578              		.loc 2 20 5
 579              	.LBB10:
 580              		.loc 2 20 9 is_stmt 0
 581 0394 97070000 		lbu	a5,.LANCHOR1
 581      83C70700 
 582              		.loc 2 20 5
 583 039c 63840700 		beqz	a5,.L40
 584 03a0 67800000 		ret
 585              	.L40:
 586              	.LBE10:
  18:src/kernel/system.cpp ****     //check whether system is already running to prevent user malicious access
 587              		.loc 2 18 1
 588 03a4 130101FC 		addi	sp,sp,-64
 589              		.cfi_def_cfa_offset 64
 590 03a8 233C1102 		sd	ra,56(sp)
 591 03ac 23388102 		sd	s0,48(sp)
 592 03b0 23349102 		sd	s1,40(sp)
 593 03b4 23302103 		sd	s2,32(sp)
 594 03b8 233C3101 		sd	s3,24(sp)
 595 03bc 23384101 		sd	s4,16(sp)
 596              		.cfi_offset 1, -8
 597              		.cfi_offset 8, -16
 598              		.cfi_offset 9, -24
 599              		.cfi_offset 18, -32
 600              		.cfi_offset 19, -40
 601              		.cfi_offset 20, -48
 602 03c0 13040104 		addi	s0,sp,64
 603              		.cfi_def_cfa 8, 0
 604              	.LBB14:
 605              	.LBB11:
  21:src/kernel/system.cpp ****         initialized = true;
 606              		.loc 2 21 9 is_stmt 1
 607              		.loc 2 21 21 is_stmt 0
 608 03c4 93071000 		li	a5,1
 609 03c8 17070000 		sb	a5,.LANCHOR1,a4
 609      2300F700 
  22:src/kernel/system.cpp **** 
GAS LISTING /tmp/ccZyg3wo.s 			page 15


  23:src/kernel/system.cpp ****         //initialize the machine
  24:src/kernel/system.cpp ****         RiscV::initialize();
 610              		.loc 2 24 9 is_stmt 1
 611              		.loc 2 24 26 is_stmt 0
 612 03d0 97000000 		call	_ZN5RiscV10initializeEv@plt
 612      E7800000 
 613              	.LVL60:
  25:src/kernel/system.cpp **** 
  26:src/kernel/system.cpp ****         Cache *tmp1 = kmem_cache_create("TMP1", 1<<17, nullptr, nullptr);
 614              		.loc 2 26 9 is_stmt 1
 615              		.loc 2 26 40 is_stmt 0
 616 03d8 93060000 		li	a3,0
 617 03dc 13060000 		li	a2,0
 618 03e0 B7050200 		li	a1,131072
 619 03e4 17050000 		lla	a0,.LC2
 619      13050500 
 620 03ec 97000000 		call	_Z17kmem_cache_createPKcmPFvPvES3_@plt
 620      E7800000 
 621              	.LVL61:
 622 03f4 93040500 		mv	s1,a0
 623              	.LVL62:
  27:src/kernel/system.cpp **** //        Cache *tmp2 = kmem_cache_create("TMP2", 2048, nullptr, nullptr);
  28:src/kernel/system.cpp ****         void* ret1 = kmem_cache_alloc(tmp1);
 624              		.loc 2 28 9 is_stmt 1
 625              		.loc 2 28 38 is_stmt 0
 626 03f8 97000000 		call	_Z16kmem_cache_allocP5Cache@plt
 626      E7800000 
 627              	.LVL63:
 628 0400 13090500 		mv	s2,a0
 629              	.LVL64:
  29:src/kernel/system.cpp ****         void* ret2 = kmem_cache_alloc(tmp1);
 630              		.loc 2 29 9 is_stmt 1
 631              		.loc 2 29 38 is_stmt 0
 632 0404 13850400 		mv	a0,s1
 633              	.LVL65:
 634 0408 97000000 		call	_Z16kmem_cache_allocP5Cache@plt
 634      E7800000 
 635              	.LVL66:
 636 0410 93090500 		mv	s3,a0
 637              	.LVL67:
  30:src/kernel/system.cpp ****         void* ret3 = kmem_cache_alloc(tmp1);
 638              		.loc 2 30 9 is_stmt 1
 639              		.loc 2 30 38 is_stmt 0
 640 0414 13850400 		mv	a0,s1
 641              	.LVL68:
 642 0418 97000000 		call	_Z16kmem_cache_allocP5Cache@plt
 642      E7800000 
 643              	.LVL69:
 644 0420 130A0500 		mv	s4,a0
 645              	.LVL70:
  31:src/kernel/system.cpp ****         if(ret1 && ret2 && ret3){
 646              		.loc 2 31 9 is_stmt 1
 647              	.LBB12:
 648 0424 6302090C 		beqz	s2,.L33
 649              		.loc 2 31 17 is_stmt 0 discriminator 1
 650 0428 6380090C 		beqz	s3,.L33
 651              		.loc 2 31 25 discriminator 2
GAS LISTING /tmp/ccZyg3wo.s 			page 16


 652 042c 630E050A 		beqz	a0,.L33
 653              	.LBB13:
  32:src/kernel/system.cpp ****             SlabAllocator::printSlab(tmp1->partialHead);
 654              		.loc 2 32 13 is_stmt 1
 655              		.loc 2 32 37 is_stmt 0
 656 0430 03B50407 		ld	a0,112(s1)
 657              	.LVL71:
 658 0434 97000000 		call	_ZN13SlabAllocator9printSlabEP4Slab@plt
 658      E7800000 
 659              	.LVL72:
  33:src/kernel/system.cpp ****             kmem_cache_free(tmp1, ret3);
 660              		.loc 2 33 13 is_stmt 1
 661              		.loc 2 33 28 is_stmt 0
 662 043c 93050A00 		mv	a1,s4
 663 0440 13850400 		mv	a0,s1
 664 0444 97000000 		call	_Z15kmem_cache_freeP5CachePv@plt
 664      E7800000 
 665              	.LVL73:
  34:src/kernel/system.cpp ****             SlabAllocator::printSlab(tmp1->partialHead);
 666              		.loc 2 34 13 is_stmt 1
 667              		.loc 2 34 37 is_stmt 0
 668 044c 03B50407 		ld	a0,112(s1)
 669 0450 97000000 		call	_ZN13SlabAllocator9printSlabEP4Slab@plt
 669      E7800000 
 670              	.LVL74:
  35:src/kernel/system.cpp ****             kmem_cache_free(tmp1, ret2);
 671              		.loc 2 35 13 is_stmt 1
 672              		.loc 2 35 28 is_stmt 0
 673 0458 93850900 		mv	a1,s3
 674 045c 13850400 		mv	a0,s1
 675 0460 97000000 		call	_Z15kmem_cache_freeP5CachePv@plt
 675      E7800000 
 676              	.LVL75:
  36:src/kernel/system.cpp ****             kmem_cache_free(tmp1, ret1);
 677              		.loc 2 36 13 is_stmt 1
 678              		.loc 2 36 28 is_stmt 0
 679 0468 93050900 		mv	a1,s2
 680 046c 13850400 		mv	a0,s1
 681 0470 97000000 		call	_Z15kmem_cache_freeP5CachePv@plt
 681      E7800000 
 682              	.LVL76:
  37:src/kernel/system.cpp ****             kmem_cache_info(tmp1);
 683              		.loc 2 37 13 is_stmt 1
 684              		.loc 2 37 28 is_stmt 0
 685 0478 13850400 		mv	a0,s1
 686 047c 97000000 		call	_Z15kmem_cache_infoP5Cache@plt
 686      E7800000 
 687              	.LVL77:
  38:src/kernel/system.cpp ****             Buddy::printList();
 688              		.loc 2 38 13 is_stmt 1
 689              		.loc 2 38 29 is_stmt 0
 690 0484 97000000 		call	_ZN5Buddy9printListEv@plt
 690      E7800000 
 691              	.LVL78:
  39:src/kernel/system.cpp ****             int ret = kmem_cache_shrink(tmp1);
 692              		.loc 2 39 13 is_stmt 1
 693              		.loc 2 39 40 is_stmt 0
GAS LISTING /tmp/ccZyg3wo.s 			page 17


 694 048c 13850400 		mv	a0,s1
 695 0490 97000000 		call	_Z17kmem_cache_shrinkP5Cache@plt
 695      E7800000 
 696              	.LVL79:
 697 0498 13090500 		mv	s2,a0
 698              	.LVL80:
  40:src/kernel/system.cpp ****             Buddy::printList();
 699              		.loc 2 40 13 is_stmt 1
 700              		.loc 2 40 29 is_stmt 0
 701 049c 97000000 		call	_ZN5Buddy9printListEv@plt
 701      E7800000 
 702              	.LVL81:
  41:src/kernel/system.cpp ****             ConsoleUtil::print("",ret,"\n",10);
 703              		.loc 2 41 13 is_stmt 1
 704              		.loc 2 41 31 is_stmt 0
 705 04a4 9306A000 		li	a3,10
 706 04a8 17060000 		lla	a2,.LC3
 706      13060600 
 707 04b0 93050900 		mv	a1,s2
 708 04b4 17050000 		lla	a0,.LC4
 708      13050500 
 709 04bc 97000000 		call	_ZN11ConsoleUtil5printEPKciS1_i@plt
 709      E7800000 
 710              	.LVL82:
  42:src/kernel/system.cpp ****             kmem_cache_info(tmp1);
 711              		.loc 2 42 13 is_stmt 1
 712              		.loc 2 42 28 is_stmt 0
 713 04c4 13850400 		mv	a0,s1
 714 04c8 97000000 		call	_Z15kmem_cache_infoP5Cache@plt
 714      E7800000 
 715              	.LVL83:
  43:src/kernel/system.cpp ****             kmem_cache_alloc(tmp1);
 716              		.loc 2 43 13 is_stmt 1
 717              		.loc 2 43 29 is_stmt 0
 718 04d0 13850400 		mv	a0,s1
 719 04d4 97000000 		call	_Z16kmem_cache_allocP5Cache@plt
 719      E7800000 
 720              	.LVL84:
  44:src/kernel/system.cpp ****             SlabAllocator::printSlab(tmp1->partialHead);
 721              		.loc 2 44 13 is_stmt 1
 722              		.loc 2 44 37 is_stmt 0
 723 04dc 03B50407 		ld	a0,112(s1)
 724 04e0 97000000 		call	_ZN13SlabAllocator9printSlabEP4Slab@plt
 724      E7800000 
 725              	.LVL85:
 726              	.L33:
 727              	.LBE13:
 728              	.LBE12:
  45:src/kernel/system.cpp ****         }
  46:src/kernel/system.cpp **** 
  47:src/kernel/system.cpp ****         test2();
 729              		.loc 2 47 9 is_stmt 1
 730              		.loc 2 47 14 is_stmt 0
 731 04e8 97000000 		call	_Z5test2v
 731      E7800000 
 732              	.LVL86:
  48:src/kernel/system.cpp ****         //creating a thread that will be executing user code
GAS LISTING /tmp/ccZyg3wo.s 			page 18


  49:src/kernel/system.cpp ****         //this is done as to separate user code execution from main kernel thread
  50:src/kernel/system.cpp ****         //also it provides kernel with an idle thread that will run itself if user code gets blocke
  51:src/kernel/system.cpp **** 
  52:src/kernel/system.cpp ****         thread_t userMainThread;
 733              		.loc 2 52 9 is_stmt 1
  53:src/kernel/system.cpp ****         RiscV::threadCreateUtil((TCB**)(&userMainThread), userMainWrapper, nullptr);
 734              		.loc 2 53 9
 735              		.loc 2 53 32 is_stmt 0
 736 04f0 13060000 		li	a2,0
 737 04f4 97050000 		la	a1,_Z15userMainWrapperPv
 737      83B50500 
 738 04fc 130584FC 		addi	a0,s0,-56
 739 0500 97000000 		call	_ZN5RiscV16threadCreateUtilEPP3TCBPFvPvES3_@plt
 739      E7800000 
 740              	.LVL87:
 741              	.L35:
  54:src/kernel/system.cpp **** 
  55:src/kernel/system.cpp **** 
  56:src/kernel/system.cpp **** //        //return control to user code until it reaches the end
  57:src/kernel/system.cpp **** //        //exit only if user is finished and machine is ready to exit (in case there is something 
  58:src/kernel/system.cpp ****         while (( (TCB*)userMainThread)->status != TCB::Status::FINISHED) {
 742              		.loc 2 58 9 is_stmt 1
 743              		.loc 2 58 48
 744              		.loc 2 58 18 is_stmt 0
 745 0508 833784FC 		ld	a5,-56(s0)
 746              		.loc 2 58 41
 747 050c 03A70701 		lw	a4,16(a5)
 748              		.loc 2 58 48
 749 0510 93072000 		li	a5,2
 750 0514 6308F700 		beq	a4,a5,.L34
  59:src/kernel/system.cpp ****             RiscV::threadDispatchUtil();
 751              		.loc 2 59 13 is_stmt 1
 752              		.loc 2 59 38 is_stmt 0
 753 0518 97000000 		call	_ZN5RiscV18threadDispatchUtilEv@plt
 753      E7800000 
 754              	.LVL88:
 755 0520 6FF09FFE 		j	.L35
 756              	.L34:
  60:src/kernel/system.cpp ****         }
  61:src/kernel/system.cpp **** 
  62:src/kernel/system.cpp ****         //finalize the machine
  63:src/kernel/system.cpp ****         RiscV::finalize();
 757              		.loc 2 63 9 is_stmt 1
 758              		.loc 2 63 24 is_stmt 0
 759 0524 97000000 		call	_ZN5RiscV8finalizeEv@plt
 759      E7800000 
 760              	.LVL89:
 761              	.LBE11:
 762              	.LBE14:
  64:src/kernel/system.cpp ****     }
  65:src/kernel/system.cpp **** }...
 763              		.loc 2 65 1
 764 052c 83308103 		ld	ra,56(sp)
 765              		.cfi_restore 1
 766 0530 03340103 		ld	s0,48(sp)
 767              		.cfi_restore 8
 768              		.cfi_def_cfa 2, 64
GAS LISTING /tmp/ccZyg3wo.s 			page 19


 769 0534 83348102 		ld	s1,40(sp)
 770              		.cfi_restore 9
 771              	.LVL90:
 772 0538 03390102 		ld	s2,32(sp)
 773              		.cfi_restore 18
 774 053c 83398101 		ld	s3,24(sp)
 775              		.cfi_restore 19
 776              	.LVL91:
 777 0540 033A0101 		ld	s4,16(sp)
 778              		.cfi_restore 20
 779              	.LVL92:
 780 0544 13010104 		addi	sp,sp,64
 781              		.cfi_def_cfa_offset 0
 782 0548 67800000 		jr	ra
 783              		.cfi_endproc
 784              	.LFE54:
 786              		.globl	_ZN6SystemC1Ev
 787              		.set	_ZN6SystemC1Ev,_ZN6SystemC2Ev
 788              		.globl	_ZN6System11initializedE
 789              		.section	.rodata.str1.8
 790 0039 00000000 		.align	3
 790      000000
 791              	.LC5:
 792 0040 74635F30 		.string	"tc_0"
 792      00
 793 0045 000000   		.align	3
 794              	.LC6:
 795 0048 74635F31 		.string	"tc_1"
 795      00
 796 004d 000000   		.align	3
 797              	.LC7:
 798 0050 74635F32 		.string	"tc_2"
 798      00
 799 0055 000000   		.align	3
 800              	.LC8:
 801 0058 74635F33 		.string	"tc_3"
 801      00
 802 005d 000000   		.align	3
 803              	.LC9:
 804 0060 74635F34 		.string	"tc_4"
 804      00
 805              		.bss
 806              		.set	.LANCHOR1,. + 0
 809              	_ZN6System11initializedE:
 810 0000 00       		.zero	1
 811              		.section	.data.rel.ro.local,"aw"
 812              		.align	3
 813              		.set	.LANCHOR0,. + 0
 816              	_ZL11CACHE_NAMES:
 817 0000 00000000 		.dword	.LC5
 817      00000000 
 818 0008 00000000 		.dword	.LC6
 818      00000000 
 819 0010 00000000 		.dword	.LC7
 819      00000000 
 820 0018 00000000 		.dword	.LC8
 820      00000000 
GAS LISTING /tmp/ccZyg3wo.s 			page 20


 821 0020 00000000 		.dword	.LC9
 821      00000000 
 822              		.text
 823              	.Letext0:
 824              		.file 3 "src/kernel/../../h/kernel/../../lib/hw.h"
 825              		.file 4 "src/kernel/../../h/kernel/utility.hpp"
 826              		.file 5 "src/kernel/../../h/kernel/system.hpp"
 827              		.file 6 "src/kernel/../../h/kernel/riscv.hpp"
 828              		.file 7 "src/kernel/../../h/kernel/tcb.hpp"
 829              		.file 8 "src/kernel/../../h/user/_thread.hpp"
 830              		.file 9 "src/kernel/../../src/kernel/tests/../../../h/kernel/buddy_allocator.hpp"
 831              		.file 10 "src/kernel/../../src/kernel/tests/../../../h/kernel/console_util.hpp"
 832              		.file 11 "src/kernel/../../src/kernel/tests/../../../h/kernel/slab_t.hpp"
 833              		.file 12 "src/kernel/../../src/kernel/tests/../../../h/kernel/cache_t.hpp"
 834              		.file 13 "src/kernel/../../src/kernel/tests/../../../h/kernel/slab_allocator.hpp"
 835              		.file 14 "src/kernel/../../src/kernel/tests/../../../h/kernel/slab.hpp"
GAS LISTING /tmp/ccZyg3wo.s 			page 21


DEFINED SYMBOLS
                            *ABS*:0000000000000000 system.cpp
     /tmp/ccZyg3wo.s:9      .text:0000000000000000 _Z6memsetPKvii
     /tmp/ccZyg3wo.s:13     .text:0000000000000000 .L0 
     /tmp/ccZyg3wo.s:15     .text:0000000000000000 .L0 
     /tmp/ccZyg3wo.s:16     .text:0000000000000004 .L0 
     /tmp/ccZyg3wo.s:18     .text:0000000000000008 .L0 
     /tmp/ccZyg3wo.s:20     .text:000000000000000c .L0 
     /tmp/ccZyg3wo.s:24     .text:000000000000000c .L0 
     /tmp/ccZyg3wo.s:25     .text:000000000000000c .L0 
     /tmp/ccZyg3wo.s:29     .text:0000000000000010 .L0 
     /tmp/ccZyg3wo.s:31     .text:0000000000000014 .L0 
     /tmp/ccZyg3wo.s:32     .text:0000000000000014 .L0 
     /tmp/ccZyg3wo.s:34     .text:0000000000000018 .L0 
     /tmp/ccZyg3wo.s:36     .text:000000000000001c .L0 
     /tmp/ccZyg3wo.s:43     .text:0000000000000024 .L0 
     /tmp/ccZyg3wo.s:44     .text:0000000000000028 .L0 
     /tmp/ccZyg3wo.s:45     .text:0000000000000028 .L0 
     /tmp/ccZyg3wo.s:47     .text:000000000000002c .L0 
     /tmp/ccZyg3wo.s:49     .text:0000000000000030 .L0 
     /tmp/ccZyg3wo.s:55     .text:0000000000000030 _Z9constructPv
     /tmp/ccZyg3wo.s:58     .text:0000000000000030 .L0 
     /tmp/ccZyg3wo.s:60     .text:0000000000000030 .L0 
     /tmp/ccZyg3wo.s:61     .text:0000000000000034 .L0 
     /tmp/ccZyg3wo.s:64     .text:000000000000003c .L0 
     /tmp/ccZyg3wo.s:65     .text:000000000000003c .L0 
     /tmp/ccZyg3wo.s:67     .text:0000000000000040 .L0 
     /tmp/ccZyg3wo.s:69     .text:0000000000000040 .L0 
     /tmp/ccZyg3wo.s:70     .text:0000000000000040 .L0 
     /tmp/ccZyg3wo.s:75     .text:0000000000000050 .L0 
     /tmp/ccZyg3wo.s:76     .text:0000000000000054 .L0 
     /tmp/ccZyg3wo.s:78     .text:0000000000000058 .L0 
     /tmp/ccZyg3wo.s:79     .text:0000000000000058 .L0 
     /tmp/ccZyg3wo.s:81     .text:000000000000005c .L0 
     /tmp/ccZyg3wo.s:83     .text:0000000000000060 .L0 
     /tmp/ccZyg3wo.s:89     .text:0000000000000060 _Z5checkPvm
     /tmp/ccZyg3wo.s:92     .text:0000000000000060 .L0 
     /tmp/ccZyg3wo.s:94     .text:0000000000000060 .L0 
     /tmp/ccZyg3wo.s:95     .text:0000000000000064 .L0 
     /tmp/ccZyg3wo.s:97     .text:0000000000000068 .L0 
     /tmp/ccZyg3wo.s:99     .text:000000000000006c .L0 
     /tmp/ccZyg3wo.s:103    .text:0000000000000070 .L0 
     /tmp/ccZyg3wo.s:105    .text:0000000000000070 .L0 
     /tmp/ccZyg3wo.s:106    .text:0000000000000070 .L0 
     /tmp/ccZyg3wo.s:109    .text:0000000000000074 .L0 
     /tmp/ccZyg3wo.s:116    .text:000000000000007c .L0 
     /tmp/ccZyg3wo.s:120    .text:0000000000000080 .L0 
     /tmp/ccZyg3wo.s:122    .text:0000000000000084 .L0 
     /tmp/ccZyg3wo.s:123    .text:0000000000000084 .L0 
     /tmp/ccZyg3wo.s:126    .text:000000000000008c .L0 
     /tmp/ccZyg3wo.s:129    .text:0000000000000094 .L0 
     /tmp/ccZyg3wo.s:136    .text:000000000000009c .L0 
     /tmp/ccZyg3wo.s:137    .text:000000000000009c .L0 
     /tmp/ccZyg3wo.s:138    .text:00000000000000a0 .L0 
     /tmp/ccZyg3wo.s:139    .text:00000000000000a0 .L0 
     /tmp/ccZyg3wo.s:141    .text:00000000000000a4 .L0 
     /tmp/ccZyg3wo.s:143    .text:00000000000000a8 .L0 
GAS LISTING /tmp/ccZyg3wo.s 			page 22


     /tmp/ccZyg3wo.s:154    .text:00000000000000a8 _Z4workPv
     /tmp/ccZyg3wo.s:157    .text:00000000000000a8 .L0 
     /tmp/ccZyg3wo.s:159    .text:00000000000000a8 .L0 
     /tmp/ccZyg3wo.s:160    .text:00000000000000ac .L0 
     /tmp/ccZyg3wo.s:172    .text:00000000000000d8 .L0 
     /tmp/ccZyg3wo.s:173    .text:00000000000000d8 .L0 
     /tmp/ccZyg3wo.s:174    .text:00000000000000d8 .L0 
     /tmp/ccZyg3wo.s:175    .text:00000000000000d8 .L0 
     /tmp/ccZyg3wo.s:176    .text:00000000000000d8 .L0 
     /tmp/ccZyg3wo.s:177    .text:00000000000000d8 .L0 
     /tmp/ccZyg3wo.s:178    .text:00000000000000d8 .L0 
     /tmp/ccZyg3wo.s:179    .text:00000000000000d8 .L0 
     /tmp/ccZyg3wo.s:180    .text:00000000000000d8 .L0 
     /tmp/ccZyg3wo.s:181    .text:00000000000000d8 .L0 
     /tmp/ccZyg3wo.s:182    .text:00000000000000d8 .L0 
     /tmp/ccZyg3wo.s:184    .text:00000000000000dc .L0 
     /tmp/ccZyg3wo.s:186    .text:00000000000000dc .L0 
     /tmp/ccZyg3wo.s:187    .text:00000000000000dc .L0 
     /tmp/ccZyg3wo.s:195    .text:00000000000000f4 .L0 
     /tmp/ccZyg3wo.s:196    .text:00000000000000f4 .L0 
     /tmp/ccZyg3wo.s:197    .text:00000000000000f4 .L0 
     /tmp/ccZyg3wo.s:199    .text:00000000000000f8 .L0 
     /tmp/ccZyg3wo.s:202    .text:00000000000000fc .L0 
     /tmp/ccZyg3wo.s:203    .text:00000000000000fc .L0 
     /tmp/ccZyg3wo.s:208    .text:000000000000010c .L0 
     /tmp/ccZyg3wo.s:219    .text:000000000000012c .L0 
     /tmp/ccZyg3wo.s:220    .text:000000000000012c .L0 
     /tmp/ccZyg3wo.s:222    .text:0000000000000130 .L0 
     /tmp/ccZyg3wo.s:229    .text:0000000000000140 .L0 
     /tmp/ccZyg3wo.s:232    .text:0000000000000144 .L0 
     /tmp/ccZyg3wo.s:238    .text:000000000000014c .L0 
     /tmp/ccZyg3wo.s:239    .text:000000000000014c .L0 
     /tmp/ccZyg3wo.s:242    .text:0000000000000154 .L0 
     /tmp/ccZyg3wo.s:246    .text:0000000000000160 .L0 
     /tmp/ccZyg3wo.s:248    .text:0000000000000164 .L0 
     /tmp/ccZyg3wo.s:249    .text:0000000000000164 .L0 
     /tmp/ccZyg3wo.s:251    .text:0000000000000168 .L0 
     /tmp/ccZyg3wo.s:252    .text:0000000000000168 .L0 
     /tmp/ccZyg3wo.s:258    .text:0000000000000178 .L0 
     /tmp/ccZyg3wo.s:259    .text:0000000000000178 .L0 
     /tmp/ccZyg3wo.s:262    .text:000000000000017c .L0 
     /tmp/ccZyg3wo.s:266    .text:0000000000000180 .L0 
     /tmp/ccZyg3wo.s:268    .text:0000000000000184 .L0 
     /tmp/ccZyg3wo.s:269    .text:0000000000000184 .L0 
     /tmp/ccZyg3wo.s:272    .text:000000000000018c .L0 
     /tmp/ccZyg3wo.s:274    .text:0000000000000190 .L0 
     /tmp/ccZyg3wo.s:275    .text:0000000000000190 .L0 
     /tmp/ccZyg3wo.s:277    .text:0000000000000194 .L0 
     /tmp/ccZyg3wo.s:280    .text:000000000000019c .L0 
     /tmp/ccZyg3wo.s:284    .text:00000000000001a8 .L0 
     /tmp/ccZyg3wo.s:286    .text:00000000000001ac .L0 
     /tmp/ccZyg3wo.s:287    .text:00000000000001ac .L0 
     /tmp/ccZyg3wo.s:289    .text:00000000000001b0 .L0 
     /tmp/ccZyg3wo.s:290    .text:00000000000001b0 .L0 
     /tmp/ccZyg3wo.s:294    .text:00000000000001bc .L0 
     /tmp/ccZyg3wo.s:296    .text:00000000000001c0 .L0 
     /tmp/ccZyg3wo.s:297    .text:00000000000001c0 .L0 
GAS LISTING /tmp/ccZyg3wo.s 			page 23


     /tmp/ccZyg3wo.s:304    .text:00000000000001d4 .L0 
     /tmp/ccZyg3wo.s:305    .text:00000000000001d4 .L0 
     /tmp/ccZyg3wo.s:309    .text:00000000000001e0 .L0 
     /tmp/ccZyg3wo.s:310    .text:00000000000001e0 .L0 
     /tmp/ccZyg3wo.s:315    .text:00000000000001ec .L0 
     /tmp/ccZyg3wo.s:320    .text:00000000000001f4 .L0 
     /tmp/ccZyg3wo.s:324    .text:00000000000001fc .L0 
     /tmp/ccZyg3wo.s:325    .text:00000000000001fc .L0 
     /tmp/ccZyg3wo.s:330    .text:000000000000020c .L0 
     /tmp/ccZyg3wo.s:331    .text:000000000000020c .L0 
     /tmp/ccZyg3wo.s:336    .text:000000000000021c .L0 
     /tmp/ccZyg3wo.s:340    .text:0000000000000220 .L0 
     /tmp/ccZyg3wo.s:342    .text:0000000000000224 .L0 
     /tmp/ccZyg3wo.s:343    .text:0000000000000224 .L0 
     /tmp/ccZyg3wo.s:346    .text:000000000000022c .L0 
     /tmp/ccZyg3wo.s:348    .text:0000000000000230 .L0 
     /tmp/ccZyg3wo.s:350    .text:0000000000000234 .L0 
     /tmp/ccZyg3wo.s:354    .text:000000000000023c .L0 
     /tmp/ccZyg3wo.s:357    .text:0000000000000244 .L0 
     /tmp/ccZyg3wo.s:362    .text:000000000000024c .L0 
     /tmp/ccZyg3wo.s:363    .text:000000000000024c .L0 
     /tmp/ccZyg3wo.s:367    .text:0000000000000258 .L0 
     /tmp/ccZyg3wo.s:368    .text:0000000000000258 .L0 
     /tmp/ccZyg3wo.s:372    .text:0000000000000264 .L0 
     /tmp/ccZyg3wo.s:373    .text:0000000000000268 .L0 
     /tmp/ccZyg3wo.s:375    .text:000000000000026c .L0 
     /tmp/ccZyg3wo.s:376    .text:000000000000026c .L0 
     /tmp/ccZyg3wo.s:379    .text:0000000000000270 .L0 
     /tmp/ccZyg3wo.s:381    .text:0000000000000274 .L0 
     /tmp/ccZyg3wo.s:384    .text:0000000000000278 .L0 
     /tmp/ccZyg3wo.s:387    .text:000000000000027c .L0 
     /tmp/ccZyg3wo.s:390    .text:0000000000000280 .L0 
     /tmp/ccZyg3wo.s:392    .text:0000000000000284 .L0 
     /tmp/ccZyg3wo.s:394    .text:0000000000000288 .L0 
     /tmp/ccZyg3wo.s:396    .text:000000000000028c .L0 
     /tmp/ccZyg3wo.s:398    .text:0000000000000290 .L0 
     /tmp/ccZyg3wo.s:400    .text:0000000000000294 .L0 
     /tmp/ccZyg3wo.s:403    .text:0000000000000298 .L0 
     /tmp/ccZyg3wo.s:409    .text:0000000000000298 _Z4runsPFvPvEP6data_si
     /tmp/ccZyg3wo.s:412    .text:0000000000000298 .L0 
     /tmp/ccZyg3wo.s:414    .text:0000000000000298 .L0 
     /tmp/ccZyg3wo.s:415    .text:000000000000029c .L0 
     /tmp/ccZyg3wo.s:422    .text:00000000000002b4 .L0 
     /tmp/ccZyg3wo.s:423    .text:00000000000002b4 .L0 
     /tmp/ccZyg3wo.s:424    .text:00000000000002b4 .L0 
     /tmp/ccZyg3wo.s:425    .text:00000000000002b4 .L0 
     /tmp/ccZyg3wo.s:426    .text:00000000000002b4 .L0 
     /tmp/ccZyg3wo.s:427    .text:00000000000002b4 .L0 
     /tmp/ccZyg3wo.s:429    .text:00000000000002b8 .L0 
     /tmp/ccZyg3wo.s:436    .text:00000000000002c4 .L0 
     /tmp/ccZyg3wo.s:437    .text:00000000000002c4 .L0 
     /tmp/ccZyg3wo.s:441    .text:00000000000002c8 .L0 
     /tmp/ccZyg3wo.s:444    .text:00000000000002cc .L0 
     /tmp/ccZyg3wo.s:445    .text:00000000000002cc .L0 
     /tmp/ccZyg3wo.s:446    .text:00000000000002cc .L0 
     /tmp/ccZyg3wo.s:453    .text:00000000000002e4 .L0 
     /tmp/ccZyg3wo.s:454    .text:00000000000002e4 .L0 
GAS LISTING /tmp/ccZyg3wo.s 			page 24


     /tmp/ccZyg3wo.s:456    .text:00000000000002e8 .L0 
     /tmp/ccZyg3wo.s:457    .text:00000000000002e8 .L0 
     /tmp/ccZyg3wo.s:462    .text:00000000000002f0 .L0 
     /tmp/ccZyg3wo.s:469    .text:00000000000002f8 .L0 
     /tmp/ccZyg3wo.s:470    .text:00000000000002fc .L0 
     /tmp/ccZyg3wo.s:472    .text:0000000000000300 .L0 
     /tmp/ccZyg3wo.s:473    .text:0000000000000300 .L0 
     /tmp/ccZyg3wo.s:475    .text:0000000000000304 .L0 
     /tmp/ccZyg3wo.s:478    .text:0000000000000308 .L0 
     /tmp/ccZyg3wo.s:481    .text:000000000000030c .L0 
     /tmp/ccZyg3wo.s:483    .text:0000000000000310 .L0 
     /tmp/ccZyg3wo.s:486    .text:0000000000000314 .L0 
     /tmp/ccZyg3wo.s:488    .text:0000000000000318 .L0 
     /tmp/ccZyg3wo.s:499    .text:0000000000000318 _Z5test2v
     /tmp/ccZyg3wo.s:502    .text:0000000000000318 .L0 
     /tmp/ccZyg3wo.s:503    .text:0000000000000318 .L0 
     /tmp/ccZyg3wo.s:504    .text:000000000000031c .L0 
     /tmp/ccZyg3wo.s:508    .text:0000000000000328 .L0 
     /tmp/ccZyg3wo.s:509    .text:0000000000000328 .L0 
     /tmp/ccZyg3wo.s:510    .text:0000000000000328 .L0 
     /tmp/ccZyg3wo.s:512    .text:000000000000032c .L0 
     /tmp/ccZyg3wo.s:514    .text:000000000000032c .L0 
     /tmp/ccZyg3wo.s:515    .text:000000000000032c .L0 
     /tmp/ccZyg3wo.s:524    .text:0000000000000350 .L0 
     /tmp/ccZyg3wo.s:525    .text:0000000000000350 .L0 
     /tmp/ccZyg3wo.s:526    .text:0000000000000350 .L0 
     /tmp/ccZyg3wo.s:528    .text:0000000000000354 .L0 
     /tmp/ccZyg3wo.s:529    .text:0000000000000354 .L0 
     /tmp/ccZyg3wo.s:532    .text:000000000000035c .L0 
     /tmp/ccZyg3wo.s:533    .text:000000000000035c .L0 
     /tmp/ccZyg3wo.s:539    .text:0000000000000374 .L0 
     /tmp/ccZyg3wo.s:540    .text:0000000000000374 .L0 
     /tmp/ccZyg3wo.s:544    .text:0000000000000380 .L0 
     /tmp/ccZyg3wo.s:545    .text:0000000000000384 .L0 
     /tmp/ccZyg3wo.s:547    .text:0000000000000388 .L0 
     /tmp/ccZyg3wo.s:548    .text:0000000000000388 .L0 
     /tmp/ccZyg3wo.s:550    .text:000000000000038c .L0 
     /tmp/ccZyg3wo.s:553    .text:0000000000000390 .L0 
     /tmp/ccZyg3wo.s:555    .text:0000000000000394 .L0 
     /tmp/ccZyg3wo.s:572    .text:0000000000000394 _ZN6SystemC2Ev
     /tmp/ccZyg3wo.s:576    .text:0000000000000394 .L0 
     /tmp/ccZyg3wo.s:578    .text:0000000000000394 .L0 
     /tmp/ccZyg3wo.s:580    .text:0000000000000394 .L0 
     /tmp/ccZyg3wo.s:581    .text:0000000000000394 .L0 
     /tmp/ccZyg3wo.s:583    .text:000000000000039c .L0 
     /tmp/ccZyg3wo.s:588    .text:00000000000003a4 .L0 
     /tmp/ccZyg3wo.s:589    .text:00000000000003a8 .L0 
     /tmp/ccZyg3wo.s:596    .text:00000000000003c0 .L0 
     /tmp/ccZyg3wo.s:597    .text:00000000000003c0 .L0 
     /tmp/ccZyg3wo.s:598    .text:00000000000003c0 .L0 
     /tmp/ccZyg3wo.s:599    .text:00000000000003c0 .L0 
     /tmp/ccZyg3wo.s:600    .text:00000000000003c0 .L0 
     /tmp/ccZyg3wo.s:601    .text:00000000000003c0 .L0 
     /tmp/ccZyg3wo.s:603    .text:00000000000003c4 .L0 
     /tmp/ccZyg3wo.s:607    .text:00000000000003c4 .L0 
     /tmp/ccZyg3wo.s:608    .text:00000000000003c4 .L0 
     /tmp/ccZyg3wo.s:611    .text:00000000000003d0 .L0 
GAS LISTING /tmp/ccZyg3wo.s 			page 25


     /tmp/ccZyg3wo.s:612    .text:00000000000003d0 .L0 
     /tmp/ccZyg3wo.s:615    .text:00000000000003d8 .L0 
     /tmp/ccZyg3wo.s:616    .text:00000000000003d8 .L0 
     /tmp/ccZyg3wo.s:625    .text:00000000000003f8 .L0 
     /tmp/ccZyg3wo.s:626    .text:00000000000003f8 .L0 
     /tmp/ccZyg3wo.s:631    .text:0000000000000404 .L0 
     /tmp/ccZyg3wo.s:632    .text:0000000000000404 .L0 
     /tmp/ccZyg3wo.s:639    .text:0000000000000414 .L0 
     /tmp/ccZyg3wo.s:640    .text:0000000000000414 .L0 
     /tmp/ccZyg3wo.s:648    .text:0000000000000424 .L0 
     /tmp/ccZyg3wo.s:650    .text:0000000000000428 .L0 
     /tmp/ccZyg3wo.s:652    .text:000000000000042c .L0 
     /tmp/ccZyg3wo.s:655    .text:0000000000000430 .L0 
     /tmp/ccZyg3wo.s:656    .text:0000000000000430 .L0 
     /tmp/ccZyg3wo.s:661    .text:000000000000043c .L0 
     /tmp/ccZyg3wo.s:662    .text:000000000000043c .L0 
     /tmp/ccZyg3wo.s:667    .text:000000000000044c .L0 
     /tmp/ccZyg3wo.s:668    .text:000000000000044c .L0 
     /tmp/ccZyg3wo.s:672    .text:0000000000000458 .L0 
     /tmp/ccZyg3wo.s:673    .text:0000000000000458 .L0 
     /tmp/ccZyg3wo.s:678    .text:0000000000000468 .L0 
     /tmp/ccZyg3wo.s:679    .text:0000000000000468 .L0 
     /tmp/ccZyg3wo.s:684    .text:0000000000000478 .L0 
     /tmp/ccZyg3wo.s:685    .text:0000000000000478 .L0 
     /tmp/ccZyg3wo.s:689    .text:0000000000000484 .L0 
     /tmp/ccZyg3wo.s:690    .text:0000000000000484 .L0 
     /tmp/ccZyg3wo.s:693    .text:000000000000048c .L0 
     /tmp/ccZyg3wo.s:694    .text:000000000000048c .L0 
     /tmp/ccZyg3wo.s:700    .text:000000000000049c .L0 
     /tmp/ccZyg3wo.s:701    .text:000000000000049c .L0 
     /tmp/ccZyg3wo.s:704    .text:00000000000004a4 .L0 
     /tmp/ccZyg3wo.s:705    .text:00000000000004a4 .L0 
     /tmp/ccZyg3wo.s:712    .text:00000000000004c4 .L0 
     /tmp/ccZyg3wo.s:713    .text:00000000000004c4 .L0 
     /tmp/ccZyg3wo.s:717    .text:00000000000004d0 .L0 
     /tmp/ccZyg3wo.s:718    .text:00000000000004d0 .L0 
     /tmp/ccZyg3wo.s:722    .text:00000000000004dc .L0 
     /tmp/ccZyg3wo.s:723    .text:00000000000004dc .L0 
     /tmp/ccZyg3wo.s:730    .text:00000000000004e8 .L0 
     /tmp/ccZyg3wo.s:731    .text:00000000000004e8 .L0 
     /tmp/ccZyg3wo.s:734    .text:00000000000004f0 .L0 
     /tmp/ccZyg3wo.s:735    .text:00000000000004f0 .L0 
     /tmp/ccZyg3wo.s:736    .text:00000000000004f0 .L0 
     /tmp/ccZyg3wo.s:743    .text:0000000000000508 .L0 
     /tmp/ccZyg3wo.s:744    .text:0000000000000508 .L0 
     /tmp/ccZyg3wo.s:745    .text:0000000000000508 .L0 
     /tmp/ccZyg3wo.s:747    .text:000000000000050c .L0 
     /tmp/ccZyg3wo.s:749    .text:0000000000000510 .L0 
     /tmp/ccZyg3wo.s:752    .text:0000000000000518 .L0 
     /tmp/ccZyg3wo.s:753    .text:0000000000000518 .L0 
     /tmp/ccZyg3wo.s:758    .text:0000000000000524 .L0 
     /tmp/ccZyg3wo.s:759    .text:0000000000000524 .L0 
     /tmp/ccZyg3wo.s:764    .text:000000000000052c .L0 
     /tmp/ccZyg3wo.s:765    .text:0000000000000530 .L0 
     /tmp/ccZyg3wo.s:767    .text:0000000000000534 .L0 
     /tmp/ccZyg3wo.s:768    .text:0000000000000534 .L0 
     /tmp/ccZyg3wo.s:770    .text:0000000000000538 .L0 
GAS LISTING /tmp/ccZyg3wo.s 			page 26


     /tmp/ccZyg3wo.s:773    .text:000000000000053c .L0 
     /tmp/ccZyg3wo.s:775    .text:0000000000000540 .L0 
     /tmp/ccZyg3wo.s:778    .text:0000000000000544 .L0 
     /tmp/ccZyg3wo.s:781    .text:0000000000000548 .L0 
     /tmp/ccZyg3wo.s:783    .text:000000000000054c .L0 
     /tmp/ccZyg3wo.s:572    .text:0000000000000394 _ZN6SystemC1Ev
     /tmp/ccZyg3wo.s:809    .bss:0000000000000000 _ZN6System11initializedE
     /tmp/ccZyg3wo.s:806    .bss:0000000000000000 .LANCHOR1
     /tmp/ccZyg3wo.s:813    .data.rel.ro.local:0000000000000000 .LANCHOR0
     /tmp/ccZyg3wo.s:816    .data.rel.ro.local:0000000000000000 _ZL11CACHE_NAMES
     /tmp/ccZyg3wo.s:836    .text:000000000000054c .L0 
     /tmp/ccZyg3wo.s:204    .text:0000000000000100 .L0 
     /tmp/ccZyg3wo.s:148    .rodata.str1.8:0000000000000000 .LC0
     /tmp/ccZyg3wo.s:297    .text:00000000000001c0 .L0 
     /tmp/ccZyg3wo.s:325    .text:00000000000001fc .L0 
     /tmp/ccZyg3wo.s:516    .text:0000000000000330 .L0 
     /tmp/ccZyg3wo.s:493    .rodata.str1.8:0000000000000018 .LC1
     /tmp/ccZyg3wo.s:518    .text:000000000000033c .L0 
     /tmp/ccZyg3wo.s:535    .text:0000000000000364 .L0 
     /tmp/ccZyg3wo.s:581    .text:0000000000000394 .L0 
     /tmp/ccZyg3wo.s:609    .text:00000000000003c8 .L0 
     /tmp/ccZyg3wo.s:560    .rodata.str1.8:0000000000000028 .LC2
     /tmp/ccZyg3wo.s:619    .text:00000000000003e4 .L0 
     /tmp/ccZyg3wo.s:563    .rodata.str1.8:0000000000000030 .LC3
     /tmp/ccZyg3wo.s:706    .text:00000000000004a8 .L0 
     /tmp/ccZyg3wo.s:566    .rodata.str1.8:0000000000000038 .LC4
     /tmp/ccZyg3wo.s:708    .text:00000000000004b4 .L0 
     /tmp/ccZyg3wo.s:737    .text:00000000000004f4 .L0 
     /tmp/ccZyg3wo.s:40     .text:0000000000000024 .L1
     /tmp/ccZyg3wo.s:27     .text:0000000000000010 .L3
     /tmp/ccZyg3wo.s:118    .text:0000000000000080 .L10
     /tmp/ccZyg3wo.s:133    .text:000000000000009c .L8
     /tmp/ccZyg3wo.s:113    .text:000000000000007c .L9
     /tmp/ccZyg3wo.s:264    .text:0000000000000180 .L17
     /tmp/ccZyg3wo.s:301    .text:00000000000001d4 .L14
     /tmp/ccZyg3wo.s:235    .text:000000000000014c .L15
     /tmp/ccZyg3wo.s:256    .text:0000000000000178 .L16
     /tmp/ccZyg3wo.s:338    .text:0000000000000220 .L21
     /tmp/ccZyg3wo.s:352    .text:000000000000023c .L19
     /tmp/ccZyg3wo.s:359    .text:000000000000024c .L18
     /tmp/ccZyg3wo.s:318    .text:00000000000001f4 .L22
     /tmp/ccZyg3wo.s:328    .text:000000000000020c .L20
     /tmp/ccZyg3wo.s:322    .text:00000000000001fc .L24
     /tmp/ccZyg3wo.s:466    .text:00000000000002f8 .L25
     /tmp/ccZyg3wo.s:439    .text:00000000000002c8 .L27
     /tmp/ccZyg3wo.s:585    .text:00000000000003a4 .L40
     /tmp/ccZyg3wo.s:726    .text:00000000000004e8 .L33
     /tmp/ccZyg3wo.s:756    .text:0000000000000524 .L34
     /tmp/ccZyg3wo.s:741    .text:0000000000000508 .L35
     /tmp/ccZyg3wo.s:791    .rodata.str1.8:0000000000000040 .LC5
     /tmp/ccZyg3wo.s:794    .rodata.str1.8:0000000000000048 .LC6
     /tmp/ccZyg3wo.s:797    .rodata.str1.8:0000000000000050 .LC7
     /tmp/ccZyg3wo.s:800    .rodata.str1.8:0000000000000058 .LC8
     /tmp/ccZyg3wo.s:803    .rodata.str1.8:0000000000000060 .LC9
     /tmp/ccZyg3wo.s:3863   .debug_abbrev:0000000000000000 .Ldebug_abbrev0
     /tmp/ccZyg3wo.s:6025   .debug_str:000000000000191b .LASF378
     /tmp/ccZyg3wo.s:5421   .debug_str:00000000000003cb .LASF379
GAS LISTING /tmp/ccZyg3wo.s 			page 27


     /tmp/ccZyg3wo.s:5947   .debug_str:0000000000001625 .LASF380
     /tmp/ccZyg3wo.s:5      .text:0000000000000000 .Ltext0
     /tmp/ccZyg3wo.s:823    .text:000000000000054c .Letext0
     /tmp/ccZyg3wo.s:5311   .debug_line:0000000000000000 .Ldebug_line0
     /tmp/ccZyg3wo.s:5365   .debug_str:00000000000001e0 .LASF0
     /tmp/ccZyg3wo.s:6021   .debug_str:0000000000001900 .LASF1
     /tmp/ccZyg3wo.s:5953   .debug_str:0000000000001681 .LASF2
     /tmp/ccZyg3wo.s:5901   .debug_str:00000000000014c1 .LASF4
     /tmp/ccZyg3wo.s:5921   .debug_str:0000000000001559 .LASF3
     /tmp/ccZyg3wo.s:5541   .debug_str:000000000000079f .LASF5
     /tmp/ccZyg3wo.s:5605   .debug_str:0000000000000a3a .LASF6
     /tmp/ccZyg3wo.s:5815   .debug_str:00000000000011dd .LASF7
     /tmp/ccZyg3wo.s:5417   .debug_str:000000000000039e .LASF8
     /tmp/ccZyg3wo.s:6003   .debug_str:000000000000181e .LASF9
     /tmp/ccZyg3wo.s:5547   .debug_str:00000000000007bd .LASF10
     /tmp/ccZyg3wo.s:5467   .debug_str:0000000000000528 .LASF11
     /tmp/ccZyg3wo.s:5631   .debug_str:0000000000000b36 .LASF12
     /tmp/ccZyg3wo.s:5555   .debug_str:0000000000000806 .LASF13
     /tmp/ccZyg3wo.s:5875   .debug_str:0000000000001410 .LASF14
     /tmp/ccZyg3wo.s:5563   .debug_str:0000000000000854 .LASF15
     /tmp/ccZyg3wo.s:5513   .debug_str:00000000000006e4 .LASF16
     /tmp/ccZyg3wo.s:5597   .debug_str:00000000000009e7 .LASF17
     /tmp/ccZyg3wo.s:5929   .debug_str:0000000000001586 .LASF18
     /tmp/ccZyg3wo.s:6065   .debug_str:0000000000001af9 .LASF19
     /tmp/ccZyg3wo.s:5479   .debug_str:000000000000056f .LASF20
     /tmp/ccZyg3wo.s:5323   .debug_str:0000000000000054 .LASF21
     /tmp/ccZyg3wo.s:6063   .debug_str:0000000000001aeb .LASF22
     /tmp/ccZyg3wo.s:5681   .debug_str:0000000000000d11 .LASF23
     /tmp/ccZyg3wo.s:5791   .debug_str:0000000000001158 .LASF24
     /tmp/ccZyg3wo.s:5517   .debug_str:0000000000000725 .LASF26
     /tmp/ccZyg3wo.s:5409   .debug_str:0000000000000333 .LASF104
     /tmp/ccZyg3wo.s:5433   .debug_str:000000000000040d .LASF25
     /tmp/ccZyg3wo.s:5357   .debug_str:000000000000018e .LASF27
     /tmp/ccZyg3wo.s:5445   .debug_str:0000000000000464 .LASF28
     /tmp/ccZyg3wo.s:5949   .debug_str:0000000000001656 .LASF29
     /tmp/ccZyg3wo.s:5881   .debug_str:000000000000142e .LASF30
     /tmp/ccZyg3wo.s:5807   .debug_str:00000000000011a9 .LASF31
     /tmp/ccZyg3wo.s:5723   .debug_str:0000000000000e81 .LASF33
     /tmp/ccZyg3wo.s:5593   .debug_str:00000000000009b3 .LASF32
     /tmp/ccZyg3wo.s:6007   .debug_str:0000000000001831 .LASF34
     /tmp/ccZyg3wo.s:5415   .debug_str:0000000000000383 .LASF35
     /tmp/ccZyg3wo.s:5621   .debug_str:0000000000000abe .LASF36
     /tmp/ccZyg3wo.s:5485   .debug_str:0000000000000594 .LASF37
     /tmp/ccZyg3wo.s:5951   .debug_str:000000000000165b .LASF38
     /tmp/ccZyg3wo.s:5745   .debug_str:0000000000000f54 .LASF39
     /tmp/ccZyg3wo.s:5783   .debug_str:0000000000001106 .LASF40
     /tmp/ccZyg3wo.s:5361   .debug_str:00000000000001b7 .LASF41
     /tmp/ccZyg3wo.s:5575   .debug_str:00000000000008b3 .LASF42
     /tmp/ccZyg3wo.s:5585   .debug_str:0000000000000954 .LASF43
     /tmp/ccZyg3wo.s:5969   .debug_str:00000000000016e9 .LASF44
     /tmp/ccZyg3wo.s:5763   .debug_str:0000000000000fca .LASF45
     /tmp/ccZyg3wo.s:5511   .debug_str:00000000000006c1 .LASF46
     /tmp/ccZyg3wo.s:5489   .debug_str:00000000000005b4 .LASF47
     /tmp/ccZyg3wo.s:5977   .debug_str:000000000000174b .LASF48
     /tmp/ccZyg3wo.s:6051   .debug_str:0000000000001a93 .LASF49
     /tmp/ccZyg3wo.s:5769   .debug_str:000000000000102d .LASF50
     /tmp/ccZyg3wo.s:5395   .debug_str:00000000000002c8 .LASF51
GAS LISTING /tmp/ccZyg3wo.s 			page 28


     /tmp/ccZyg3wo.s:5767   .debug_str:0000000000001008 .LASF52
     /tmp/ccZyg3wo.s:5973   .debug_str:0000000000001725 .LASF53
     /tmp/ccZyg3wo.s:5579   .debug_str:0000000000000906 .LASF54
     /tmp/ccZyg3wo.s:5443   .debug_str:0000000000000451 .LASF55
     /tmp/ccZyg3wo.s:5655   .debug_str:0000000000000c00 .LASF56
     /tmp/ccZyg3wo.s:5607   .debug_str:0000000000000a4d .LASF57
     /tmp/ccZyg3wo.s:5679   .debug_str:0000000000000cf1 .LASF58
     /tmp/ccZyg3wo.s:5335   .debug_str:00000000000000c7 .LASF59
     /tmp/ccZyg3wo.s:6011   .debug_str:0000000000001872 .LASF60
     /tmp/ccZyg3wo.s:6049   .debug_str:0000000000001a7a .LASF61
     /tmp/ccZyg3wo.s:5551   .debug_str:00000000000007d6 .LASF62
     /tmp/ccZyg3wo.s:5569   .debug_str:0000000000000885 .LASF63
     /tmp/ccZyg3wo.s:5737   .debug_str:0000000000000ef7 .LASF64
     /tmp/ccZyg3wo.s:5313   .debug_str:0000000000000000 .LASF65
     /tmp/ccZyg3wo.s:5907   .debug_str:00000000000014f8 .LASF66
     /tmp/ccZyg3wo.s:5985   .debug_str:00000000000017b6 .LASF67
     /tmp/ccZyg3wo.s:5887   .debug_str:000000000000144c .LASF69
     /tmp/ccZyg3wo.s:5839   .debug_str:000000000000130e .LASF68
     /tmp/ccZyg3wo.s:5721   .debug_str:0000000000000e55 .LASF70
     /tmp/ccZyg3wo.s:5353   .debug_str:000000000000015d .LASF71
     /tmp/ccZyg3wo.s:5831   .debug_str:000000000000129d .LASF72
     /tmp/ccZyg3wo.s:5943   .debug_str:0000000000001609 .LASF73
     /tmp/ccZyg3wo.s:5337   .debug_str:00000000000000de .LASF74
     /tmp/ccZyg3wo.s:6055   .debug_str:0000000000001aaf .LASF77
     /tmp/ccZyg3wo.s:5851   .debug_str:0000000000001366 .LASF79
     /tmp/ccZyg3wo.s:5857   .debug_str:0000000000001392 .LASF75
     /tmp/ccZyg3wo.s:5971   .debug_str:0000000000001710 .LASF76
     /tmp/ccZyg3wo.s:5481   .debug_str:000000000000057d .LASF78
     /tmp/ccZyg3wo.s:5899   .debug_str:00000000000014ae .LASF80
     /tmp/ccZyg3wo.s:5535   .debug_str:000000000000076f .LASF81
     /tmp/ccZyg3wo.s:5687   .debug_str:0000000000000d2e .LASF82
     /tmp/ccZyg3wo.s:6023   .debug_str:0000000000001913 .LASF83
     /tmp/ccZyg3wo.s:5537   .debug_str:0000000000000776 .LASF84
     /tmp/ccZyg3wo.s:5865   .debug_str:00000000000013cd .LASF85
     /tmp/ccZyg3wo.s:5869   .debug_str:00000000000013de .LASF86
     /tmp/ccZyg3wo.s:5553   .debug_str:00000000000007fc .LASF87
     /tmp/ccZyg3wo.s:5719   .debug_str:0000000000000e3f .LASF88
     /tmp/ccZyg3wo.s:5523   .debug_str:0000000000000743 .LASF89
     /tmp/ccZyg3wo.s:5785   .debug_str:0000000000001130 .LASF90
     /tmp/ccZyg3wo.s:5709   .debug_str:0000000000000dd1 .LASF91
     /tmp/ccZyg3wo.s:6075   .debug_str:0000000000001b49 .LASF92
     /tmp/ccZyg3wo.s:5401   .debug_str:00000000000002fb .LASF93
     /tmp/ccZyg3wo.s:5905   .debug_str:00000000000014e0 .LASF94
     /tmp/ccZyg3wo.s:5965   .debug_str:00000000000016cf .LASF95
     /tmp/ccZyg3wo.s:5509   .debug_str:00000000000006ae .LASF96
     /tmp/ccZyg3wo.s:5529   .debug_str:0000000000000759 .LASF97
     /tmp/ccZyg3wo.s:5565   .debug_str:000000000000086a .LASF98
     /tmp/ccZyg3wo.s:5955   .debug_str:000000000000168f .LASF99
     /tmp/ccZyg3wo.s:5413   .debug_str:0000000000000370 .LASF100
     /tmp/ccZyg3wo.s:5599   .debug_str:00000000000009ec .LASF101
     /tmp/ccZyg3wo.s:6069   .debug_str:0000000000001b0d .LASF102
     /tmp/ccZyg3wo.s:5571   .debug_str:00000000000008a1 .LASF103
     /tmp/ccZyg3wo.s:5715   .debug_str:0000000000000e05 .LASF105
     /tmp/ccZyg3wo.s:5349   .debug_str:0000000000000145 .LASF106
     /tmp/ccZyg3wo.s:5463   .debug_str:0000000000000501 .LASF107
     /tmp/ccZyg3wo.s:5461   .debug_str:00000000000004f4 .LASF108
     /tmp/ccZyg3wo.s:5941   .debug_str:00000000000015ef .LASF109
GAS LISTING /tmp/ccZyg3wo.s 			page 29


     /tmp/ccZyg3wo.s:5959   .debug_str:00000000000016a3 .LASF110
     /tmp/ccZyg3wo.s:6085   .debug_str:0000000000001ba9 .LASF111
     /tmp/ccZyg3wo.s:5651   .debug_str:0000000000000bdf .LASF112
     /tmp/ccZyg3wo.s:5643   .debug_str:0000000000000b97 .LASF113
     /tmp/ccZyg3wo.s:5673   .debug_str:0000000000000cd1 .LASF114
     /tmp/ccZyg3wo.s:5595   .debug_str:00000000000009c9 .LASF115
     /tmp/ccZyg3wo.s:6009   .debug_str:0000000000001854 .LASF116
     /tmp/ccZyg3wo.s:5457   .debug_str:00000000000004bd .LASF117
     /tmp/ccZyg3wo.s:5777   .debug_str:00000000000010a8 .LASF118
     /tmp/ccZyg3wo.s:5629   .debug_str:0000000000000b18 .LASF119
     /tmp/ccZyg3wo.s:5451   .debug_str:000000000000047d .LASF120
     /tmp/ccZyg3wo.s:5937   .debug_str:00000000000015bd .LASF121
     /tmp/ccZyg3wo.s:5789   .debug_str:0000000000001152 .LASF122
     /tmp/ccZyg3wo.s:5699   .debug_str:0000000000000d87 .LASF123
     /tmp/ccZyg3wo.s:5847   .debug_str:0000000000001339 .LASF124
     /tmp/ccZyg3wo.s:5601   .debug_str:00000000000009f3 .LASF125
     /tmp/ccZyg3wo.s:5371   .debug_str:00000000000001f9 .LASF126
     /tmp/ccZyg3wo.s:5663   .debug_str:0000000000000c5e .LASF127
     /tmp/ccZyg3wo.s:6087   .debug_str:0000000000001bca .LASF128
     /tmp/ccZyg3wo.s:5983   .debug_str:0000000000001798 .LASF129
     /tmp/ccZyg3wo.s:6077   .debug_str:0000000000001b61 .LASF130
     /tmp/ccZyg3wo.s:5933   .debug_str:0000000000001599 .LASF131
     /tmp/ccZyg3wo.s:6071   .debug_str:0000000000001b20 .LASF132
     /tmp/ccZyg3wo.s:5779   .debug_str:00000000000010b9 .LASF133
     /tmp/ccZyg3wo.s:5331   .debug_str:0000000000000097 .LASF134
     /tmp/ccZyg3wo.s:5577   .debug_str:00000000000008df .LASF135
     /tmp/ccZyg3wo.s:5501   .debug_str:0000000000000645 .LASF136
     /tmp/ccZyg3wo.s:6013   .debug_str:0000000000001896 .LASF137
     /tmp/ccZyg3wo.s:5389   .debug_str:0000000000000262 .LASF138
     /tmp/ccZyg3wo.s:6027   .debug_str:00000000000019eb .LASF139
     /tmp/ccZyg3wo.s:5377   .debug_str:0000000000000224 .LASF140
     /tmp/ccZyg3wo.s:5979   .debug_str:000000000000176f .LASF141
     /tmp/ccZyg3wo.s:5543   .debug_str:00000000000007a6 .LASF142
     /tmp/ccZyg3wo.s:5903   .debug_str:00000000000014c8 .LASF143
     /tmp/ccZyg3wo.s:5981   .debug_str:000000000000178f .LASF144
     /tmp/ccZyg3wo.s:5819   .debug_str:00000000000011fd .LASF145
     /tmp/ccZyg3wo.s:5639   .debug_str:0000000000000b7c .LASF146
     /tmp/ccZyg3wo.s:6041   .debug_str:0000000000001a58 .LASF147
     /tmp/ccZyg3wo.s:5591   .debug_str:00000000000009a6 .LASF148
     /tmp/ccZyg3wo.s:5669   .debug_str:0000000000000cad .LASF149
     /tmp/ccZyg3wo.s:5691   .debug_str:0000000000000d48 .LASF150
     /tmp/ccZyg3wo.s:5835   .debug_str:00000000000012ca .LASF151
     /tmp/ccZyg3wo.s:5879   .debug_str:0000000000001421 .LASF152
     /tmp/ccZyg3wo.s:5659   .debug_str:0000000000000c33 .LASF153
     /tmp/ccZyg3wo.s:5641   .debug_str:0000000000000b83 .LASF233
     /tmp/ccZyg3wo.s:5355   .debug_str:000000000000016c .LASF235
     /tmp/ccZyg3wo.s:5805   .debug_str:00000000000011a1 .LASF334
     /tmp/ccZyg3wo.s:5369   .debug_str:00000000000001f2 .LASF158
     /tmp/ccZyg3wo.s:5567   .debug_str:000000000000087d .LASF154
     /tmp/ccZyg3wo.s:5677   .debug_str:0000000000000ceb .LASF155
     /tmp/ccZyg3wo.s:5665   .debug_str:0000000000000c80 .LASF156
     /tmp/ccZyg3wo.s:5885   .debug_str:0000000000001444 .LASF157
     /tmp/ccZyg3wo.s:5813   .debug_str:00000000000011d8 .LASF159
     /tmp/ccZyg3wo.s:5423   .debug_str:00000000000003e1 .LASF160
     /tmp/ccZyg3wo.s:5931   .debug_str:000000000000158e .LASF161
     /tmp/ccZyg3wo.s:5315   .debug_str:0000000000000013 .LASF162
     /tmp/ccZyg3wo.s:5471   .debug_str:000000000000053c .LASF163
GAS LISTING /tmp/ccZyg3wo.s 			page 30


     /tmp/ccZyg3wo.s:6005   .debug_str:000000000000182c .LASF164
     /tmp/ccZyg3wo.s:6029   .debug_str:0000000000001a0f .LASF165
     /tmp/ccZyg3wo.s:5727   .debug_str:0000000000000ead .LASF166
     /tmp/ccZyg3wo.s:5963   .debug_str:00000000000016c7 .LASF167
     /tmp/ccZyg3wo.s:5441   .debug_str:000000000000043e .LASF168
     /tmp/ccZyg3wo.s:5757   .debug_str:0000000000000f9c .LASF169
     /tmp/ccZyg3wo.s:5583   .debug_str:0000000000000948 .LASF170
     /tmp/ccZyg3wo.s:5753   .debug_str:0000000000000f87 .LASF171
     /tmp/ccZyg3wo.s:5383   .debug_str:000000000000023e .LASF172
     /tmp/ccZyg3wo.s:5573   .debug_str:00000000000008ae .LASF173
     /tmp/ccZyg3wo.s:5925   .debug_str:0000000000001571 .LASF174
     /tmp/ccZyg3wo.s:5645   .debug_str:0000000000000bb6 .LASF175
     /tmp/ccZyg3wo.s:5741   .debug_str:0000000000000f39 .LASF176
     /tmp/ccZyg3wo.s:5939   .debug_str:00000000000015d9 .LASF177
     /tmp/ccZyg3wo.s:5379   .debug_str:0000000000000234 .LASF178
     /tmp/ccZyg3wo.s:5797   .debug_str:0000000000001179 .LASF179
     /tmp/ccZyg3wo.s:5795   .debug_str:0000000000001174 .LASF180
     /tmp/ccZyg3wo.s:5483   .debug_str:0000000000000584 .LASF181
     /tmp/ccZyg3wo.s:5549   .debug_str:00000000000007cc .LASF182
     /tmp/ccZyg3wo.s:5405   .debug_str:0000000000000318 .LASF183
     /tmp/ccZyg3wo.s:5995   .debug_str:00000000000017f1 .LASF184
     /tmp/ccZyg3wo.s:5497   .debug_str:00000000000005f4 .LASF185
     /tmp/ccZyg3wo.s:5343   .debug_str:0000000000000125 .LASF186
     /tmp/ccZyg3wo.s:5859   .debug_str:000000000000139b .LASF187
     /tmp/ccZyg3wo.s:5743   .debug_str:0000000000000f4c .LASF188
     /tmp/ccZyg3wo.s:5627   .debug_str:0000000000000b11 .LASF189
     /tmp/ccZyg3wo.s:5425   .debug_str:00000000000003e6 .LASF190
     /tmp/ccZyg3wo.s:5935   .debug_str:00000000000015b8 .LASF191
     /tmp/ccZyg3wo.s:5755   .debug_str:0000000000000f97 .LASF192
     /tmp/ccZyg3wo.s:5895   .debug_str:0000000000001498 .LASF193
     /tmp/ccZyg3wo.s:5345   .debug_str:0000000000000131 .LASF194
     /tmp/ccZyg3wo.s:5533   .debug_str:000000000000076a .LASF195
     /tmp/ccZyg3wo.s:5725   .debug_str:0000000000000ea5 .LASF196
     /tmp/ccZyg3wo.s:5367   .debug_str:00000000000001ed .LASF197
     /tmp/ccZyg3wo.s:5363   .debug_str:00000000000001d6 .LASF198
     /tmp/ccZyg3wo.s:5675   .debug_str:0000000000000ce2 .LASF199
     /tmp/ccZyg3wo.s:5945   .debug_str:000000000000161c .LASF200
     /tmp/ccZyg3wo.s:5747   .debug_str:0000000000000f71 .LASF201
     /tmp/ccZyg3wo.s:6039   .debug_str:0000000000001a50 .LASF202
     /tmp/ccZyg3wo.s:6059   .debug_str:0000000000001ac4 .LASF203
     /tmp/ccZyg3wo.s:5961   .debug_str:00000000000016b6 .LASF204
     /tmp/ccZyg3wo.s:6031   .debug_str:0000000000001a14 .LASF205
     /tmp/ccZyg3wo.s:5889   .debug_str:0000000000001466 .LASF206
     /tmp/ccZyg3wo.s:6073   .debug_str:0000000000001b39 .LASF207
     /tmp/ccZyg3wo.s:5399   .debug_str:00000000000002e9 .LASF208
     /tmp/ccZyg3wo.s:5473   .debug_str:0000000000000553 .LASF209
     /tmp/ccZyg3wo.s:5449   .debug_str:0000000000000474 .LASF210
     /tmp/ccZyg3wo.s:5927   .debug_str:0000000000001580 .LASF211
     /tmp/ccZyg3wo.s:5997   .debug_str:00000000000017ff .LASF381
     /tmp/ccZyg3wo.s:5647   .debug_str:0000000000000bbf .LASF212
     /tmp/ccZyg3wo.s:5801   .debug_str:0000000000001190 .LASF216
     /tmp/ccZyg3wo.s:5403   .debug_str:0000000000000306 .LASF218
     /tmp/ccZyg3wo.s:5967   .debug_str:00000000000016d6 .LASF213
     /tmp/ccZyg3wo.s:5617   .debug_str:0000000000000aa7 .LASF214
     /tmp/ccZyg3wo.s:5333   .debug_str:00000000000000b1 .LASF215
     /tmp/ccZyg3wo.s:5373   .debug_str:000000000000020e .LASF217
     /tmp/ccZyg3wo.s:5729   .debug_str:0000000000000eb9 .LASF219
GAS LISTING /tmp/ccZyg3wo.s 			page 31


     /tmp/ccZyg3wo.s:5539   .debug_str:000000000000078a .LASF220
     /tmp/ccZyg3wo.s:5495   .debug_str:00000000000005e3 .LASF221
     /tmp/ccZyg3wo.s:5833   .debug_str:00000000000012b9 .LASF222
     /tmp/ccZyg3wo.s:6033   .debug_str:0000000000001a1d .LASF382
     /tmp/ccZyg3wo.s:5381   .debug_str:0000000000000239 .LASF223
     /tmp/ccZyg3wo.s:5525   .debug_str:000000000000074d .LASF224
     /tmp/ccZyg3wo.s:5863   .debug_str:00000000000013c8 .LASF225
     /tmp/ccZyg3wo.s:5439   .debug_str:000000000000042d .LASF226
     /tmp/ccZyg3wo.s:5527   .debug_str:0000000000000752 .LASF227
     /tmp/ccZyg3wo.s:5657   .debug_str:0000000000000c20 .LASF228
     /tmp/ccZyg3wo.s:5475   .debug_str:0000000000000564 .LASF229
     /tmp/ccZyg3wo.s:5829   .debug_str:000000000000127f .LASF230
     /tmp/ccZyg3wo.s:5487   .debug_str:00000000000005ad .LASF231
     /tmp/ccZyg3wo.s:5861   .debug_str:00000000000013b3 .LASF232
     /tmp/ccZyg3wo.s:5635   .debug_str:0000000000000b69 .LASF234
     /tmp/ccZyg3wo.s:5793   .debug_str:000000000000115f .LASF236
     /tmp/ccZyg3wo.s:6079   .debug_str:0000000000001b73 .LASF237
     /tmp/ccZyg3wo.s:5491   .debug_str:00000000000005cb .LASF238
     /tmp/ccZyg3wo.s:5917   .debug_str:0000000000001542 .LASF239
     /tmp/ccZyg3wo.s:5761   .debug_str:0000000000000fc0 .LASF240
     /tmp/ccZyg3wo.s:5683   .debug_str:0000000000000d16 .LASF241
     /tmp/ccZyg3wo.s:5329   .debug_str:000000000000008c .LASF242
     /tmp/ccZyg3wo.s:5493   .debug_str:00000000000005d7 .LASF243
     /tmp/ccZyg3wo.s:5957   .debug_str:0000000000001696 .LASF244
     /tmp/ccZyg3wo.s:5347   .debug_str:000000000000013b .LASF245
     /tmp/ccZyg3wo.s:5911   .debug_str:0000000000001528 .LASF246
     /tmp/ccZyg3wo.s:5919   .debug_str:000000000000154e .LASF247
     /tmp/ccZyg3wo.s:5351   .debug_str:0000000000000152 .LASF248
     /tmp/ccZyg3wo.s:5993   .debug_str:00000000000017e8 .LASF249
     /tmp/ccZyg3wo.s:5891   .debug_str:000000000000146e .LASF250
     /tmp/ccZyg3wo.s:5823   .debug_str:000000000000121e .LASF251
     /tmp/ccZyg3wo.s:5339   .debug_str:00000000000000fe .LASF252
     /tmp/ccZyg3wo.s:5711   .debug_str:0000000000000ddc .LASF253
     /tmp/ccZyg3wo.s:5419   .debug_str:00000000000003ae .LASF254
     /tmp/ccZyg3wo.s:5375   .debug_str:000000000000021a .LASF255
     /tmp/ccZyg3wo.s:6083   .debug_str:0000000000001b8c .LASF256
     /tmp/ccZyg3wo.s:5713   .debug_str:0000000000000de6 .LASF257
     /tmp/ccZyg3wo.s:5909   .debug_str:0000000000001518 .LASF258
     /tmp/ccZyg3wo.s:5667   .debug_str:0000000000000c89 .LASF259
     /tmp/ccZyg3wo.s:5397   .debug_str:00000000000002e0 .LASF260
     /tmp/ccZyg3wo.s:5849   .debug_str:0000000000001348 .LASF261
     /tmp/ccZyg3wo.s:5821   .debug_str:0000000000001212 .LASF262
     /tmp/ccZyg3wo.s:5771   .debug_str:0000000000001050 .LASF263
     /tmp/ccZyg3wo.s:5649   .debug_str:0000000000000bd9 .LASF264
     /tmp/ccZyg3wo.s:5717   .debug_str:0000000000000e1f .LASF265
     /tmp/ccZyg3wo.s:5619   .debug_str:0000000000000ab1 .LASF266
     /tmp/ccZyg3wo.s:5751   .debug_str:0000000000000f81 .LASF267
     /tmp/ccZyg3wo.s:5883   .debug_str:000000000000143f .LASF268
     /tmp/ccZyg3wo.s:5733   .debug_str:0000000000000edd .LASF269
     /tmp/ccZyg3wo.s:5327   .debug_str:0000000000000083 .LASF270
     /tmp/ccZyg3wo.s:5611   .debug_str:0000000000000a70 .LASF271
     /tmp/ccZyg3wo.s:5427   .debug_str:00000000000003eb .LASF272
     /tmp/ccZyg3wo.s:5989   .debug_str:00000000000017cd .LASF273
     /tmp/ccZyg3wo.s:5867   .debug_str:00000000000013d5 .LASF274
     /tmp/ccZyg3wo.s:5877   .debug_str:000000000000141c .LASF275
     /tmp/ccZyg3wo.s:5689   .debug_str:0000000000000d41 .LASF276
     /tmp/ccZyg3wo.s:5855   .debug_str:0000000000001380 .LASF278
GAS LISTING /tmp/ccZyg3wo.s 			page 32


     /tmp/ccZyg3wo.s:5843   .debug_str:0000000000001324 .LASF277
     /tmp/ccZyg3wo.s:6001   .debug_str:000000000000180b .LASF279
     /tmp/ccZyg3wo.s:5387   .debug_str:000000000000025d .LASF280
     /tmp/ccZyg3wo.s:5873   .debug_str:0000000000001401 .LASF281
     /tmp/ccZyg3wo.s:5609   .debug_str:0000000000000a60 .LASF282
     /tmp/ccZyg3wo.s:5809   .debug_str:00000000000011c0 .LASF283
     /tmp/ccZyg3wo.s:6081   .debug_str:0000000000001b7f .LASF284
     /tmp/ccZyg3wo.s:5799   .debug_str:0000000000001189 .LASF285
     /tmp/ccZyg3wo.s:5975   .debug_str:000000000000173d .LASF286
     /tmp/ccZyg3wo.s:5325   .debug_str:0000000000000060 .LASF287
     /tmp/ccZyg3wo.s:5787   .debug_str:0000000000001146 .LASF288
     /tmp/ccZyg3wo.s:5827   .debug_str:0000000000001251 .LASF289
     /tmp/ccZyg3wo.s:5431   .debug_str:0000000000000401 .LASF290
     /tmp/ccZyg3wo.s:5613   .debug_str:0000000000000a78 .LASF291
     /tmp/ccZyg3wo.s:5465   .debug_str:000000000000051b .LASF292
     /tmp/ccZyg3wo.s:5507   .debug_str:0000000000000685 .LASF293
     /tmp/ccZyg3wo.s:5521   .debug_str:0000000000000737 .LASF294
     /tmp/ccZyg3wo.s:5765   .debug_str:0000000000000fe0 .LASF295
     /tmp/ccZyg3wo.s:5817   .debug_str:00000000000011f0 .LASF296
     /tmp/ccZyg3wo.s:5837   .debug_str:00000000000012e6 .LASF297
     /tmp/ccZyg3wo.s:5991   .debug_str:00000000000017d9 .LASF298
     /tmp/ccZyg3wo.s:5515   .debug_str:00000000000006fa .LASF299
     /tmp/ccZyg3wo.s:5773   .debug_str:0000000000001072 .LASF300
     /tmp/ccZyg3wo.s:5455   .debug_str:0000000000000498 .LASF301
     /tmp/ccZyg3wo.s:5913   .debug_str:0000000000001532 .LASF302
     /tmp/ccZyg3wo.s:5695   .debug_str:0000000000000d5e .LASF303
     /tmp/ccZyg3wo.s:5731   .debug_str:0000000000000ed2 .LASF304
     /tmp/ccZyg3wo.s:5825   .debug_str:0000000000001227 .LASF305
     /tmp/ccZyg3wo.s:5447   .debug_str:0000000000000469 .LASF306
     /tmp/ccZyg3wo.s:5633   .debug_str:0000000000000b46 .LASF307
     /tmp/ccZyg3wo.s:5637   .debug_str:0000000000000b72 .LASF308
     /tmp/ccZyg3wo.s:5557   .debug_str:0000000000000816 .LASF309
     /tmp/ccZyg3wo.s:5341   .debug_str:000000000000011a .LASF310
     /tmp/ccZyg3wo.s:5781   .debug_str:00000000000010df .LASF311
     /tmp/ccZyg3wo.s:5561   .debug_str:0000000000000842 .LASF312
     /tmp/ccZyg3wo.s:5411   .debug_str:0000000000000342 .LASF313
     /tmp/ccZyg3wo.s:5615   .debug_str:0000000000000aa1 .LASF314
     /tmp/ccZyg3wo.s:5999   .debug_str:0000000000001805 .LASF315
     /tmp/ccZyg3wo.s:5871   .debug_str:00000000000013f2 .LASF316
     /tmp/ccZyg3wo.s:5685   .debug_str:0000000000000d1f .LASF317
     /tmp/ccZyg3wo.s:6019   .debug_str:00000000000018d2 .LASF318
     /tmp/ccZyg3wo.s:5735   .debug_str:0000000000000ee8 .LASF319
     /tmp/ccZyg3wo.s:5587   .debug_str:000000000000096e .LASF320
     /tmp/ccZyg3wo.s:5625   .debug_str:0000000000000b0c .LASF321
     /tmp/ccZyg3wo.s:5623   .debug_str:0000000000000ae6 .LASF322
     /tmp/ccZyg3wo.s:5811   .debug_str:00000000000011ca .LASF323
     /tmp/ccZyg3wo.s:5499   .debug_str:000000000000061c .LASF324
     /tmp/ccZyg3wo.s:5893   .debug_str:000000000000148a .LASF325
     /tmp/ccZyg3wo.s:5319   .debug_str:0000000000000026 .LASF326
     /tmp/ccZyg3wo.s:5661   .debug_str:0000000000000c4d .LASF327
     /tmp/ccZyg3wo.s:5391   .debug_str:0000000000000279 .LASF328
     /tmp/ccZyg3wo.s:5705   .debug_str:0000000000000db2 .LASF329
     /tmp/ccZyg3wo.s:5603   .debug_str:0000000000000a0f .LASF330
     /tmp/ccZyg3wo.s:5803   .debug_str:0000000000001196 .LASF331
     /tmp/ccZyg3wo.s:5775   .debug_str:0000000000001081 .LASF332
     /tmp/ccZyg3wo.s:5703   .debug_str:0000000000000dac .LASF333
     /tmp/ccZyg3wo.s:5317   .debug_str:000000000000001f .LASF335
GAS LISTING /tmp/ccZyg3wo.s 			page 33


     /tmp/ccZyg3wo.s:5915   .debug_str:000000000000153b .LASF336
     /tmp/ccZyg3wo.s:5987   .debug_str:00000000000017c2 .LASF337
     /tmp/ccZyg3wo.s:5459   .debug_str:00000000000004e8 .LASF338
     /tmp/ccZyg3wo.s:5437   .debug_str:0000000000000423 .LASF339
     /tmp/ccZyg3wo.s:5749   .debug_str:0000000000000f7c .LASF340
     /tmp/ccZyg3wo.s:5739   .debug_str:0000000000000f20 .LASF383
     /tmp/ccZyg3wo.s:5477   .debug_str:000000000000056a .LASF384
     /tmp/ccZyg3wo.s:5321   .debug_str:000000000000004f .LASF341
     /tmp/ccZyg3wo.s:6043   .debug_str:0000000000001a6b .LASF342
     /tmp/ccZyg3wo.s:6045   .debug_str:0000000000001a70 .LASF343
     /tmp/ccZyg3wo.s:6047   .debug_str:0000000000001a75 .LASF344
     /tmp/ccZyg3wo.s:5505   .debug_str:0000000000000676 .LASF345
     /tmp/ccZyg3wo.s:5653   .debug_str:0000000000000bf1 .LASF385
     /tmp/ccZyg3wo.s:573    .text:0000000000000394 .LFB54
     /tmp/ccZyg3wo.s:784    .text:000000000000054c .LFE54
     /tmp/ccZyg3wo.s:4977   .debug_loc:0000000000000000 .LLST16
     /tmp/ccZyg3wo.s:659    .text:000000000000043c .LVL72
     /tmp/ccZyg3wo.s:665    .text:000000000000044c .LVL73
     /tmp/ccZyg3wo.s:670    .text:0000000000000458 .LVL74
     /tmp/ccZyg3wo.s:676    .text:0000000000000468 .LVL75
     /tmp/ccZyg3wo.s:682    .text:0000000000000478 .LVL76
     /tmp/ccZyg3wo.s:687    .text:0000000000000484 .LVL77
     /tmp/ccZyg3wo.s:691    .text:000000000000048c .LVL78
     /tmp/ccZyg3wo.s:696    .text:0000000000000498 .LVL79
     /tmp/ccZyg3wo.s:702    .text:00000000000004a4 .LVL81
     /tmp/ccZyg3wo.s:710    .text:00000000000004c4 .LVL82
     /tmp/ccZyg3wo.s:715    .text:00000000000004d0 .LVL83
     /tmp/ccZyg3wo.s:720    .text:00000000000004dc .LVL84
     /tmp/ccZyg3wo.s:725    .text:00000000000004e8 .LVL85
     /tmp/ccZyg3wo.s:613    .text:00000000000003d8 .LVL60
     /tmp/ccZyg3wo.s:621    .text:00000000000003f4 .LVL61
     /tmp/ccZyg3wo.s:627    .text:0000000000000400 .LVL63
     /tmp/ccZyg3wo.s:635    .text:0000000000000410 .LVL66
     /tmp/ccZyg3wo.s:643    .text:0000000000000420 .LVL69
     /tmp/ccZyg3wo.s:732    .text:00000000000004f0 .LVL86
     /tmp/ccZyg3wo.s:740    .text:0000000000000508 .LVL87
     /tmp/ccZyg3wo.s:754    .text:0000000000000520 .LVL88
     /tmp/ccZyg3wo.s:760    .text:000000000000052c .LVL89
     /tmp/ccZyg3wo.s:605    .text:00000000000003c4 .LBB11
     /tmp/ccZyg3wo.s:761    .text:000000000000052c .LBE11
     /tmp/ccZyg3wo.s:4991   .debug_loc:0000000000000039 .LLST17
     /tmp/ccZyg3wo.s:4998   .debug_loc:000000000000005c .LLST18
     /tmp/ccZyg3wo.s:5009   .debug_loc:0000000000000092 .LLST19
     /tmp/ccZyg3wo.s:5020   .debug_loc:00000000000000c8 .LLST20
     /tmp/ccZyg3wo.s:653    .text:0000000000000430 .LBB13
     /tmp/ccZyg3wo.s:727    .text:00000000000004e8 .LBE13
     /tmp/ccZyg3wo.s:5031   .debug_loc:00000000000000fe .LLST21
     /tmp/ccZyg3wo.s:6053   .debug_str:0000000000001aa9 .LASF346
     /tmp/ccZyg3wo.s:5531   .debug_str:0000000000000760 .LASF347
     /tmp/ccZyg3wo.s:500    .text:0000000000000318 .LFB52
     /tmp/ccZyg3wo.s:556    .text:0000000000000394 .LFE52
     /tmp/ccZyg3wo.s:5038   .debug_loc:0000000000000121 .LLST15
     /tmp/ccZyg3wo.s:520    .text:000000000000034c .LVL54
     /tmp/ccZyg3wo.s:537    .text:0000000000000374 .LVL56
     /tmp/ccZyg3wo.s:542    .text:0000000000000380 .LVL57
     /tmp/ccZyg3wo.s:5841   .debug_str:000000000000131f .LASF348
     /tmp/ccZyg3wo.s:5759   .debug_str:0000000000000fa9 .LASF349
GAS LISTING /tmp/ccZyg3wo.s 			page 34


     /tmp/ccZyg3wo.s:410    .text:0000000000000298 .LFB51
     /tmp/ccZyg3wo.s:489    .text:0000000000000318 .LFE51
     /tmp/ccZyg3wo.s:5853   .debug_str:000000000000137b .LASF350
     /tmp/ccZyg3wo.s:5045   .debug_loc:0000000000000144 .LLST11
     /tmp/ccZyg3wo.s:5063   .debug_loc:0000000000000190 .LLST12
     /tmp/ccZyg3wo.s:5081   .debug_loc:00000000000001dc .LLST13
     /tmp/ccZyg3wo.s:435    .text:00000000000002c4 .LBB8
     /tmp/ccZyg3wo.s:467    .text:00000000000002f8 .LBE8
     /tmp/ccZyg3wo.s:5095   .debug_loc:0000000000000215 .LLST14
     /tmp/ccZyg3wo.s:442    .text:00000000000002cc .LBB9
     /tmp/ccZyg3wo.s:460    .text:00000000000002f0 .LBE9
     /tmp/ccZyg3wo.s:5845   .debug_str:000000000000132c .LASF351
     /tmp/ccZyg3wo.s:459    .text:00000000000002f0 .LVL48
     /tmp/ccZyg3wo.s:5589   .debug_str:000000000000099c .LASF352
     /tmp/ccZyg3wo.s:155    .text:00000000000000a8 .LFB50
     /tmp/ccZyg3wo.s:404    .text:0000000000000298 .LFE50
     /tmp/ccZyg3wo.s:5923   .debug_str:000000000000156b .LASF353
     /tmp/ccZyg3wo.s:5111   .debug_loc:000000000000025f .LLST5
     /tmp/ccZyg3wo.s:5469   .debug_str:0000000000000537 .LASF354
     /tmp/ccZyg3wo.s:5125   .debug_loc:0000000000000298 .LLST6
     /tmp/ccZyg3wo.s:5545   .debug_str:00000000000007b1 .LASF355
     /tmp/ccZyg3wo.s:5141   .debug_loc:00000000000002e2 .LLST7
     /tmp/ccZyg3wo.s:5190   .debug_loc:000000000000036d .LLST8
     /tmp/ccZyg3wo.s:5697   .debug_str:0000000000000d82 .LASF356
     /tmp/ccZyg3wo.s:5297   .debug_ranges:0000000000000000 .Ldebug_ranges0
     /tmp/ccZyg3wo.s:5201   .debug_loc:00000000000003a3 .LLST9
     /tmp/ccZyg3wo.s:244    .text:0000000000000160 .LVL24
     /tmp/ccZyg3wo.s:255    .text:0000000000000178 .LVL25
     /tmp/ccZyg3wo.s:282    .text:00000000000001a8 .LVL28
     /tmp/ccZyg3wo.s:292    .text:00000000000001bc .LVL29
     /tmp/ccZyg3wo.s:299    .text:00000000000001d0 .LVL30
     /tmp/ccZyg3wo.s:313    .text:00000000000001ec .LBB7
     /tmp/ccZyg3wo.s:360    .text:000000000000024c .LBE7
     /tmp/ccZyg3wo.s:5208   .debug_loc:00000000000003c6 .LLST10
     /tmp/ccZyg3wo.s:327    .text:000000000000020c .LVL34
     /tmp/ccZyg3wo.s:334    .text:000000000000021c .LVL35
     /tmp/ccZyg3wo.s:355    .text:0000000000000244 .LVL37
     /tmp/ccZyg3wo.s:215    .text:0000000000000128 .LVL19
     /tmp/ccZyg3wo.s:225    .text:000000000000013c .LVL22
     /tmp/ccZyg3wo.s:307    .text:00000000000001e0 .LVL31
     /tmp/ccZyg3wo.s:312    .text:00000000000001ec .LVL32
     /tmp/ccZyg3wo.s:365    .text:0000000000000258 .LVL38
     /tmp/ccZyg3wo.s:370    .text:0000000000000264 .LVL39
     /tmp/ccZyg3wo.s:6067   .debug_str:0000000000001b07 .LASF386
     /tmp/ccZyg3wo.s:5453   .debug_str:000000000000048c .LASF387
     /tmp/ccZyg3wo.s:90     .text:0000000000000060 .LFB49
     /tmp/ccZyg3wo.s:144    .text:00000000000000a8 .LFE49
     /tmp/ccZyg3wo.s:5215   .debug_loc:00000000000003e9 .LLST2
     /tmp/ccZyg3wo.s:5226   .debug_loc:000000000000041f .LLST3
     /tmp/ccZyg3wo.s:5242   .debug_loc:0000000000000469 .LLST4
     /tmp/ccZyg3wo.s:6017   .debug_str:00000000000018c8 .LASF357
     /tmp/ccZyg3wo.s:6015   .debug_str:00000000000018b9 .LASF358
     /tmp/ccZyg3wo.s:56     .text:0000000000000030 .LFB48
     /tmp/ccZyg3wo.s:84     .text:0000000000000060 .LFE48
     /tmp/ccZyg3wo.s:5254   .debug_loc:00000000000004a0 .LLST1
     /tmp/ccZyg3wo.s:73     .text:0000000000000050 .LVL6
     /tmp/ccZyg3wo.s:5693   .debug_str:0000000000000d57 .LASF359
GAS LISTING /tmp/ccZyg3wo.s 			page 35


     /tmp/ccZyg3wo.s:6037   .debug_str:0000000000001a41 .LASF360
     /tmp/ccZyg3wo.s:10     .text:0000000000000000 .LFB47
     /tmp/ccZyg3wo.s:50     .text:0000000000000030 .LFE47
     /tmp/ccZyg3wo.s:5519   .debug_str:0000000000000731 .LASF361
     /tmp/ccZyg3wo.s:23     .text:000000000000000c .LBB2
     /tmp/ccZyg3wo.s:41     .text:0000000000000024 .LBE2
     /tmp/ccZyg3wo.s:5268   .debug_loc:00000000000004d9 .LLST0
     /tmp/ccZyg3wo.s:6035   .debug_str:0000000000001a24 .LASF362
     /tmp/ccZyg3wo.s:5435   .debug_str:0000000000000413 .LASF364
     /tmp/ccZyg3wo.s:5503   .debug_str:000000000000065b .LASF363
     /tmp/ccZyg3wo.s:5897   .debug_str:000000000000149e .LASF365
     /tmp/ccZyg3wo.s:5581   .debug_str:000000000000092b .LASF366
     /tmp/ccZyg3wo.s:5707   .debug_str:0000000000000dbf .LASF367
     /tmp/ccZyg3wo.s:6061   .debug_str:0000000000001acf .LASF368
     /tmp/ccZyg3wo.s:5407   .debug_str:0000000000000322 .LASF369
     /tmp/ccZyg3wo.s:5393   .debug_str:00000000000002a5 .LASF370
     /tmp/ccZyg3wo.s:5385   .debug_str:000000000000024b .LASF371
     /tmp/ccZyg3wo.s:5359   .debug_str:0000000000000199 .LASF372
     /tmp/ccZyg3wo.s:5701   .debug_str:0000000000000d99 .LASF373
     /tmp/ccZyg3wo.s:5429   .debug_str:00000000000003f5 .LASF374
     /tmp/ccZyg3wo.s:5559   .debug_str:000000000000083a .LASF375
     /tmp/ccZyg3wo.s:6057   .debug_str:0000000000001ab8 .LASF376
     /tmp/ccZyg3wo.s:5671   .debug_str:0000000000000ccb .LASF377
     /tmp/ccZyg3wo.s:577    .text:0000000000000394 .LVL59
     /tmp/ccZyg3wo.s:623    .text:00000000000003f8 .LVL62
     /tmp/ccZyg3wo.s:771    .text:0000000000000538 .LVL90
     /tmp/ccZyg3wo.s:629    .text:0000000000000404 .LVL64
     /tmp/ccZyg3wo.s:633    .text:0000000000000408 .LVL65
     /tmp/ccZyg3wo.s:698    .text:000000000000049c .LVL80
     /tmp/ccZyg3wo.s:637    .text:0000000000000414 .LVL67
     /tmp/ccZyg3wo.s:641    .text:0000000000000418 .LVL68
     /tmp/ccZyg3wo.s:776    .text:0000000000000540 .LVL91
     /tmp/ccZyg3wo.s:645    .text:0000000000000424 .LVL70
     /tmp/ccZyg3wo.s:657    .text:0000000000000434 .LVL71
     /tmp/ccZyg3wo.s:779    .text:0000000000000544 .LVL92
     /tmp/ccZyg3wo.s:522    .text:0000000000000350 .LVL55
     /tmp/ccZyg3wo.s:551    .text:000000000000038c .LVL58
     /tmp/ccZyg3wo.s:413    .text:0000000000000298 .LVL45
     /tmp/ccZyg3wo.s:438    .text:00000000000002c8 .LVL47
     /tmp/ccZyg3wo.s:484    .text:0000000000000310 .LVL53
     /tmp/ccZyg3wo.s:479    .text:0000000000000308 .LVL52
     /tmp/ccZyg3wo.s:434    .text:00000000000002c4 .LVL46
     /tmp/ccZyg3wo.s:463    .text:00000000000002f4 .LVL49
     /tmp/ccZyg3wo.s:465    .text:00000000000002f8 .LVL50
     /tmp/ccZyg3wo.s:476    .text:0000000000000304 .LVL51
     /tmp/ccZyg3wo.s:158    .text:00000000000000a8 .LVL14
     /tmp/ccZyg3wo.s:213    .text:0000000000000120 .LVL18
     /tmp/ccZyg3wo.s:194    .text:00000000000000f4 .LVL15
     /tmp/ccZyg3wo.s:234    .text:000000000000014c .LVL23
     /tmp/ccZyg3wo.s:260    .text:000000000000017c .LVL26
     /tmp/ccZyg3wo.s:263    .text:0000000000000180 .LVL27
     /tmp/ccZyg3wo.s:385    .text:0000000000000278 .LVL42
     /tmp/ccZyg3wo.s:200    .text:00000000000000fc .LVL16
     /tmp/ccZyg3wo.s:205    .text:0000000000000108 .LVL17
     /tmp/ccZyg3wo.s:377    .text:000000000000026c .LVL40
     /tmp/ccZyg3wo.s:401    .text:0000000000000294 .LVL44
     /tmp/ccZyg3wo.s:217    .text:000000000000012c .LVL20
GAS LISTING /tmp/ccZyg3wo.s 			page 36


     /tmp/ccZyg3wo.s:223    .text:0000000000000134 .LVL21
     /tmp/ccZyg3wo.s:388    .text:000000000000027c .LVL43
     /tmp/ccZyg3wo.s:317    .text:00000000000001f4 .LVL33
     /tmp/ccZyg3wo.s:382    .text:0000000000000274 .LVL41
     /tmp/ccZyg3wo.s:93     .text:0000000000000060 .LVL7
     /tmp/ccZyg3wo.s:110    .text:0000000000000078 .LVL9
     /tmp/ccZyg3wo.s:102    .text:0000000000000070 .LVL8
     /tmp/ccZyg3wo.s:112    .text:000000000000007c .LVL10
     /tmp/ccZyg3wo.s:130    .text:0000000000000098 .LVL12
     /tmp/ccZyg3wo.s:132    .text:000000000000009c .LVL13
     /tmp/ccZyg3wo.s:59     .text:0000000000000030 .LVL5
     /tmp/ccZyg3wo.s:22     .text:000000000000000c .LVL1
     /tmp/ccZyg3wo.s:26     .text:0000000000000010 .LVL2
     /tmp/ccZyg3wo.s:37     .text:0000000000000020 .LVL3
     /tmp/ccZyg3wo.s:39     .text:0000000000000024 .LVL4
     /tmp/ccZyg3wo.s:837    .debug_info:0000000000000000 .Ldebug_info0
     /tmp/ccZyg3wo.s:104    .text:0000000000000070 .LBB3
     /tmp/ccZyg3wo.s:107    .text:0000000000000074 .LBE3
     /tmp/ccZyg3wo.s:114    .text:000000000000007c .LBB4
     /tmp/ccZyg3wo.s:134    .text:000000000000009c .LBE4
     /tmp/ccZyg3wo.s:227    .text:0000000000000140 .LBB5
     /tmp/ccZyg3wo.s:230    .text:0000000000000144 .LBE5
     /tmp/ccZyg3wo.s:236    .text:000000000000014c .LBB6
     /tmp/ccZyg3wo.s:302    .text:00000000000001d4 .LBE6

UNDEFINED SYMBOLS
_Z17kmem_cache_createPKcmPFvPvES3_
_Z7kmallocm
_Z16kmem_cache_allocP5Cache
_ZN11ConsoleUtil11printStringEPKc
_Z15kmem_cache_infoP5Cache
_Z15kmem_cache_freeP5CachePv
_Z5kfreePKv
_Z18kmem_cache_destroyP5Cache
_ZN5RiscV10initializeEv
_ZN13SlabAllocator9printSlabEP4Slab
_ZN5Buddy9printListEv
_Z17kmem_cache_shrinkP5Cache
_ZN11ConsoleUtil5printEPKciS1_i
_Z15userMainWrapperPv
_ZN5RiscV16threadCreateUtilEPP3TCBPFvPvES3_
_ZN5RiscV18threadDispatchUtilEv
_ZN5RiscV8finalizeEv
