GAS LISTING /tmp/ccpSmzXj.s 			page 1


   1              		.file	"system.cpp"
   2              		.option pic
   3              		.option norelax
   4              		.text
   5              	.Ltext0:
   6              		.align	2
   7              		.globl	_Z6memsetPKvii
   9              	_Z6memsetPKvii:
  10              	.LFB47:
  11              		.file 1 "src/kernel/../../src/kernel/tests/test2.hpp"
   1:src/kernel/../../src/kernel/tests/test2.hpp **** //
   2:src/kernel/../../src/kernel/tests/test2.hpp **** // Created by os on 1/10/23.
   3:src/kernel/../../src/kernel/tests/test2.hpp **** //
   4:src/kernel/../../src/kernel/tests/test2.hpp **** 
   5:src/kernel/../../src/kernel/tests/test2.hpp **** #ifndef KERNEL_FOR_RISCV_ARCHITECURE_TEST2_HPP
   6:src/kernel/../../src/kernel/tests/test2.hpp **** #define KERNEL_FOR_RISCV_ARCHITECURE_TEST2_HPP
   7:src/kernel/../../src/kernel/tests/test2.hpp **** #include "../../../h/kernel/slab.hpp"
   8:src/kernel/../../src/kernel/tests/test2.hpp **** 
   9:src/kernel/../../src/kernel/tests/test2.hpp **** #define RUN_NUM (5)
  10:src/kernel/../../src/kernel/tests/test2.hpp **** #define ITERATIONS (1000)
  11:src/kernel/../../src/kernel/tests/test2.hpp **** 
  12:src/kernel/../../src/kernel/tests/test2.hpp **** #define shared_size (7)
  13:src/kernel/../../src/kernel/tests/test2.hpp **** #define MASK (0xA5)
  14:src/kernel/../../src/kernel/tests/test2.hpp **** 
  15:src/kernel/../../src/kernel/tests/test2.hpp **** struct data_s {
  16:src/kernel/../../src/kernel/tests/test2.hpp ****     int id;
  17:src/kernel/../../src/kernel/tests/test2.hpp ****     kmem_cache_t  *shared;
  18:src/kernel/../../src/kernel/tests/test2.hpp ****     int iterations;
  19:src/kernel/../../src/kernel/tests/test2.hpp **** };
  20:src/kernel/../../src/kernel/tests/test2.hpp **** 
  21:src/kernel/../../src/kernel/tests/test2.hpp **** const char * const CACHE_NAMES[] = {"tc_0",
  22:src/kernel/../../src/kernel/tests/test2.hpp ****                                     "tc_1",
  23:src/kernel/../../src/kernel/tests/test2.hpp ****                                     "tc_2",
  24:src/kernel/../../src/kernel/tests/test2.hpp ****                                     "tc_3",
  25:src/kernel/../../src/kernel/tests/test2.hpp ****                                     "tc_4"};
  26:src/kernel/../../src/kernel/tests/test2.hpp **** 
  27:src/kernel/../../src/kernel/tests/test2.hpp **** void memset(const void *data, int size, int value) {
  12              		.loc 1 27 52
  13              		.cfi_startproc
  14              	.LVL0:
  15 0000 130101FF 		addi	sp,sp,-16
  16              		.cfi_def_cfa_offset 16
  17 0004 23348100 		sd	s0,8(sp)
  18              		.cfi_offset 8, -8
  19 0008 13040101 		addi	s0,sp,16
  20              		.cfi_def_cfa 8, 0
  28:src/kernel/../../src/kernel/tests/test2.hpp ****     for (int j = 0; j < size; j++) {
  21              		.loc 1 28 5
  22              	.LVL1:
  23              	.LBB2:
  24              		.loc 1 28 14 is_stmt 0
  25 000c 93070000 		li	a5,0
  26              	.LVL2:
  27              	.L3:
  28              		.loc 1 28 23 is_stmt 1 discriminator 3
  29 0010 63DAB700 		bge	a5,a1,.L1
  29:src/kernel/../../src/kernel/tests/test2.hpp ****         *((char *)data + j) = value;
GAS LISTING /tmp/ccpSmzXj.s 			page 2


  30              		.loc 1 29 9 discriminator 2
  31              		.loc 1 29 24 is_stmt 0 discriminator 2
  32 0014 3307F500 		add	a4,a0,a5
  33              		.loc 1 29 29 discriminator 2
  34 0018 2300C700 		sb	a2,0(a4)
  28:src/kernel/../../src/kernel/tests/test2.hpp ****     for (int j = 0; j < size; j++) {
  35              		.loc 1 28 5 is_stmt 1 discriminator 2
  36 001c 9B871700 		addiw	a5,a5,1
  37              	.LVL3:
  38 0020 6FF01FFF 		j	.L3
  39              	.LVL4:
  40              	.L1:
  41              	.LBE2:
  30:src/kernel/../../src/kernel/tests/test2.hpp ****     }
  31:src/kernel/../../src/kernel/tests/test2.hpp **** }
  42              		.loc 1 31 1 is_stmt 0
  43 0024 03348100 		ld	s0,8(sp)
  44              		.cfi_restore 8
  45              		.cfi_def_cfa 2, 16
  46 0028 13010101 		addi	sp,sp,16
  47              		.cfi_def_cfa_offset 0
  48 002c 67800000 		jr	ra
  49              		.cfi_endproc
  50              	.LFE47:
  52              		.align	2
  53              		.globl	_Z9constructPv
  55              	_Z9constructPv:
  56              	.LFB48:
  32:src/kernel/../../src/kernel/tests/test2.hpp **** 
  33:src/kernel/../../src/kernel/tests/test2.hpp **** void construct(void *data) {
  57              		.loc 1 33 28 is_stmt 1
  58              		.cfi_startproc
  59              	.LVL5:
  60 0030 130101FF 		addi	sp,sp,-16
  61              		.cfi_def_cfa_offset 16
  62 0034 23341100 		sd	ra,8(sp)
  63 0038 23308100 		sd	s0,0(sp)
  64              		.cfi_offset 1, -8
  65              		.cfi_offset 8, -16
  66 003c 13040101 		addi	s0,sp,16
  67              		.cfi_def_cfa 8, 0
  34:src/kernel/../../src/kernel/tests/test2.hpp **** //    static int i = 1;
  35:src/kernel/../../src/kernel/tests/test2.hpp **** //    printf("%d Shared object constructed.\n", i++);
  36:src/kernel/../../src/kernel/tests/test2.hpp ****     memset(data, shared_size, MASK);
  68              		.loc 1 36 5
  69              		.loc 1 36 11 is_stmt 0
  70 0040 1306500A 		li	a2,165
  71 0044 93057000 		li	a1,7
  72 0048 97000000 		call	_Z6memsetPKvii
  72      E7800000 
  73              	.LVL6:
  37:src/kernel/../../src/kernel/tests/test2.hpp **** }
  74              		.loc 1 37 1
  75 0050 83308100 		ld	ra,8(sp)
  76              		.cfi_restore 1
  77 0054 03340100 		ld	s0,0(sp)
  78              		.cfi_restore 8
GAS LISTING /tmp/ccpSmzXj.s 			page 3


  79              		.cfi_def_cfa 2, 16
  80 0058 13010101 		addi	sp,sp,16
  81              		.cfi_def_cfa_offset 0
  82 005c 67800000 		jr	ra
  83              		.cfi_endproc
  84              	.LFE48:
  86              		.align	2
  87              		.globl	_Z5checkPvm
  89              	_Z5checkPvm:
  90              	.LFB49:
  38:src/kernel/../../src/kernel/tests/test2.hpp **** 
  39:src/kernel/../../src/kernel/tests/test2.hpp **** int check(void *data, size_t size) {
  91              		.loc 1 39 36 is_stmt 1
  92              		.cfi_startproc
  93              	.LVL7:
  94 0060 130101FF 		addi	sp,sp,-16
  95              		.cfi_def_cfa_offset 16
  96 0064 23348100 		sd	s0,8(sp)
  97              		.cfi_offset 8, -8
  98 0068 13040101 		addi	s0,sp,16
  99              		.cfi_def_cfa 8, 0
 100 006c 13060500 		mv	a2,a0
  40:src/kernel/../../src/kernel/tests/test2.hpp ****     int ret = 1;
 101              		.loc 1 40 5
 102              	.LVL8:
  41:src/kernel/../../src/kernel/tests/test2.hpp ****     for (uint64 i = 0; i < size; i++) {
 103              		.loc 1 41 5
 104              	.LBB3:
 105              		.loc 1 41 17 is_stmt 0
 106 0070 93070000 		li	a5,0
 107              	.LBE3:
  40:src/kernel/../../src/kernel/tests/test2.hpp ****     int ret = 1;
 108              		.loc 1 40 9
 109 0074 13051000 		li	a0,1
 110              	.LVL9:
 111 0078 6F008000 		j	.L10
 112              	.LVL10:
 113              	.L9:
 114              	.LBB4:
 115              		.loc 1 41 5 is_stmt 1 discriminator 2
 116 007c 93871700 		addi	a5,a5,1
 117              	.LVL11:
 118              	.L10:
 119              		.loc 1 41 26 discriminator 1
 120 0080 63FEB700 		bgeu	a5,a1,.L8
  42:src/kernel/../../src/kernel/tests/test2.hpp ****         if (((unsigned char *)data)[i] != MASK) {
 121              		.loc 1 42 9
 122              		.loc 1 42 38 is_stmt 0
 123 0084 3307F600 		add	a4,a2,a5
 124 0088 83460700 		lbu	a3,0(a4)
 125              		.loc 1 42 9
 126 008c 1307500A 		li	a4,165
 127 0090 E386E6FE 		beq	a3,a4,.L9
  43:src/kernel/../../src/kernel/tests/test2.hpp ****             ret = 0;
 128              		.loc 1 43 17
 129 0094 13050000 		li	a0,0
 130              	.LVL12:
GAS LISTING /tmp/ccpSmzXj.s 			page 4


 131 0098 6FF05FFE 		j	.L9
 132              	.LVL13:
 133              	.L8:
 134              	.LBE4:
  44:src/kernel/../../src/kernel/tests/test2.hpp ****         }
  45:src/kernel/../../src/kernel/tests/test2.hpp ****     }
  46:src/kernel/../../src/kernel/tests/test2.hpp **** 
  47:src/kernel/../../src/kernel/tests/test2.hpp ****     return ret;
 135              		.loc 1 47 5 is_stmt 1
  48:src/kernel/../../src/kernel/tests/test2.hpp **** }
 136              		.loc 1 48 1 is_stmt 0
 137 009c 03348100 		ld	s0,8(sp)
 138              		.cfi_restore 8
 139              		.cfi_def_cfa 2, 16
 140 00a0 13010101 		addi	sp,sp,16
 141              		.cfi_def_cfa_offset 0
 142 00a4 67800000 		jr	ra
 143              		.cfi_endproc
 144              	.LFE49:
 146              		.section	.rodata.str1.8,"aMS",@progbits,1
 147              		.align	3
 148              	.LC0:
 149 0000 56616C75 		.string	"Value not correct!"
 149      65206E6F 
 149      7420636F 
 149      72726563 
 149      742100
 150              		.text
 151              		.align	2
 152              		.globl	_Z4workPv
 154              	_Z4workPv:
 155              	.LFB50:
  49:src/kernel/../../src/kernel/tests/test2.hpp **** 
  50:src/kernel/../../src/kernel/tests/test2.hpp **** struct objects_s {
  51:src/kernel/../../src/kernel/tests/test2.hpp ****     kmem_cache_t *cache;
  52:src/kernel/../../src/kernel/tests/test2.hpp ****     void *data;
  53:src/kernel/../../src/kernel/tests/test2.hpp **** };
  54:src/kernel/../../src/kernel/tests/test2.hpp **** 
  55:src/kernel/../../src/kernel/tests/test2.hpp **** void work(void* pdata) {
 156              		.loc 1 55 24 is_stmt 1
 157              		.cfi_startproc
 158              	.LVL14:
 159 00a8 130101F8 		addi	sp,sp,-128
 160              		.cfi_def_cfa_offset 128
 161 00ac 233C1106 		sd	ra,120(sp)
 162 00b0 23388106 		sd	s0,112(sp)
 163 00b4 23349106 		sd	s1,104(sp)
 164 00b8 23302107 		sd	s2,96(sp)
 165 00bc 233C3105 		sd	s3,88(sp)
 166 00c0 23384105 		sd	s4,80(sp)
 167 00c4 23345105 		sd	s5,72(sp)
 168 00c8 23306105 		sd	s6,64(sp)
 169 00cc 233C7103 		sd	s7,56(sp)
 170 00d0 23388103 		sd	s8,48(sp)
 171 00d4 23349103 		sd	s9,40(sp)
 172              		.cfi_offset 1, -8
 173              		.cfi_offset 8, -16
GAS LISTING /tmp/ccpSmzXj.s 			page 5


 174              		.cfi_offset 9, -24
 175              		.cfi_offset 18, -32
 176              		.cfi_offset 19, -40
 177              		.cfi_offset 20, -48
 178              		.cfi_offset 21, -56
 179              		.cfi_offset 22, -64
 180              		.cfi_offset 23, -72
 181              		.cfi_offset 24, -80
 182              		.cfi_offset 25, -88
 183 00d8 13040108 		addi	s0,sp,128
 184              		.cfi_def_cfa 8, 0
  56:src/kernel/../../src/kernel/tests/test2.hpp ****     struct data_s data = *(struct data_s*) pdata;
 185              		.loc 1 56 5
 186              		.loc 1 56 19 is_stmt 0
 187 00dc 033C0500 		ld	s8,0(a0)
 188 00e0 233484F9 		sd	s8,-120(s0)
 189 00e4 83378500 		ld	a5,8(a0)
 190 00e8 2338F4F8 		sd	a5,-112(s0)
 191 00ec 83370501 		ld	a5,16(a0)
 192 00f0 233CF4F8 		sd	a5,-104(s0)
  57:src/kernel/../../src/kernel/tests/test2.hpp ****     int size = 0;
 193              		.loc 1 57 5 is_stmt 1
 194              	.LVL15:
  58:src/kernel/../../src/kernel/tests/test2.hpp ****     int object_size = data.id + 1;
 195              		.loc 1 58 5
 196              		.loc 1 58 28 is_stmt 0
 197 00f4 9B070C00 		sext.w	a5,s8
 198              		.loc 1 58 9
 199 00f8 1B0C1C00 		addiw	s8,s8,1
 200              	.LVL16:
  59:src/kernel/../../src/kernel/tests/test2.hpp ****     kmem_cache_t *cache = kmem_cache_create(CACHE_NAMES[data.id], object_size, 0, 0);
 201              		.loc 1 59 5 is_stmt 1
 202              		.loc 1 59 64 is_stmt 0
 203 00fc 13973700 		slli	a4,a5,3
 204 0100 97070000 		lla	a5,.LANCHOR0
 204      93870700 
 205              	.LVL17:
 206 0108 B387E700 		add	a5,a5,a4
 207              		.loc 1 59 44
 208 010c 130B0C00 		mv	s6,s8
 209 0110 93060000 		li	a3,0
 210 0114 13060000 		li	a2,0
 211 0118 93050C00 		mv	a1,s8
 212 011c 03B50700 		ld	a0,0(a5)
 213              	.LVL18:
 214 0120 97000000 		call	_Z17kmem_cache_createPKcmPFvPvES3_@plt
 214      E7800000 
 215              	.LVL19:
 216 0128 130A0500 		mv	s4,a0
 217              	.LVL20:
  60:src/kernel/../../src/kernel/tests/test2.hpp **** 
  61:src/kernel/../../src/kernel/tests/test2.hpp ****     struct objects_s *objs = (struct objects_s*)(kmalloc(sizeof(struct objects_s) * data.iterations
 218              		.loc 1 61 5 is_stmt 1
 219              		.loc 1 61 90 is_stmt 0
 220 012c 832B84F9 		lw	s7,-104(s0)
 221              		.loc 1 61 57
 222 0130 13954B00 		slli	a0,s7,4
GAS LISTING /tmp/ccpSmzXj.s 			page 6


 223              	.LVL21:
 224 0134 97000000 		call	_Z7kmallocm@plt
 224      E7800000 
 225              	.LVL22:
 226 013c 930A0500 		mv	s5,a0
 227              	.LBB5:
  62:src/kernel/../../src/kernel/tests/test2.hpp **** 
  63:src/kernel/../../src/kernel/tests/test2.hpp ****     for (int i = 0; i < data.iterations; i++) {
 228              		.loc 1 63 14
 229 0140 93040000 		li	s1,0
 230              	.LBE5:
  57:src/kernel/../../src/kernel/tests/test2.hpp ****     int object_size = data.id + 1;
 231              		.loc 1 57 9
 232 0144 93090000 		li	s3,0
 233 0148 6F008003 		j	.L17
 234              	.LVL23:
 235              	.L15:
 236              	.LBB6:
  64:src/kernel/../../src/kernel/tests/test2.hpp ****         if (i % 100 == 0) {
  65:src/kernel/../../src/kernel/tests/test2.hpp ****             objs[size].data = kmem_cache_alloc(data.shared);
  66:src/kernel/../../src/kernel/tests/test2.hpp ****             objs[size].cache = data.shared;
  67:src/kernel/../../src/kernel/tests/test2.hpp ****             if (!check(objs[size].data, shared_size)) {
  68:src/kernel/../../src/kernel/tests/test2.hpp ****                 ConsoleUtil::printString("Value not correct!");
  69:src/kernel/../../src/kernel/tests/test2.hpp ****             }
  70:src/kernel/../../src/kernel/tests/test2.hpp ****         }
  71:src/kernel/../../src/kernel/tests/test2.hpp ****         else {
  72:src/kernel/../../src/kernel/tests/test2.hpp ****             objs[size].data = kmem_cache_alloc(cache);
 237              		.loc 1 72 13 is_stmt 1
 238              		.loc 1 72 22 is_stmt 0
 239 014c 13994900 		slli	s2,s3,4
 240 0150 33892A01 		add	s2,s5,s2
 241              		.loc 1 72 47
 242 0154 13050A00 		mv	a0,s4
 243 0158 97000000 		call	_Z16kmem_cache_allocP5Cache@plt
 243      E7800000 
 244              	.LVL24:
 245              		.loc 1 72 29
 246 0160 2334A900 		sd	a0,8(s2)
  73:src/kernel/../../src/kernel/tests/test2.hpp ****             objs[size].cache = cache;
 247              		.loc 1 73 13 is_stmt 1
 248              		.loc 1 73 30 is_stmt 0
 249 0164 23304901 		sd	s4,0(s2)
  74:src/kernel/../../src/kernel/tests/test2.hpp ****             memset(objs[size].data, object_size, MASK);
 250              		.loc 1 74 13 is_stmt 1
 251              		.loc 1 74 19 is_stmt 0
 252 0168 1306500A 		li	a2,165
 253 016c 93050C00 		mv	a1,s8
 254 0170 97000000 		call	_Z6memsetPKvii
 254      E7800000 
 255              	.LVL25:
 256              	.L16:
  75:src/kernel/../../src/kernel/tests/test2.hpp ****         }
  76:src/kernel/../../src/kernel/tests/test2.hpp ****         size++;
 257              		.loc 1 76 9 is_stmt 1 discriminator 2
 258              		.loc 1 76 13 is_stmt 0 discriminator 2
 259 0178 9B891900 		addiw	s3,s3,1
 260              	.LVL26:
GAS LISTING /tmp/ccpSmzXj.s 			page 7


  63:src/kernel/../../src/kernel/tests/test2.hpp ****         if (i % 100 == 0) {
 261              		.loc 1 63 5 is_stmt 1 discriminator 2
 262 017c 9B841400 		addiw	s1,s1,1
 263              	.LVL27:
 264              	.L17:
  63:src/kernel/../../src/kernel/tests/test2.hpp ****         if (i % 100 == 0) {
 265              		.loc 1 63 23 discriminator 1
 266 0180 63DA7405 		ble	s7,s1,.L14
  64:src/kernel/../../src/kernel/tests/test2.hpp ****             objs[size].data = kmem_cache_alloc(data.shared);
 267              		.loc 1 64 9
  64:src/kernel/../../src/kernel/tests/test2.hpp ****             objs[size].data = kmem_cache_alloc(data.shared);
 268              		.loc 1 64 15 is_stmt 0
 269 0184 93074006 		li	a5,100
 270 0188 BBE7F402 		remw	a5,s1,a5
  64:src/kernel/../../src/kernel/tests/test2.hpp ****             objs[size].data = kmem_cache_alloc(data.shared);
 271              		.loc 1 64 9
 272 018c E39007FC 		bnez	a5,.L15
  65:src/kernel/../../src/kernel/tests/test2.hpp ****             objs[size].cache = data.shared;
 273              		.loc 1 65 13 is_stmt 1
  65:src/kernel/../../src/kernel/tests/test2.hpp ****             objs[size].cache = data.shared;
 274              		.loc 1 65 47 is_stmt 0
 275 0190 833C04F9 		ld	s9,-112(s0)
  65:src/kernel/../../src/kernel/tests/test2.hpp ****             objs[size].cache = data.shared;
 276              		.loc 1 65 22
 277 0194 13994900 		slli	s2,s3,4
 278 0198 33892A01 		add	s2,s5,s2
  65:src/kernel/../../src/kernel/tests/test2.hpp ****             objs[size].cache = data.shared;
 279              		.loc 1 65 47
 280 019c 13850C00 		mv	a0,s9
 281 01a0 97000000 		call	_Z16kmem_cache_allocP5Cache@plt
 281      E7800000 
 282              	.LVL28:
  65:src/kernel/../../src/kernel/tests/test2.hpp ****             objs[size].cache = data.shared;
 283              		.loc 1 65 29
 284 01a8 2334A900 		sd	a0,8(s2)
  66:src/kernel/../../src/kernel/tests/test2.hpp ****             if (!check(objs[size].data, shared_size)) {
 285              		.loc 1 66 13 is_stmt 1
  66:src/kernel/../../src/kernel/tests/test2.hpp ****             if (!check(objs[size].data, shared_size)) {
 286              		.loc 1 66 30 is_stmt 0
 287 01ac 23309901 		sd	s9,0(s2)
  67:src/kernel/../../src/kernel/tests/test2.hpp ****                 ConsoleUtil::printString("Value not correct!");
 288              		.loc 1 67 13 is_stmt 1
  67:src/kernel/../../src/kernel/tests/test2.hpp ****                 ConsoleUtil::printString("Value not correct!");
 289              		.loc 1 67 23 is_stmt 0
 290 01b0 93057000 		li	a1,7
 291 01b4 97000000 		call	_Z5checkPvm
 291      E7800000 
 292              	.LVL29:
  67:src/kernel/../../src/kernel/tests/test2.hpp ****                 ConsoleUtil::printString("Value not correct!");
 293              		.loc 1 67 13
 294 01bc E31E05FA 		bnez	a0,.L16
  68:src/kernel/../../src/kernel/tests/test2.hpp ****             }
 295              		.loc 1 68 17 is_stmt 1
  68:src/kernel/../../src/kernel/tests/test2.hpp ****             }
 296              		.loc 1 68 41 is_stmt 0
 297 01c0 17050000 		lla	a0,.LC0
 297      13050500 
GAS LISTING /tmp/ccpSmzXj.s 			page 8


 298 01c8 97000000 		call	_ZN11ConsoleUtil11printStringEPKc@plt
 298      E7800000 
 299              	.LVL30:
 300 01d0 6FF09FFA 		j	.L16
 301              	.L14:
 302              	.LBE6:
  77:src/kernel/../../src/kernel/tests/test2.hpp ****     }
  78:src/kernel/../../src/kernel/tests/test2.hpp **** 
  79:src/kernel/../../src/kernel/tests/test2.hpp ****     kmem_cache_info(cache);
 303              		.loc 1 79 5 is_stmt 1
 304              		.loc 1 79 20 is_stmt 0
 305 01d4 13050A00 		mv	a0,s4
 306 01d8 97000000 		call	_Z15kmem_cache_infoP5Cache@plt
 306      E7800000 
 307              	.LVL31:
  80:src/kernel/../../src/kernel/tests/test2.hpp ****     kmem_cache_info(data.shared);
 308              		.loc 1 80 5 is_stmt 1
 309              		.loc 1 80 20 is_stmt 0
 310 01e0 033504F9 		ld	a0,-112(s0)
 311 01e4 97000000 		call	_Z15kmem_cache_infoP5Cache@plt
 311      E7800000 
 312              	.LVL32:
 313              	.LBB7:
  81:src/kernel/../../src/kernel/tests/test2.hpp **** 
  82:src/kernel/../../src/kernel/tests/test2.hpp ****     for (int i = 0; i < size; i++) {
 314              		.loc 1 82 14
 315 01ec 13090000 		li	s2,0
 316 01f0 6F000003 		j	.L21
 317              	.LVL33:
 318              	.L22:
  83:src/kernel/../../src/kernel/tests/test2.hpp ****         if (!check(objs[i].data, (cache == objs[i].cache) ? object_size : shared_size)) {
 319              		.loc 1 83 19
 320 01f4 93050B00 		mv	a1,s6
 321 01f8 6F004004 		j	.L19
 322              	.L24:
  84:src/kernel/../../src/kernel/tests/test2.hpp ****             ConsoleUtil::printString("Value not correct!");
 323              		.loc 1 84 13 is_stmt 1
 324              		.loc 1 84 37 is_stmt 0
 325 01fc 17050000 		lla	a0,.LC0
 325      13050500 
 326 0204 97000000 		call	_ZN11ConsoleUtil11printStringEPKc@plt
 326      E7800000 
 327              	.LVL34:
 328              	.L20:
  85:src/kernel/../../src/kernel/tests/test2.hpp ****         }
  86:src/kernel/../../src/kernel/tests/test2.hpp ****         kmem_cache_free(objs[i].cache, objs[i].data);
 329              		.loc 1 86 9 is_stmt 1
 330              		.loc 1 86 24 is_stmt 0
 331 020c 83B58400 		ld	a1,8(s1)
 332 0210 03B50400 		ld	a0,0(s1)
 333 0214 97000000 		call	_Z15kmem_cache_freeP5CachePv@plt
 333      E7800000 
 334              	.LVL35:
  82:src/kernel/../../src/kernel/tests/test2.hpp ****         if (!check(objs[i].data, (cache == objs[i].cache) ? object_size : shared_size)) {
 335              		.loc 1 82 5 is_stmt 1
 336 021c 1B091900 		addiw	s2,s2,1
 337              	.LVL36:
GAS LISTING /tmp/ccpSmzXj.s 			page 9


 338              	.L21:
  82:src/kernel/../../src/kernel/tests/test2.hpp ****         if (!check(objs[i].data, (cache == objs[i].cache) ? object_size : shared_size)) {
 339              		.loc 1 82 23 discriminator 1
 340 0220 63563903 		ble	s3,s2,.L18
  83:src/kernel/../../src/kernel/tests/test2.hpp ****             ConsoleUtil::printString("Value not correct!");
 341              		.loc 1 83 9
  83:src/kernel/../../src/kernel/tests/test2.hpp ****             ConsoleUtil::printString("Value not correct!");
 342              		.loc 1 83 26 is_stmt 0
 343 0224 93144900 		slli	s1,s2,4
 344 0228 B3849A00 		add	s1,s5,s1
  83:src/kernel/../../src/kernel/tests/test2.hpp ****             ConsoleUtil::printString("Value not correct!");
 345              		.loc 1 83 19
 346 022c 03B58400 		ld	a0,8(s1)
  83:src/kernel/../../src/kernel/tests/test2.hpp ****             ConsoleUtil::printString("Value not correct!");
 347              		.loc 1 83 52
 348 0230 83B70400 		ld	a5,0(s1)
  83:src/kernel/../../src/kernel/tests/test2.hpp ****             ConsoleUtil::printString("Value not correct!");
 349              		.loc 1 83 19
 350 0234 E38047FD 		beq	a5,s4,.L22
 351 0238 93057000 		li	a1,7
 352              	.L19:
  83:src/kernel/../../src/kernel/tests/test2.hpp ****             ConsoleUtil::printString("Value not correct!");
 353              		.loc 1 83 19 discriminator 4
 354 023c 97000000 		call	_Z5checkPvm
 354      E7800000 
 355              	.LVL37:
  83:src/kernel/../../src/kernel/tests/test2.hpp ****             ConsoleUtil::printString("Value not correct!");
 356              		.loc 1 83 9 discriminator 4
 357 0244 E31405FC 		bnez	a0,.L20
 358 0248 6FF05FFB 		j	.L24
 359              	.L18:
 360              	.LBE7:
  87:src/kernel/../../src/kernel/tests/test2.hpp ****     }
  88:src/kernel/../../src/kernel/tests/test2.hpp **** 
  89:src/kernel/../../src/kernel/tests/test2.hpp ****     kfree(objs);
 361              		.loc 1 89 5 is_stmt 1
 362              		.loc 1 89 10 is_stmt 0
 363 024c 13850A00 		mv	a0,s5
 364 0250 97000000 		call	_Z5kfreePKv@plt
 364      E7800000 
 365              	.LVL38:
  90:src/kernel/../../src/kernel/tests/test2.hpp ****     kmem_cache_destroy(cache);
 366              		.loc 1 90 5 is_stmt 1
 367              		.loc 1 90 23 is_stmt 0
 368 0258 13050A00 		mv	a0,s4
 369 025c 97000000 		call	_Z18kmem_cache_destroyP5Cache@plt
 369      E7800000 
 370              	.LVL39:
  91:src/kernel/../../src/kernel/tests/test2.hpp **** }
 371              		.loc 1 91 1
 372 0264 83308107 		ld	ra,120(sp)
 373              		.cfi_restore 1
 374 0268 03340107 		ld	s0,112(sp)
 375              		.cfi_restore 8
 376              		.cfi_def_cfa 2, 128
 377              	.LVL40:
 378 026c 83348106 		ld	s1,104(sp)
GAS LISTING /tmp/ccpSmzXj.s 			page 10


 379              		.cfi_restore 9
 380 0270 03390106 		ld	s2,96(sp)
 381              		.cfi_restore 18
 382              	.LVL41:
 383 0274 83398105 		ld	s3,88(sp)
 384              		.cfi_restore 19
 385              	.LVL42:
 386 0278 033A0105 		ld	s4,80(sp)
 387              		.cfi_restore 20
 388              	.LVL43:
 389 027c 833A8104 		ld	s5,72(sp)
 390              		.cfi_restore 21
 391 0280 033B0104 		ld	s6,64(sp)
 392              		.cfi_restore 22
 393 0284 833B8103 		ld	s7,56(sp)
 394              		.cfi_restore 23
 395 0288 033C0103 		ld	s8,48(sp)
 396              		.cfi_restore 24
 397 028c 833C8102 		ld	s9,40(sp)
 398              		.cfi_restore 25
 399 0290 13010108 		addi	sp,sp,128
 400              		.cfi_def_cfa_offset 0
 401              	.LVL44:
 402 0294 67800000 		jr	ra
 403              		.cfi_endproc
 404              	.LFE50:
 406              		.align	2
 407              		.globl	_Z4runsPFvPvEP6data_si
 409              	_Z4runsPFvPvEP6data_si:
 410              	.LFB51:
  92:src/kernel/../../src/kernel/tests/test2.hpp **** 
  93:src/kernel/../../src/kernel/tests/test2.hpp **** 
  94:src/kernel/../../src/kernel/tests/test2.hpp **** 
  95:src/kernel/../../src/kernel/tests/test2.hpp **** void runs(void(*work)(void*), struct data_s* data, int num) {
 411              		.loc 1 95 61 is_stmt 1
 412              		.cfi_startproc
 413              	.LVL45:
 414 0298 130101FB 		addi	sp,sp,-80
 415              		.cfi_def_cfa_offset 80
 416 029c 23341104 		sd	ra,72(sp)
 417 02a0 23308104 		sd	s0,64(sp)
 418 02a4 233C9102 		sd	s1,56(sp)
 419 02a8 23382103 		sd	s2,48(sp)
 420 02ac 23343103 		sd	s3,40(sp)
 421 02b0 23304103 		sd	s4,32(sp)
 422              		.cfi_offset 1, -8
 423              		.cfi_offset 8, -16
 424              		.cfi_offset 9, -24
 425              		.cfi_offset 18, -32
 426              		.cfi_offset 19, -40
 427              		.cfi_offset 20, -48
 428 02b4 13040105 		addi	s0,sp,80
 429              		.cfi_def_cfa 8, 0
 430 02b8 130A0500 		mv	s4,a0
 431 02bc 13890500 		mv	s2,a1
 432 02c0 93090600 		mv	s3,a2
  96:src/kernel/../../src/kernel/tests/test2.hpp ****     for (int i = 0; i < num; i++) {
GAS LISTING /tmp/ccpSmzXj.s 			page 11


 433              		.loc 1 96 5
 434              	.LVL46:
 435              	.LBB8:
 436              		.loc 1 96 14 is_stmt 0
 437 02c4 93040000 		li	s1,0
 438              	.LVL47:
 439              	.L27:
 440              		.loc 1 96 23 is_stmt 1 discriminator 1
 441 02c8 63D83403 		bge	s1,s3,.L25
 442              	.LBB9:
  97:src/kernel/../../src/kernel/tests/test2.hpp ****         struct data_s private_data;
 443              		.loc 1 97 9
  98:src/kernel/../../src/kernel/tests/test2.hpp ****         private_data = *(struct data_s*) data;
 444              		.loc 1 98 9
 445              		.loc 1 98 22 is_stmt 0
 446 02cc 83370900 		ld	a5,0(s2)
 447 02d0 233CF4FA 		sd	a5,-72(s0)
 448 02d4 83378900 		ld	a5,8(s2)
 449 02d8 2330F4FC 		sd	a5,-64(s0)
 450 02dc 83370901 		ld	a5,16(s2)
 451 02e0 2334F4FC 		sd	a5,-56(s0)
  99:src/kernel/../../src/kernel/tests/test2.hpp ****         private_data.id = i;
 452              		.loc 1 99 9 is_stmt 1
 453              		.loc 1 99 25 is_stmt 0
 454 02e4 232C94FA 		sw	s1,-72(s0)
 100:src/kernel/../../src/kernel/tests/test2.hpp ****         work(&private_data);
 455              		.loc 1 100 9 is_stmt 1
 456              		.loc 1 100 13 is_stmt 0
 457 02e8 130584FB 		addi	a0,s0,-72
 458 02ec E7000A00 		jalr	s4
 459              	.LVL48:
 460              	.LBE9:
  96:src/kernel/../../src/kernel/tests/test2.hpp ****         struct data_s private_data;
 461              		.loc 1 96 5 is_stmt 1
 462 02f0 9B841400 		addiw	s1,s1,1
 463              	.LVL49:
 464 02f4 6FF05FFD 		j	.L27
 465              	.LVL50:
 466              	.L25:
 467              	.LBE8:
 101:src/kernel/../../src/kernel/tests/test2.hpp ****     }
 102:src/kernel/../../src/kernel/tests/test2.hpp **** }
 468              		.loc 1 102 1 is_stmt 0
 469 02f8 83308104 		ld	ra,72(sp)
 470              		.cfi_restore 1
 471 02fc 03340104 		ld	s0,64(sp)
 472              		.cfi_restore 8
 473              		.cfi_def_cfa 2, 80
 474 0300 83348103 		ld	s1,56(sp)
 475              		.cfi_restore 9
 476              	.LVL51:
 477 0304 03390103 		ld	s2,48(sp)
 478              		.cfi_restore 18
 479              	.LVL52:
 480 0308 83398102 		ld	s3,40(sp)
 481              		.cfi_restore 19
 482 030c 033A0102 		ld	s4,32(sp)
GAS LISTING /tmp/ccpSmzXj.s 			page 12


 483              		.cfi_restore 20
 484              	.LVL53:
 485 0310 13010105 		addi	sp,sp,80
 486              		.cfi_def_cfa_offset 0
 487 0314 67800000 		jr	ra
 488              		.cfi_endproc
 489              	.LFE51:
 491              		.section	.rodata.str1.8
 492 0013 00000000 		.align	3
 492      00
 493              	.LC1:
 494 0018 73686172 		.string	"shared object"
 494      6564206F 
 494      626A6563 
 494      7400
 495              		.text
 496              		.align	2
 497              		.globl	_Z5test2v
 499              	_Z5test2v:
 500              	.LFB52:
 103:src/kernel/../../src/kernel/tests/test2.hpp **** 
 104:src/kernel/../../src/kernel/tests/test2.hpp **** void test2() {
 501              		.loc 1 104 14 is_stmt 1
 502              		.cfi_startproc
 503 0318 130101FC 		addi	sp,sp,-64
 504              		.cfi_def_cfa_offset 64
 505 031c 233C1102 		sd	ra,56(sp)
 506 0320 23388102 		sd	s0,48(sp)
 507 0324 23349102 		sd	s1,40(sp)
 508              		.cfi_offset 1, -8
 509              		.cfi_offset 8, -16
 510              		.cfi_offset 9, -24
 511 0328 13040104 		addi	s0,sp,64
 512              		.cfi_def_cfa 8, 0
 105:src/kernel/../../src/kernel/tests/test2.hpp ****     kmem_cache_t *shared = kmem_cache_create("shared object", shared_size, construct, nullptr);
 513              		.loc 1 105 5
 514              		.loc 1 105 45 is_stmt 0
 515 032c 93060000 		li	a3,0
 516 0330 17060000 		lla	a2,_Z9constructPv
 516      13060600 
 517 0338 93057000 		li	a1,7
 518 033c 17050000 		lla	a0,.LC1
 518      13050500 
 519 0344 97000000 		call	_Z17kmem_cache_createPKcmPFvPvES3_@plt
 519      E7800000 
 520              	.LVL54:
 521 034c 93040500 		mv	s1,a0
 522              	.LVL55:
 106:src/kernel/../../src/kernel/tests/test2.hpp **** 
 107:src/kernel/../../src/kernel/tests/test2.hpp ****     struct data_s data;
 523              		.loc 1 107 5 is_stmt 1
 108:src/kernel/../../src/kernel/tests/test2.hpp ****     data.shared = shared;
 524              		.loc 1 108 5
 525              		.loc 1 108 17 is_stmt 0
 526 0350 2338A4FC 		sd	a0,-48(s0)
 109:src/kernel/../../src/kernel/tests/test2.hpp ****     data.iterations = ITERATIONS;
 527              		.loc 1 109 5 is_stmt 1
GAS LISTING /tmp/ccpSmzXj.s 			page 13


 528              		.loc 1 109 21 is_stmt 0
 529 0354 9307803E 		li	a5,1000
 530 0358 232CF4FC 		sw	a5,-40(s0)
 110:src/kernel/../../src/kernel/tests/test2.hpp ****     runs(work, &data, RUN_NUM);
 531              		.loc 1 110 5 is_stmt 1
 532              		.loc 1 110 9 is_stmt 0
 533 035c 13065000 		li	a2,5
 534 0360 930584FC 		addi	a1,s0,-56
 535 0364 17050000 		lla	a0,_Z4workPv
 535      13050500 
 536 036c 97000000 		call	_Z4runsPFvPvEP6data_si
 536      E7800000 
 537              	.LVL56:
 111:src/kernel/../../src/kernel/tests/test2.hpp **** 
 112:src/kernel/../../src/kernel/tests/test2.hpp ****     kmem_cache_destroy(shared);
 538              		.loc 1 112 5 is_stmt 1
 539              		.loc 1 112 23 is_stmt 0
 540 0374 13850400 		mv	a0,s1
 541 0378 97000000 		call	_Z18kmem_cache_destroyP5Cache@plt
 541      E7800000 
 542              	.LVL57:
 113:src/kernel/../../src/kernel/tests/test2.hpp **** }
 543              		.loc 1 113 1
 544 0380 83308103 		ld	ra,56(sp)
 545              		.cfi_restore 1
 546 0384 03340103 		ld	s0,48(sp)
 547              		.cfi_restore 8
 548              		.cfi_def_cfa 2, 64
 549 0388 83348102 		ld	s1,40(sp)
 550              		.cfi_restore 9
 551              	.LVL58:
 552 038c 13010104 		addi	sp,sp,64
 553              		.cfi_def_cfa_offset 0
 554 0390 67800000 		jr	ra
 555              		.cfi_endproc
 556              	.LFE52:
 558              		.align	2
 559              		.globl	_Z4ctorPv
 561              	_Z4ctorPv:
 562              	.LFB53:
 563              		.file 2 "src/kernel/system.cpp"
   1:src/kernel/system.cpp **** //
   2:src/kernel/system.cpp **** // Created by os on 5/31/22.
   3:src/kernel/system.cpp **** //
   4:src/kernel/system.cpp **** 
   5:src/kernel/system.cpp **** #include "../../h/kernel/system.hpp"
   6:src/kernel/system.cpp **** #include "../../h/kernel/riscv.hpp"
   7:src/kernel/system.cpp **** #include "../../h/user/syscall_c.h"
   8:src/kernel/system.cpp **** #include "../../src/user/tests/userMain.hpp"
   9:src/kernel/system.cpp **** #include "../../src/kernel/tests/test2.hpp"
  10:src/kernel/system.cpp **** #include "../../h/user/printing.hpp"
  11:src/kernel/system.cpp **** #include "../../h/kernel/tcb.hpp"
  12:src/kernel/system.cpp **** #include "../../h/kernel/scheduler.hpp"
  13:src/kernel/system.cpp **** #include "../../h/user/user_wrappers.hpp"
  14:src/kernel/system.cpp **** 
  15:src/kernel/system.cpp **** bool System::initialized = false;
  16:src/kernel/system.cpp **** 
GAS LISTING /tmp/ccpSmzXj.s 			page 14


  17:src/kernel/system.cpp **** struct Test{
  18:src/kernel/system.cpp ****     uint64 a,b,c,d,e,f;
  19:src/kernel/system.cpp **** };
  20:src/kernel/system.cpp **** 
  21:src/kernel/system.cpp **** void ctor(void* tst){
 564              		.loc 2 21 21 is_stmt 1
 565              		.cfi_startproc
 566              	.LVL59:
 567 0394 130101FF 		addi	sp,sp,-16
 568              		.cfi_def_cfa_offset 16
 569 0398 23348100 		sd	s0,8(sp)
 570              		.cfi_offset 8, -8
 571 039c 13040101 		addi	s0,sp,16
 572              		.cfi_def_cfa 8, 0
  22:src/kernel/system.cpp ****     ((Test*)tst)->a = 17;
 573              		.loc 2 22 5
 574              		.loc 2 22 21 is_stmt 0
 575 03a0 93071001 		li	a5,17
 576 03a4 2330F500 		sd	a5,0(a0)
  23:src/kernel/system.cpp ****     ((Test*)tst)->b = 32;
 577              		.loc 2 23 5 is_stmt 1
 578              		.loc 2 23 21 is_stmt 0
 579 03a8 93070002 		li	a5,32
 580 03ac 2334F500 		sd	a5,8(a0)
  24:src/kernel/system.cpp ****     ((Test*)tst)->c = 13;
 581              		.loc 2 24 5 is_stmt 1
 582              		.loc 2 24 21 is_stmt 0
 583 03b0 9307D000 		li	a5,13
 584 03b4 2338F500 		sd	a5,16(a0)
  25:src/kernel/system.cpp **** 
  26:src/kernel/system.cpp **** }
 585              		.loc 2 26 1
 586 03b8 03348100 		ld	s0,8(sp)
 587              		.cfi_restore 8
 588              		.cfi_def_cfa 2, 16
 589 03bc 13010101 		addi	sp,sp,16
 590              		.cfi_def_cfa_offset 0
 591 03c0 67800000 		jr	ra
 592              		.cfi_endproc
 593              	.LFE53:
 595              		.section	.rodata.str1.8
 596 0026 0000     		.align	3
 597              	.LC2:
 598 0028 544D5031 		.string	"TMP1"
 598      00
 599              		.text
 600              		.align	2
 601              		.globl	_ZN6SystemC2Ev
 603              	_ZN6SystemC2Ev:
 604              	.LFB55:
  27:src/kernel/system.cpp **** 
  28:src/kernel/system.cpp **** 
  29:src/kernel/system.cpp **** System::System() {
 605              		.loc 2 29 1 is_stmt 1
 606              		.cfi_startproc
 607              	.LVL60:
  30:src/kernel/system.cpp ****     //check whether system is already running to prevent user malicious access
GAS LISTING /tmp/ccpSmzXj.s 			page 15


  31:src/kernel/system.cpp ****     if (!initialized) {
 608              		.loc 2 31 5
 609              	.LBB10:
 610              		.loc 2 31 9 is_stmt 0
 611 03c4 97070000 		lbu	a5,.LANCHOR1
 611      83C70700 
 612              		.loc 2 31 5
 613 03cc 63840700 		beqz	a5,.L42
 614 03d0 67800000 		ret
 615              	.L42:
 616              	.LBE10:
  29:src/kernel/system.cpp ****     //check whether system is already running to prevent user malicious access
 617              		.loc 2 29 1
 618 03d4 130101FC 		addi	sp,sp,-64
 619              		.cfi_def_cfa_offset 64
 620 03d8 233C1102 		sd	ra,56(sp)
 621 03dc 23388102 		sd	s0,48(sp)
 622 03e0 23349102 		sd	s1,40(sp)
 623 03e4 23302103 		sd	s2,32(sp)
 624 03e8 233C3101 		sd	s3,24(sp)
 625 03ec 23384101 		sd	s4,16(sp)
 626              		.cfi_offset 1, -8
 627              		.cfi_offset 8, -16
 628              		.cfi_offset 9, -24
 629              		.cfi_offset 18, -32
 630              		.cfi_offset 19, -40
 631              		.cfi_offset 20, -48
 632 03f0 13040104 		addi	s0,sp,64
 633              		.cfi_def_cfa 8, 0
 634              	.LBB12:
 635              	.LBB11:
  32:src/kernel/system.cpp ****         initialized = true;
 636              		.loc 2 32 9 is_stmt 1
 637              		.loc 2 32 21 is_stmt 0
 638 03f4 93071000 		li	a5,1
 639 03f8 17070000 		sb	a5,.LANCHOR1,a4
 639      2300F700 
  33:src/kernel/system.cpp **** 
  34:src/kernel/system.cpp ****         //initialize the machine
  35:src/kernel/system.cpp ****         RiscV::initialize();
 640              		.loc 2 35 9 is_stmt 1
 641              		.loc 2 35 26 is_stmt 0
 642 0400 97000000 		call	_ZN5RiscV10initializeEv@plt
 642      E7800000 
 643              	.LVL61:
  36:src/kernel/system.cpp **** 
  37:src/kernel/system.cpp ****         Cache *tmp1 = kmem_cache_create("TMP1", 2048, nullptr, nullptr);
 644              		.loc 2 37 9 is_stmt 1
 645              		.loc 2 37 40 is_stmt 0
 646 0408 93060000 		li	a3,0
 647 040c 13060000 		li	a2,0
 648 0410 B7150000 		li	a1,4096
 649 0414 93850580 		addi	a1,a1,-2048
 650 0418 17050000 		lla	a0,.LC2
 650      13050500 
 651 0420 97000000 		call	_Z17kmem_cache_createPKcmPFvPvES3_@plt
 651      E7800000 
GAS LISTING /tmp/ccpSmzXj.s 			page 16


 652              	.LVL62:
 653 0428 93040500 		mv	s1,a0
 654              	.LVL63:
  38:src/kernel/system.cpp **** //        Cache *tmp2 = kmem_cache_create("TMP2", 2048, nullptr, nullptr);
  39:src/kernel/system.cpp ****         void* ret1 = kmem_cache_alloc(tmp1);
 655              		.loc 2 39 9 is_stmt 1
 656              		.loc 2 39 38 is_stmt 0
 657 042c 97000000 		call	_Z16kmem_cache_allocP5Cache@plt
 657      E7800000 
 658              	.LVL64:
 659 0434 13090500 		mv	s2,a0
 660              	.LVL65:
  40:src/kernel/system.cpp ****         void* ret2 = kmem_cache_alloc(tmp1);
 661              		.loc 2 40 9 is_stmt 1
 662              		.loc 2 40 38 is_stmt 0
 663 0438 13850400 		mv	a0,s1
 664              	.LVL66:
 665 043c 97000000 		call	_Z16kmem_cache_allocP5Cache@plt
 665      E7800000 
 666              	.LVL67:
 667 0444 93090500 		mv	s3,a0
 668              	.LVL68:
  41:src/kernel/system.cpp ****         void* ret3 = kmem_cache_alloc(tmp1);
 669              		.loc 2 41 9 is_stmt 1
 670              		.loc 2 41 38 is_stmt 0
 671 0448 13850400 		mv	a0,s1
 672              	.LVL69:
 673 044c 97000000 		call	_Z16kmem_cache_allocP5Cache@plt
 673      E7800000 
 674              	.LVL70:
 675 0454 130A0500 		mv	s4,a0
 676              	.LVL71:
  42:src/kernel/system.cpp ****         if(ret1 && ret2 && ret3){
 677              		.loc 2 42 9 is_stmt 1
 678 0458 630C0906 		beqz	s2,.L35
 679              		.loc 2 42 17 is_stmt 0 discriminator 1
 680 045c 638A0906 		beqz	s3,.L35
 681              		.loc 2 42 25 discriminator 2
 682 0460 63080506 		beqz	a0,.L35
  43:src/kernel/system.cpp ****             SlabAllocator::printSlab(tmp1->partialHead);
 683              		.loc 2 43 13 is_stmt 1
 684              		.loc 2 43 37 is_stmt 0
 685 0464 03B50407 		ld	a0,112(s1)
 686              	.LVL72:
 687 0468 97000000 		call	_ZN13SlabAllocator9printSlabEP4Slab@plt
 687      E7800000 
 688              	.LVL73:
  44:src/kernel/system.cpp ****             kmem_cache_free(tmp1, ret3);
 689              		.loc 2 44 13 is_stmt 1
 690              		.loc 2 44 28 is_stmt 0
 691 0470 93050A00 		mv	a1,s4
 692 0474 13850400 		mv	a0,s1
 693 0478 97000000 		call	_Z15kmem_cache_freeP5CachePv@plt
 693      E7800000 
 694              	.LVL74:
  45:src/kernel/system.cpp ****             SlabAllocator::printSlab(tmp1->partialHead);
 695              		.loc 2 45 13 is_stmt 1
GAS LISTING /tmp/ccpSmzXj.s 			page 17


 696              		.loc 2 45 37 is_stmt 0
 697 0480 03B50407 		ld	a0,112(s1)
 698 0484 97000000 		call	_ZN13SlabAllocator9printSlabEP4Slab@plt
 698      E7800000 
 699              	.LVL75:
  46:src/kernel/system.cpp ****             kmem_cache_free(tmp1, ret2);
 700              		.loc 2 46 13 is_stmt 1
 701              		.loc 2 46 28 is_stmt 0
 702 048c 93850900 		mv	a1,s3
 703 0490 13850400 		mv	a0,s1
 704 0494 97000000 		call	_Z15kmem_cache_freeP5CachePv@plt
 704      E7800000 
 705              	.LVL76:
  47:src/kernel/system.cpp ****             kmem_cache_free(tmp1, ret1);
 706              		.loc 2 47 13 is_stmt 1
 707              		.loc 2 47 28 is_stmt 0
 708 049c 93050900 		mv	a1,s2
 709 04a0 13850400 		mv	a0,s1
 710 04a4 97000000 		call	_Z15kmem_cache_freeP5CachePv@plt
 710      E7800000 
 711              	.LVL77:
  48:src/kernel/system.cpp ****             kmem_cache_info(tmp1);
 712              		.loc 2 48 13 is_stmt 1
 713              		.loc 2 48 28 is_stmt 0
 714 04ac 13850400 		mv	a0,s1
 715 04b0 97000000 		call	_Z15kmem_cache_infoP5Cache@plt
 715      E7800000 
 716              	.LVL78:
  49:src/kernel/system.cpp ****             kmem_cache_alloc(tmp1);
 717              		.loc 2 49 13 is_stmt 1
 718              		.loc 2 49 29 is_stmt 0
 719 04b8 13850400 		mv	a0,s1
 720 04bc 97000000 		call	_Z16kmem_cache_allocP5Cache@plt
 720      E7800000 
 721              	.LVL79:
  50:src/kernel/system.cpp ****             SlabAllocator::printSlab(tmp1->partialHead);
 722              		.loc 2 50 13 is_stmt 1
 723              		.loc 2 50 37 is_stmt 0
 724 04c4 03B50407 		ld	a0,112(s1)
 725 04c8 97000000 		call	_ZN13SlabAllocator9printSlabEP4Slab@plt
 725      E7800000 
 726              	.LVL80:
 727              	.L35:
  51:src/kernel/system.cpp ****         }
  52:src/kernel/system.cpp **** 
  53:src/kernel/system.cpp ****         test2();
 728              		.loc 2 53 9 is_stmt 1
 729              		.loc 2 53 14 is_stmt 0
 730 04d0 97000000 		call	_Z5test2v
 730      E7800000 
 731              	.LVL81:
  54:src/kernel/system.cpp ****         //creating a thread that will be executing user code
  55:src/kernel/system.cpp ****         //this is done as to separate user code execution from main kernel thread
  56:src/kernel/system.cpp ****         //also it provides kernel with an idle thread that will run itself if user code gets blocke
  57:src/kernel/system.cpp **** 
  58:src/kernel/system.cpp ****         thread_t userMainThread;
 732              		.loc 2 58 9 is_stmt 1
GAS LISTING /tmp/ccpSmzXj.s 			page 18


  59:src/kernel/system.cpp ****         RiscV::threadCreateUtil((TCB**)(&userMainThread), userMainWrapper, nullptr);
 733              		.loc 2 59 9
 734              		.loc 2 59 32 is_stmt 0
 735 04d8 13060000 		li	a2,0
 736 04dc 97050000 		la	a1,_Z15userMainWrapperPv
 736      83B50500 
 737 04e4 130584FC 		addi	a0,s0,-56
 738 04e8 97000000 		call	_ZN5RiscV16threadCreateUtilEPP3TCBPFvPvES3_@plt
 738      E7800000 
 739              	.LVL82:
 740              	.L37:
  60:src/kernel/system.cpp **** 
  61:src/kernel/system.cpp **** 
  62:src/kernel/system.cpp **** //        //return control to user code until it reaches the end
  63:src/kernel/system.cpp **** //        //exit only if user is finished and machine is ready to exit (in case there is something 
  64:src/kernel/system.cpp ****         while (( (TCB*)userMainThread)->status != TCB::Status::FINISHED) {
 741              		.loc 2 64 9 is_stmt 1
 742              		.loc 2 64 48
 743              		.loc 2 64 18 is_stmt 0
 744 04f0 833784FC 		ld	a5,-56(s0)
 745              		.loc 2 64 41
 746 04f4 03A70701 		lw	a4,16(a5)
 747              		.loc 2 64 48
 748 04f8 93072000 		li	a5,2
 749 04fc 6308F700 		beq	a4,a5,.L36
  65:src/kernel/system.cpp ****             RiscV::threadDispatchUtil();
 750              		.loc 2 65 13 is_stmt 1
 751              		.loc 2 65 38 is_stmt 0
 752 0500 97000000 		call	_ZN5RiscV18threadDispatchUtilEv@plt
 752      E7800000 
 753              	.LVL83:
 754 0508 6FF09FFE 		j	.L37
 755              	.L36:
  66:src/kernel/system.cpp ****         }
  67:src/kernel/system.cpp **** 
  68:src/kernel/system.cpp ****         //finalize the machine
  69:src/kernel/system.cpp ****         RiscV::finalize();
 756              		.loc 2 69 9 is_stmt 1
 757              		.loc 2 69 24 is_stmt 0
 758 050c 97000000 		call	_ZN5RiscV8finalizeEv@plt
 758      E7800000 
 759              	.LVL84:
 760              	.LBE11:
 761              	.LBE12:
  70:src/kernel/system.cpp ****     }
  71:src/kernel/system.cpp **** }...
 762              		.loc 2 71 1
 763 0514 83308103 		ld	ra,56(sp)
 764              		.cfi_restore 1
 765 0518 03340103 		ld	s0,48(sp)
 766              		.cfi_restore 8
 767              		.cfi_def_cfa 2, 64
 768 051c 83348102 		ld	s1,40(sp)
 769              		.cfi_restore 9
 770              	.LVL85:
 771 0520 03390102 		ld	s2,32(sp)
 772              		.cfi_restore 18
GAS LISTING /tmp/ccpSmzXj.s 			page 19


 773              	.LVL86:
 774 0524 83398101 		ld	s3,24(sp)
 775              		.cfi_restore 19
 776              	.LVL87:
 777 0528 033A0101 		ld	s4,16(sp)
 778              		.cfi_restore 20
 779              	.LVL88:
 780 052c 13010104 		addi	sp,sp,64
 781              		.cfi_def_cfa_offset 0
 782 0530 67800000 		jr	ra
 783              		.cfi_endproc
 784              	.LFE55:
 786              		.globl	_ZN6SystemC1Ev
 787              		.set	_ZN6SystemC1Ev,_ZN6SystemC2Ev
 788              		.globl	_ZN6System11initializedE
 789              		.section	.rodata.str1.8
 790 002d 000000   		.align	3
 791              	.LC3:
 792 0030 74635F30 		.string	"tc_0"
 792      00
 793 0035 000000   		.align	3
 794              	.LC4:
 795 0038 74635F31 		.string	"tc_1"
 795      00
 796 003d 000000   		.align	3
 797              	.LC5:
 798 0040 74635F32 		.string	"tc_2"
 798      00
 799 0045 000000   		.align	3
 800              	.LC6:
 801 0048 74635F33 		.string	"tc_3"
 801      00
 802 004d 000000   		.align	3
 803              	.LC7:
 804 0050 74635F34 		.string	"tc_4"
 804      00
 805              		.bss
 806              		.set	.LANCHOR1,. + 0
 809              	_ZN6System11initializedE:
 810 0000 00       		.zero	1
 811              		.section	.data.rel.ro.local,"aw"
 812              		.align	3
 813              		.set	.LANCHOR0,. + 0
 816              	_ZL11CACHE_NAMES:
 817 0000 00000000 		.dword	.LC3
 817      00000000 
 818 0008 00000000 		.dword	.LC4
 818      00000000 
 819 0010 00000000 		.dword	.LC5
 819      00000000 
 820 0018 00000000 		.dword	.LC6
 820      00000000 
 821 0020 00000000 		.dword	.LC7
 821      00000000 
 822              		.text
 823              	.Letext0:
 824              		.file 3 "src/kernel/../../h/kernel/../../lib/hw.h"
GAS LISTING /tmp/ccpSmzXj.s 			page 20


 825              		.file 4 "src/kernel/../../h/kernel/utility.hpp"
 826              		.file 5 "src/kernel/../../h/kernel/system.hpp"
 827              		.file 6 "src/kernel/../../h/kernel/riscv.hpp"
 828              		.file 7 "src/kernel/../../h/kernel/tcb.hpp"
 829              		.file 8 "src/kernel/../../h/user/_thread.hpp"
 830              		.file 9 "src/kernel/../../src/kernel/tests/../../../h/kernel/console_util.hpp"
 831              		.file 10 "src/kernel/../../src/kernel/tests/../../../h/kernel/slab_t.hpp"
 832              		.file 11 "src/kernel/../../src/kernel/tests/../../../h/kernel/cache_t.hpp"
 833              		.file 12 "src/kernel/../../src/kernel/tests/../../../h/kernel/slab_allocator.hpp"
 834              		.file 13 "src/kernel/../../src/kernel/tests/../../../h/kernel/slab.hpp"
GAS LISTING /tmp/ccpSmzXj.s 			page 21


DEFINED SYMBOLS
                            *ABS*:0000000000000000 system.cpp
     /tmp/ccpSmzXj.s:9      .text:0000000000000000 _Z6memsetPKvii
     /tmp/ccpSmzXj.s:13     .text:0000000000000000 .L0 
     /tmp/ccpSmzXj.s:15     .text:0000000000000000 .L0 
     /tmp/ccpSmzXj.s:16     .text:0000000000000004 .L0 
     /tmp/ccpSmzXj.s:18     .text:0000000000000008 .L0 
     /tmp/ccpSmzXj.s:20     .text:000000000000000c .L0 
     /tmp/ccpSmzXj.s:24     .text:000000000000000c .L0 
     /tmp/ccpSmzXj.s:25     .text:000000000000000c .L0 
     /tmp/ccpSmzXj.s:29     .text:0000000000000010 .L0 
     /tmp/ccpSmzXj.s:31     .text:0000000000000014 .L0 
     /tmp/ccpSmzXj.s:32     .text:0000000000000014 .L0 
     /tmp/ccpSmzXj.s:34     .text:0000000000000018 .L0 
     /tmp/ccpSmzXj.s:36     .text:000000000000001c .L0 
     /tmp/ccpSmzXj.s:43     .text:0000000000000024 .L0 
     /tmp/ccpSmzXj.s:44     .text:0000000000000028 .L0 
     /tmp/ccpSmzXj.s:45     .text:0000000000000028 .L0 
     /tmp/ccpSmzXj.s:47     .text:000000000000002c .L0 
     /tmp/ccpSmzXj.s:49     .text:0000000000000030 .L0 
     /tmp/ccpSmzXj.s:55     .text:0000000000000030 _Z9constructPv
     /tmp/ccpSmzXj.s:58     .text:0000000000000030 .L0 
     /tmp/ccpSmzXj.s:60     .text:0000000000000030 .L0 
     /tmp/ccpSmzXj.s:61     .text:0000000000000034 .L0 
     /tmp/ccpSmzXj.s:64     .text:000000000000003c .L0 
     /tmp/ccpSmzXj.s:65     .text:000000000000003c .L0 
     /tmp/ccpSmzXj.s:67     .text:0000000000000040 .L0 
     /tmp/ccpSmzXj.s:69     .text:0000000000000040 .L0 
     /tmp/ccpSmzXj.s:70     .text:0000000000000040 .L0 
     /tmp/ccpSmzXj.s:75     .text:0000000000000050 .L0 
     /tmp/ccpSmzXj.s:76     .text:0000000000000054 .L0 
     /tmp/ccpSmzXj.s:78     .text:0000000000000058 .L0 
     /tmp/ccpSmzXj.s:79     .text:0000000000000058 .L0 
     /tmp/ccpSmzXj.s:81     .text:000000000000005c .L0 
     /tmp/ccpSmzXj.s:83     .text:0000000000000060 .L0 
     /tmp/ccpSmzXj.s:89     .text:0000000000000060 _Z5checkPvm
     /tmp/ccpSmzXj.s:92     .text:0000000000000060 .L0 
     /tmp/ccpSmzXj.s:94     .text:0000000000000060 .L0 
     /tmp/ccpSmzXj.s:95     .text:0000000000000064 .L0 
     /tmp/ccpSmzXj.s:97     .text:0000000000000068 .L0 
     /tmp/ccpSmzXj.s:99     .text:000000000000006c .L0 
     /tmp/ccpSmzXj.s:103    .text:0000000000000070 .L0 
     /tmp/ccpSmzXj.s:105    .text:0000000000000070 .L0 
     /tmp/ccpSmzXj.s:106    .text:0000000000000070 .L0 
     /tmp/ccpSmzXj.s:109    .text:0000000000000074 .L0 
     /tmp/ccpSmzXj.s:116    .text:000000000000007c .L0 
     /tmp/ccpSmzXj.s:120    .text:0000000000000080 .L0 
     /tmp/ccpSmzXj.s:122    .text:0000000000000084 .L0 
     /tmp/ccpSmzXj.s:123    .text:0000000000000084 .L0 
     /tmp/ccpSmzXj.s:126    .text:000000000000008c .L0 
     /tmp/ccpSmzXj.s:129    .text:0000000000000094 .L0 
     /tmp/ccpSmzXj.s:136    .text:000000000000009c .L0 
     /tmp/ccpSmzXj.s:137    .text:000000000000009c .L0 
     /tmp/ccpSmzXj.s:138    .text:00000000000000a0 .L0 
     /tmp/ccpSmzXj.s:139    .text:00000000000000a0 .L0 
     /tmp/ccpSmzXj.s:141    .text:00000000000000a4 .L0 
     /tmp/ccpSmzXj.s:143    .text:00000000000000a8 .L0 
GAS LISTING /tmp/ccpSmzXj.s 			page 22


     /tmp/ccpSmzXj.s:154    .text:00000000000000a8 _Z4workPv
     /tmp/ccpSmzXj.s:157    .text:00000000000000a8 .L0 
     /tmp/ccpSmzXj.s:159    .text:00000000000000a8 .L0 
     /tmp/ccpSmzXj.s:160    .text:00000000000000ac .L0 
     /tmp/ccpSmzXj.s:172    .text:00000000000000d8 .L0 
     /tmp/ccpSmzXj.s:173    .text:00000000000000d8 .L0 
     /tmp/ccpSmzXj.s:174    .text:00000000000000d8 .L0 
     /tmp/ccpSmzXj.s:175    .text:00000000000000d8 .L0 
     /tmp/ccpSmzXj.s:176    .text:00000000000000d8 .L0 
     /tmp/ccpSmzXj.s:177    .text:00000000000000d8 .L0 
     /tmp/ccpSmzXj.s:178    .text:00000000000000d8 .L0 
     /tmp/ccpSmzXj.s:179    .text:00000000000000d8 .L0 
     /tmp/ccpSmzXj.s:180    .text:00000000000000d8 .L0 
     /tmp/ccpSmzXj.s:181    .text:00000000000000d8 .L0 
     /tmp/ccpSmzXj.s:182    .text:00000000000000d8 .L0 
     /tmp/ccpSmzXj.s:184    .text:00000000000000dc .L0 
     /tmp/ccpSmzXj.s:186    .text:00000000000000dc .L0 
     /tmp/ccpSmzXj.s:187    .text:00000000000000dc .L0 
     /tmp/ccpSmzXj.s:195    .text:00000000000000f4 .L0 
     /tmp/ccpSmzXj.s:196    .text:00000000000000f4 .L0 
     /tmp/ccpSmzXj.s:197    .text:00000000000000f4 .L0 
     /tmp/ccpSmzXj.s:199    .text:00000000000000f8 .L0 
     /tmp/ccpSmzXj.s:202    .text:00000000000000fc .L0 
     /tmp/ccpSmzXj.s:203    .text:00000000000000fc .L0 
     /tmp/ccpSmzXj.s:208    .text:000000000000010c .L0 
     /tmp/ccpSmzXj.s:219    .text:000000000000012c .L0 
     /tmp/ccpSmzXj.s:220    .text:000000000000012c .L0 
     /tmp/ccpSmzXj.s:222    .text:0000000000000130 .L0 
     /tmp/ccpSmzXj.s:229    .text:0000000000000140 .L0 
     /tmp/ccpSmzXj.s:232    .text:0000000000000144 .L0 
     /tmp/ccpSmzXj.s:238    .text:000000000000014c .L0 
     /tmp/ccpSmzXj.s:239    .text:000000000000014c .L0 
     /tmp/ccpSmzXj.s:242    .text:0000000000000154 .L0 
     /tmp/ccpSmzXj.s:246    .text:0000000000000160 .L0 
     /tmp/ccpSmzXj.s:248    .text:0000000000000164 .L0 
     /tmp/ccpSmzXj.s:249    .text:0000000000000164 .L0 
     /tmp/ccpSmzXj.s:251    .text:0000000000000168 .L0 
     /tmp/ccpSmzXj.s:252    .text:0000000000000168 .L0 
     /tmp/ccpSmzXj.s:258    .text:0000000000000178 .L0 
     /tmp/ccpSmzXj.s:259    .text:0000000000000178 .L0 
     /tmp/ccpSmzXj.s:262    .text:000000000000017c .L0 
     /tmp/ccpSmzXj.s:266    .text:0000000000000180 .L0 
     /tmp/ccpSmzXj.s:268    .text:0000000000000184 .L0 
     /tmp/ccpSmzXj.s:269    .text:0000000000000184 .L0 
     /tmp/ccpSmzXj.s:272    .text:000000000000018c .L0 
     /tmp/ccpSmzXj.s:274    .text:0000000000000190 .L0 
     /tmp/ccpSmzXj.s:275    .text:0000000000000190 .L0 
     /tmp/ccpSmzXj.s:277    .text:0000000000000194 .L0 
     /tmp/ccpSmzXj.s:280    .text:000000000000019c .L0 
     /tmp/ccpSmzXj.s:284    .text:00000000000001a8 .L0 
     /tmp/ccpSmzXj.s:286    .text:00000000000001ac .L0 
     /tmp/ccpSmzXj.s:287    .text:00000000000001ac .L0 
     /tmp/ccpSmzXj.s:289    .text:00000000000001b0 .L0 
     /tmp/ccpSmzXj.s:290    .text:00000000000001b0 .L0 
     /tmp/ccpSmzXj.s:294    .text:00000000000001bc .L0 
     /tmp/ccpSmzXj.s:296    .text:00000000000001c0 .L0 
     /tmp/ccpSmzXj.s:297    .text:00000000000001c0 .L0 
GAS LISTING /tmp/ccpSmzXj.s 			page 23


     /tmp/ccpSmzXj.s:304    .text:00000000000001d4 .L0 
     /tmp/ccpSmzXj.s:305    .text:00000000000001d4 .L0 
     /tmp/ccpSmzXj.s:309    .text:00000000000001e0 .L0 
     /tmp/ccpSmzXj.s:310    .text:00000000000001e0 .L0 
     /tmp/ccpSmzXj.s:315    .text:00000000000001ec .L0 
     /tmp/ccpSmzXj.s:320    .text:00000000000001f4 .L0 
     /tmp/ccpSmzXj.s:324    .text:00000000000001fc .L0 
     /tmp/ccpSmzXj.s:325    .text:00000000000001fc .L0 
     /tmp/ccpSmzXj.s:330    .text:000000000000020c .L0 
     /tmp/ccpSmzXj.s:331    .text:000000000000020c .L0 
     /tmp/ccpSmzXj.s:336    .text:000000000000021c .L0 
     /tmp/ccpSmzXj.s:340    .text:0000000000000220 .L0 
     /tmp/ccpSmzXj.s:342    .text:0000000000000224 .L0 
     /tmp/ccpSmzXj.s:343    .text:0000000000000224 .L0 
     /tmp/ccpSmzXj.s:346    .text:000000000000022c .L0 
     /tmp/ccpSmzXj.s:348    .text:0000000000000230 .L0 
     /tmp/ccpSmzXj.s:350    .text:0000000000000234 .L0 
     /tmp/ccpSmzXj.s:354    .text:000000000000023c .L0 
     /tmp/ccpSmzXj.s:357    .text:0000000000000244 .L0 
     /tmp/ccpSmzXj.s:362    .text:000000000000024c .L0 
     /tmp/ccpSmzXj.s:363    .text:000000000000024c .L0 
     /tmp/ccpSmzXj.s:367    .text:0000000000000258 .L0 
     /tmp/ccpSmzXj.s:368    .text:0000000000000258 .L0 
     /tmp/ccpSmzXj.s:372    .text:0000000000000264 .L0 
     /tmp/ccpSmzXj.s:373    .text:0000000000000268 .L0 
     /tmp/ccpSmzXj.s:375    .text:000000000000026c .L0 
     /tmp/ccpSmzXj.s:376    .text:000000000000026c .L0 
     /tmp/ccpSmzXj.s:379    .text:0000000000000270 .L0 
     /tmp/ccpSmzXj.s:381    .text:0000000000000274 .L0 
     /tmp/ccpSmzXj.s:384    .text:0000000000000278 .L0 
     /tmp/ccpSmzXj.s:387    .text:000000000000027c .L0 
     /tmp/ccpSmzXj.s:390    .text:0000000000000280 .L0 
     /tmp/ccpSmzXj.s:392    .text:0000000000000284 .L0 
     /tmp/ccpSmzXj.s:394    .text:0000000000000288 .L0 
     /tmp/ccpSmzXj.s:396    .text:000000000000028c .L0 
     /tmp/ccpSmzXj.s:398    .text:0000000000000290 .L0 
     /tmp/ccpSmzXj.s:400    .text:0000000000000294 .L0 
     /tmp/ccpSmzXj.s:403    .text:0000000000000298 .L0 
     /tmp/ccpSmzXj.s:409    .text:0000000000000298 _Z4runsPFvPvEP6data_si
     /tmp/ccpSmzXj.s:412    .text:0000000000000298 .L0 
     /tmp/ccpSmzXj.s:414    .text:0000000000000298 .L0 
     /tmp/ccpSmzXj.s:415    .text:000000000000029c .L0 
     /tmp/ccpSmzXj.s:422    .text:00000000000002b4 .L0 
     /tmp/ccpSmzXj.s:423    .text:00000000000002b4 .L0 
     /tmp/ccpSmzXj.s:424    .text:00000000000002b4 .L0 
     /tmp/ccpSmzXj.s:425    .text:00000000000002b4 .L0 
     /tmp/ccpSmzXj.s:426    .text:00000000000002b4 .L0 
     /tmp/ccpSmzXj.s:427    .text:00000000000002b4 .L0 
     /tmp/ccpSmzXj.s:429    .text:00000000000002b8 .L0 
     /tmp/ccpSmzXj.s:436    .text:00000000000002c4 .L0 
     /tmp/ccpSmzXj.s:437    .text:00000000000002c4 .L0 
     /tmp/ccpSmzXj.s:441    .text:00000000000002c8 .L0 
     /tmp/ccpSmzXj.s:444    .text:00000000000002cc .L0 
     /tmp/ccpSmzXj.s:445    .text:00000000000002cc .L0 
     /tmp/ccpSmzXj.s:446    .text:00000000000002cc .L0 
     /tmp/ccpSmzXj.s:453    .text:00000000000002e4 .L0 
     /tmp/ccpSmzXj.s:454    .text:00000000000002e4 .L0 
GAS LISTING /tmp/ccpSmzXj.s 			page 24


     /tmp/ccpSmzXj.s:456    .text:00000000000002e8 .L0 
     /tmp/ccpSmzXj.s:457    .text:00000000000002e8 .L0 
     /tmp/ccpSmzXj.s:462    .text:00000000000002f0 .L0 
     /tmp/ccpSmzXj.s:469    .text:00000000000002f8 .L0 
     /tmp/ccpSmzXj.s:470    .text:00000000000002fc .L0 
     /tmp/ccpSmzXj.s:472    .text:0000000000000300 .L0 
     /tmp/ccpSmzXj.s:473    .text:0000000000000300 .L0 
     /tmp/ccpSmzXj.s:475    .text:0000000000000304 .L0 
     /tmp/ccpSmzXj.s:478    .text:0000000000000308 .L0 
     /tmp/ccpSmzXj.s:481    .text:000000000000030c .L0 
     /tmp/ccpSmzXj.s:483    .text:0000000000000310 .L0 
     /tmp/ccpSmzXj.s:486    .text:0000000000000314 .L0 
     /tmp/ccpSmzXj.s:488    .text:0000000000000318 .L0 
     /tmp/ccpSmzXj.s:499    .text:0000000000000318 _Z5test2v
     /tmp/ccpSmzXj.s:502    .text:0000000000000318 .L0 
     /tmp/ccpSmzXj.s:503    .text:0000000000000318 .L0 
     /tmp/ccpSmzXj.s:504    .text:000000000000031c .L0 
     /tmp/ccpSmzXj.s:508    .text:0000000000000328 .L0 
     /tmp/ccpSmzXj.s:509    .text:0000000000000328 .L0 
     /tmp/ccpSmzXj.s:510    .text:0000000000000328 .L0 
     /tmp/ccpSmzXj.s:512    .text:000000000000032c .L0 
     /tmp/ccpSmzXj.s:514    .text:000000000000032c .L0 
     /tmp/ccpSmzXj.s:515    .text:000000000000032c .L0 
     /tmp/ccpSmzXj.s:524    .text:0000000000000350 .L0 
     /tmp/ccpSmzXj.s:525    .text:0000000000000350 .L0 
     /tmp/ccpSmzXj.s:526    .text:0000000000000350 .L0 
     /tmp/ccpSmzXj.s:528    .text:0000000000000354 .L0 
     /tmp/ccpSmzXj.s:529    .text:0000000000000354 .L0 
     /tmp/ccpSmzXj.s:532    .text:000000000000035c .L0 
     /tmp/ccpSmzXj.s:533    .text:000000000000035c .L0 
     /tmp/ccpSmzXj.s:539    .text:0000000000000374 .L0 
     /tmp/ccpSmzXj.s:540    .text:0000000000000374 .L0 
     /tmp/ccpSmzXj.s:544    .text:0000000000000380 .L0 
     /tmp/ccpSmzXj.s:545    .text:0000000000000384 .L0 
     /tmp/ccpSmzXj.s:547    .text:0000000000000388 .L0 
     /tmp/ccpSmzXj.s:548    .text:0000000000000388 .L0 
     /tmp/ccpSmzXj.s:550    .text:000000000000038c .L0 
     /tmp/ccpSmzXj.s:553    .text:0000000000000390 .L0 
     /tmp/ccpSmzXj.s:555    .text:0000000000000394 .L0 
     /tmp/ccpSmzXj.s:561    .text:0000000000000394 _Z4ctorPv
     /tmp/ccpSmzXj.s:565    .text:0000000000000394 .L0 
     /tmp/ccpSmzXj.s:567    .text:0000000000000394 .L0 
     /tmp/ccpSmzXj.s:568    .text:0000000000000398 .L0 
     /tmp/ccpSmzXj.s:570    .text:000000000000039c .L0 
     /tmp/ccpSmzXj.s:572    .text:00000000000003a0 .L0 
     /tmp/ccpSmzXj.s:574    .text:00000000000003a0 .L0 
     /tmp/ccpSmzXj.s:575    .text:00000000000003a0 .L0 
     /tmp/ccpSmzXj.s:578    .text:00000000000003a8 .L0 
     /tmp/ccpSmzXj.s:579    .text:00000000000003a8 .L0 
     /tmp/ccpSmzXj.s:582    .text:00000000000003b0 .L0 
     /tmp/ccpSmzXj.s:583    .text:00000000000003b0 .L0 
     /tmp/ccpSmzXj.s:586    .text:00000000000003b8 .L0 
     /tmp/ccpSmzXj.s:587    .text:00000000000003bc .L0 
     /tmp/ccpSmzXj.s:588    .text:00000000000003bc .L0 
     /tmp/ccpSmzXj.s:590    .text:00000000000003c0 .L0 
     /tmp/ccpSmzXj.s:592    .text:00000000000003c4 .L0 
     /tmp/ccpSmzXj.s:603    .text:00000000000003c4 _ZN6SystemC2Ev
GAS LISTING /tmp/ccpSmzXj.s 			page 25


     /tmp/ccpSmzXj.s:606    .text:00000000000003c4 .L0 
     /tmp/ccpSmzXj.s:608    .text:00000000000003c4 .L0 
     /tmp/ccpSmzXj.s:610    .text:00000000000003c4 .L0 
     /tmp/ccpSmzXj.s:611    .text:00000000000003c4 .L0 
     /tmp/ccpSmzXj.s:613    .text:00000000000003cc .L0 
     /tmp/ccpSmzXj.s:618    .text:00000000000003d4 .L0 
     /tmp/ccpSmzXj.s:619    .text:00000000000003d8 .L0 
     /tmp/ccpSmzXj.s:626    .text:00000000000003f0 .L0 
     /tmp/ccpSmzXj.s:627    .text:00000000000003f0 .L0 
     /tmp/ccpSmzXj.s:628    .text:00000000000003f0 .L0 
     /tmp/ccpSmzXj.s:629    .text:00000000000003f0 .L0 
     /tmp/ccpSmzXj.s:630    .text:00000000000003f0 .L0 
     /tmp/ccpSmzXj.s:631    .text:00000000000003f0 .L0 
     /tmp/ccpSmzXj.s:633    .text:00000000000003f4 .L0 
     /tmp/ccpSmzXj.s:637    .text:00000000000003f4 .L0 
     /tmp/ccpSmzXj.s:638    .text:00000000000003f4 .L0 
     /tmp/ccpSmzXj.s:641    .text:0000000000000400 .L0 
     /tmp/ccpSmzXj.s:642    .text:0000000000000400 .L0 
     /tmp/ccpSmzXj.s:645    .text:0000000000000408 .L0 
     /tmp/ccpSmzXj.s:646    .text:0000000000000408 .L0 
     /tmp/ccpSmzXj.s:656    .text:000000000000042c .L0 
     /tmp/ccpSmzXj.s:657    .text:000000000000042c .L0 
     /tmp/ccpSmzXj.s:662    .text:0000000000000438 .L0 
     /tmp/ccpSmzXj.s:663    .text:0000000000000438 .L0 
     /tmp/ccpSmzXj.s:670    .text:0000000000000448 .L0 
     /tmp/ccpSmzXj.s:671    .text:0000000000000448 .L0 
     /tmp/ccpSmzXj.s:678    .text:0000000000000458 .L0 
     /tmp/ccpSmzXj.s:680    .text:000000000000045c .L0 
     /tmp/ccpSmzXj.s:682    .text:0000000000000460 .L0 
     /tmp/ccpSmzXj.s:684    .text:0000000000000464 .L0 
     /tmp/ccpSmzXj.s:685    .text:0000000000000464 .L0 
     /tmp/ccpSmzXj.s:690    .text:0000000000000470 .L0 
     /tmp/ccpSmzXj.s:691    .text:0000000000000470 .L0 
     /tmp/ccpSmzXj.s:696    .text:0000000000000480 .L0 
     /tmp/ccpSmzXj.s:697    .text:0000000000000480 .L0 
     /tmp/ccpSmzXj.s:701    .text:000000000000048c .L0 
     /tmp/ccpSmzXj.s:702    .text:000000000000048c .L0 
     /tmp/ccpSmzXj.s:707    .text:000000000000049c .L0 
     /tmp/ccpSmzXj.s:708    .text:000000000000049c .L0 
     /tmp/ccpSmzXj.s:713    .text:00000000000004ac .L0 
     /tmp/ccpSmzXj.s:714    .text:00000000000004ac .L0 
     /tmp/ccpSmzXj.s:718    .text:00000000000004b8 .L0 
     /tmp/ccpSmzXj.s:719    .text:00000000000004b8 .L0 
     /tmp/ccpSmzXj.s:723    .text:00000000000004c4 .L0 
     /tmp/ccpSmzXj.s:724    .text:00000000000004c4 .L0 
     /tmp/ccpSmzXj.s:729    .text:00000000000004d0 .L0 
     /tmp/ccpSmzXj.s:730    .text:00000000000004d0 .L0 
     /tmp/ccpSmzXj.s:733    .text:00000000000004d8 .L0 
     /tmp/ccpSmzXj.s:734    .text:00000000000004d8 .L0 
     /tmp/ccpSmzXj.s:735    .text:00000000000004d8 .L0 
     /tmp/ccpSmzXj.s:742    .text:00000000000004f0 .L0 
     /tmp/ccpSmzXj.s:743    .text:00000000000004f0 .L0 
     /tmp/ccpSmzXj.s:744    .text:00000000000004f0 .L0 
     /tmp/ccpSmzXj.s:746    .text:00000000000004f4 .L0 
     /tmp/ccpSmzXj.s:748    .text:00000000000004f8 .L0 
     /tmp/ccpSmzXj.s:751    .text:0000000000000500 .L0 
     /tmp/ccpSmzXj.s:752    .text:0000000000000500 .L0 
GAS LISTING /tmp/ccpSmzXj.s 			page 26


     /tmp/ccpSmzXj.s:757    .text:000000000000050c .L0 
     /tmp/ccpSmzXj.s:758    .text:000000000000050c .L0 
     /tmp/ccpSmzXj.s:763    .text:0000000000000514 .L0 
     /tmp/ccpSmzXj.s:764    .text:0000000000000518 .L0 
     /tmp/ccpSmzXj.s:766    .text:000000000000051c .L0 
     /tmp/ccpSmzXj.s:767    .text:000000000000051c .L0 
     /tmp/ccpSmzXj.s:769    .text:0000000000000520 .L0 
     /tmp/ccpSmzXj.s:772    .text:0000000000000524 .L0 
     /tmp/ccpSmzXj.s:775    .text:0000000000000528 .L0 
     /tmp/ccpSmzXj.s:778    .text:000000000000052c .L0 
     /tmp/ccpSmzXj.s:781    .text:0000000000000530 .L0 
     /tmp/ccpSmzXj.s:783    .text:0000000000000534 .L0 
     /tmp/ccpSmzXj.s:603    .text:00000000000003c4 _ZN6SystemC1Ev
     /tmp/ccpSmzXj.s:809    .bss:0000000000000000 _ZN6System11initializedE
     /tmp/ccpSmzXj.s:806    .bss:0000000000000000 .LANCHOR1
     /tmp/ccpSmzXj.s:813    .data.rel.ro.local:0000000000000000 .LANCHOR0
     /tmp/ccpSmzXj.s:816    .data.rel.ro.local:0000000000000000 _ZL11CACHE_NAMES
     /tmp/ccpSmzXj.s:835    .text:0000000000000534 .L0 
     /tmp/ccpSmzXj.s:204    .text:0000000000000100 .L0 
     /tmp/ccpSmzXj.s:148    .rodata.str1.8:0000000000000000 .LC0
     /tmp/ccpSmzXj.s:297    .text:00000000000001c0 .L0 
     /tmp/ccpSmzXj.s:325    .text:00000000000001fc .L0 
     /tmp/ccpSmzXj.s:516    .text:0000000000000330 .L0 
     /tmp/ccpSmzXj.s:493    .rodata.str1.8:0000000000000018 .LC1
     /tmp/ccpSmzXj.s:518    .text:000000000000033c .L0 
     /tmp/ccpSmzXj.s:535    .text:0000000000000364 .L0 
     /tmp/ccpSmzXj.s:611    .text:00000000000003c4 .L0 
     /tmp/ccpSmzXj.s:639    .text:00000000000003f8 .L0 
     /tmp/ccpSmzXj.s:597    .rodata.str1.8:0000000000000028 .LC2
     /tmp/ccpSmzXj.s:650    .text:0000000000000418 .L0 
     /tmp/ccpSmzXj.s:736    .text:00000000000004dc .L0 
     /tmp/ccpSmzXj.s:40     .text:0000000000000024 .L1
     /tmp/ccpSmzXj.s:27     .text:0000000000000010 .L3
     /tmp/ccpSmzXj.s:118    .text:0000000000000080 .L10
     /tmp/ccpSmzXj.s:133    .text:000000000000009c .L8
     /tmp/ccpSmzXj.s:113    .text:000000000000007c .L9
     /tmp/ccpSmzXj.s:264    .text:0000000000000180 .L17
     /tmp/ccpSmzXj.s:301    .text:00000000000001d4 .L14
     /tmp/ccpSmzXj.s:235    .text:000000000000014c .L15
     /tmp/ccpSmzXj.s:256    .text:0000000000000178 .L16
     /tmp/ccpSmzXj.s:338    .text:0000000000000220 .L21
     /tmp/ccpSmzXj.s:352    .text:000000000000023c .L19
     /tmp/ccpSmzXj.s:359    .text:000000000000024c .L18
     /tmp/ccpSmzXj.s:318    .text:00000000000001f4 .L22
     /tmp/ccpSmzXj.s:328    .text:000000000000020c .L20
     /tmp/ccpSmzXj.s:322    .text:00000000000001fc .L24
     /tmp/ccpSmzXj.s:466    .text:00000000000002f8 .L25
     /tmp/ccpSmzXj.s:439    .text:00000000000002c8 .L27
     /tmp/ccpSmzXj.s:615    .text:00000000000003d4 .L42
     /tmp/ccpSmzXj.s:727    .text:00000000000004d0 .L35
     /tmp/ccpSmzXj.s:755    .text:000000000000050c .L36
     /tmp/ccpSmzXj.s:740    .text:00000000000004f0 .L37
     /tmp/ccpSmzXj.s:791    .rodata.str1.8:0000000000000030 .LC3
     /tmp/ccpSmzXj.s:794    .rodata.str1.8:0000000000000038 .LC4
     /tmp/ccpSmzXj.s:797    .rodata.str1.8:0000000000000040 .LC5
     /tmp/ccpSmzXj.s:800    .rodata.str1.8:0000000000000048 .LC6
     /tmp/ccpSmzXj.s:803    .rodata.str1.8:0000000000000050 .LC7
GAS LISTING /tmp/ccpSmzXj.s 			page 27


     /tmp/ccpSmzXj.s:3659   .debug_abbrev:0000000000000000 .Ldebug_abbrev0
     /tmp/ccpSmzXj.s:5709   .debug_str:0000000000001784 .LASF352
     /tmp/ccpSmzXj.s:5149   .debug_str:000000000000039c .LASF353
     /tmp/ccpSmzXj.s:5635   .debug_str:00000000000014a7 .LASF354
     /tmp/ccpSmzXj.s:5      .text:0000000000000000 .Ltext0
     /tmp/ccpSmzXj.s:823    .text:0000000000000534 .Letext0
     /tmp/ccpSmzXj.s:5045   .debug_line:0000000000000000 .Ldebug_line0
     /tmp/ccpSmzXj.s:5099   .debug_str:00000000000001d4 .LASF0
     /tmp/ccpSmzXj.s:5705   .debug_str:0000000000001769 .LASF1
     /tmp/ccpSmzXj.s:5641   .debug_str:0000000000001503 .LASF2
     /tmp/ccpSmzXj.s:5593   .debug_str:0000000000001365 .LASF4
     /tmp/ccpSmzXj.s:5613   .debug_str:00000000000013fd .LASF3
     /tmp/ccpSmzXj.s:5259   .debug_str:0000000000000735 .LASF5
     /tmp/ccpSmzXj.s:5323   .debug_str:00000000000009bf .LASF6
     /tmp/ccpSmzXj.s:5513   .debug_str:00000000000010d1 .LASF7
     /tmp/ccpSmzXj.s:5145   .debug_str:000000000000036f .LASF8
     /tmp/ccpSmzXj.s:5687   .debug_str:0000000000001687 .LASF9
     /tmp/ccpSmzXj.s:5265   .debug_str:0000000000000753 .LASF10
     /tmp/ccpSmzXj.s:5189   .debug_str:00000000000004d1 .LASF11
     /tmp/ccpSmzXj.s:5347   .debug_str:0000000000000ab8 .LASF12
     /tmp/ccpSmzXj.s:5275   .debug_str:00000000000007a8 .LASF13
     /tmp/ccpSmzXj.s:5565   .debug_str:00000000000012af .LASF14
     /tmp/ccpSmzXj.s:5283   .debug_str:00000000000007f6 .LASF15
     /tmp/ccpSmzXj.s:5235   .debug_str:0000000000000690 .LASF16
     /tmp/ccpSmzXj.s:5315   .debug_str:000000000000096c .LASF17
     /tmp/ccpSmzXj.s:5619   .debug_str:0000000000001424 .LASF18
     /tmp/ccpSmzXj.s:5747   .debug_str:000000000000195b .LASF19
     /tmp/ccpSmzXj.s:5201   .debug_str:0000000000000517 .LASF20
     /tmp/ccpSmzXj.s:5057   .debug_str:0000000000000054 .LASF21
     /tmp/ccpSmzXj.s:5745   .debug_str:000000000000194d .LASF22
     /tmp/ccpSmzXj.s:5389   .debug_str:0000000000000c57 .LASF23
     /tmp/ccpSmzXj.s:5491   .debug_str:000000000000104e .LASF24
     /tmp/ccpSmzXj.s:5239   .debug_str:00000000000006d1 .LASF26
     /tmp/ccpSmzXj.s:5137   .debug_str:0000000000000304 .LASF104
     /tmp/ccpSmzXj.s:5163   .debug_str:0000000000000406 .LASF25
     /tmp/ccpSmzXj.s:5091   .debug_str:0000000000000182 .LASF27
     /tmp/ccpSmzXj.s:5173   .debug_str:000000000000044c .LASF28
     /tmp/ccpSmzXj.s:5637   .debug_str:00000000000014d8 .LASF29
     /tmp/ccpSmzXj.s:5573   .debug_str:00000000000012d2 .LASF30
     /tmp/ccpSmzXj.s:5505   .debug_str:000000000000109d .LASF31
     /tmp/ccpSmzXj.s:5429   .debug_str:0000000000000db5 .LASF33
     /tmp/ccpSmzXj.s:5311   .debug_str:0000000000000938 .LASF32
     /tmp/ccpSmzXj.s:5691   .debug_str:000000000000169a .LASF34
     /tmp/ccpSmzXj.s:5143   .debug_str:0000000000000354 .LASF35
     /tmp/ccpSmzXj.s:5339   .debug_str:0000000000000a3e .LASF36
     /tmp/ccpSmzXj.s:5207   .debug_str:000000000000053c .LASF37
     /tmp/ccpSmzXj.s:5639   .debug_str:00000000000014dd .LASF38
     /tmp/ccpSmzXj.s:5449   .debug_str:0000000000000e6f .LASF39
     /tmp/ccpSmzXj.s:5483   .debug_str:0000000000000ffc .LASF40
     /tmp/ccpSmzXj.s:5095   .debug_str:00000000000001ab .LASF41
     /tmp/ccpSmzXj.s:5295   .debug_str:0000000000000855 .LASF42
     /tmp/ccpSmzXj.s:5303   .debug_str:00000000000008d9 .LASF43
     /tmp/ccpSmzXj.s:5655   .debug_str:0000000000001558 .LASF44
     /tmp/ccpSmzXj.s:5465   .debug_str:0000000000000ee0 .LASF45
     /tmp/ccpSmzXj.s:5233   .debug_str:000000000000066d .LASF46
     /tmp/ccpSmzXj.s:5211   .debug_str:0000000000000562 .LASF47
     /tmp/ccpSmzXj.s:5663   .debug_str:00000000000015ba .LASF48
GAS LISTING /tmp/ccpSmzXj.s 			page 28


     /tmp/ccpSmzXj.s:5733   .debug_str:00000000000018f5 .LASF49
     /tmp/ccpSmzXj.s:5471   .debug_str:0000000000000f34 .LASF50
     /tmp/ccpSmzXj.s:5125   .debug_str:00000000000002ab .LASF51
     /tmp/ccpSmzXj.s:5469   .debug_str:0000000000000f0f .LASF52
     /tmp/ccpSmzXj.s:5659   .debug_str:0000000000001594 .LASF53
     /tmp/ccpSmzXj.s:5299   .debug_str:00000000000008a8 .LASF54
     /tmp/ccpSmzXj.s:5171   .debug_str:0000000000000439 .LASF55
     /tmp/ccpSmzXj.s:5365   .debug_str:0000000000000b59 .LASF56
     /tmp/ccpSmzXj.s:5325   .debug_str:00000000000009d2 .LASF57
     /tmp/ccpSmzXj.s:5387   .debug_str:0000000000000c37 .LASF58
     /tmp/ccpSmzXj.s:5067   .debug_str:00000000000000b1 .LASF59
     /tmp/ccpSmzXj.s:5695   .debug_str:00000000000016db .LASF60
     /tmp/ccpSmzXj.s:5731   .debug_str:00000000000018dc .LASF61
     /tmp/ccpSmzXj.s:5269   .debug_str:000000000000076c .LASF62
     /tmp/ccpSmzXj.s:5289   .debug_str:0000000000000827 .LASF63
     /tmp/ccpSmzXj.s:5441   .debug_str:0000000000000e12 .LASF64
     /tmp/ccpSmzXj.s:5047   .debug_str:0000000000000000 .LASF65
     /tmp/ccpSmzXj.s:5599   .debug_str:000000000000139c .LASF66
     /tmp/ccpSmzXj.s:5671   .debug_str:0000000000001625 .LASF67
     /tmp/ccpSmzXj.s:5579   .debug_str:00000000000012f0 .LASF69
     /tmp/ccpSmzXj.s:5535   .debug_str:00000000000011d6 .LASF68
     /tmp/ccpSmzXj.s:5427   .debug_str:0000000000000d89 .LASF70
     /tmp/ccpSmzXj.s:5085   .debug_str:0000000000000147 .LASF71
     /tmp/ccpSmzXj.s:5529   .debug_str:0000000000001176 .LASF72
     /tmp/ccpSmzXj.s:5631   .debug_str:000000000000148b .LASF73
     /tmp/ccpSmzXj.s:5069   .debug_str:00000000000000c8 .LASF74
     /tmp/ccpSmzXj.s:5737   .debug_str:0000000000001911 .LASF77
     /tmp/ccpSmzXj.s:5547   .debug_str:000000000000122e .LASF79
     /tmp/ccpSmzXj.s:5553   .debug_str:000000000000125a .LASF75
     /tmp/ccpSmzXj.s:5657   .debug_str:000000000000157f .LASF76
     /tmp/ccpSmzXj.s:5203   .debug_str:0000000000000525 .LASF78
     /tmp/ccpSmzXj.s:5591   .debug_str:0000000000001352 .LASF80
     /tmp/ccpSmzXj.s:5255   .debug_str:000000000000071a .LASF81
     /tmp/ccpSmzXj.s:5395   .debug_str:0000000000000c74 .LASF82
     /tmp/ccpSmzXj.s:5707   .debug_str:000000000000177c .LASF83
     /tmp/ccpSmzXj.s:5257   .debug_str:0000000000000721 .LASF84
     /tmp/ccpSmzXj.s:5557   .debug_str:000000000000127b .LASF85
     /tmp/ccpSmzXj.s:5561   .debug_str:000000000000128c .LASF86
     /tmp/ccpSmzXj.s:5271   .debug_str:0000000000000792 .LASF87
     /tmp/ccpSmzXj.s:5425   .debug_str:0000000000000d73 .LASF88
     /tmp/ccpSmzXj.s:5245   .debug_str:00000000000006ef .LASF89
     /tmp/ccpSmzXj.s:5485   .debug_str:0000000000001026 .LASF90
     /tmp/ccpSmzXj.s:5415   .debug_str:0000000000000d05 .LASF91
     /tmp/ccpSmzXj.s:5757   .debug_str:00000000000019ab .LASF92
     /tmp/ccpSmzXj.s:5131   .debug_str:00000000000002de .LASF93
     /tmp/ccpSmzXj.s:5597   .debug_str:0000000000001384 .LASF94
     /tmp/ccpSmzXj.s:5653   .debug_str:0000000000001551 .LASF95
     /tmp/ccpSmzXj.s:5231   .debug_str:000000000000065a .LASF96
     /tmp/ccpSmzXj.s:5249   .debug_str:0000000000000704 .LASF97
     /tmp/ccpSmzXj.s:5285   .debug_str:000000000000080c .LASF98
     /tmp/ccpSmzXj.s:5643   .debug_str:0000000000001511 .LASF99
     /tmp/ccpSmzXj.s:5141   .debug_str:0000000000000341 .LASF100
     /tmp/ccpSmzXj.s:5317   .debug_str:0000000000000971 .LASF101
     /tmp/ccpSmzXj.s:5751   .debug_str:000000000000196f .LASF102
     /tmp/ccpSmzXj.s:5291   .debug_str:0000000000000843 .LASF103
     /tmp/ccpSmzXj.s:5421   .debug_str:0000000000000d39 .LASF105
     /tmp/ccpSmzXj.s:5081   .debug_str:000000000000012f .LASF106
GAS LISTING /tmp/ccpSmzXj.s 			page 29


     /tmp/ccpSmzXj.s:5185   .debug_str:00000000000004aa .LASF107
     /tmp/ccpSmzXj.s:5183   .debug_str:000000000000049d .LASF108
     /tmp/ccpSmzXj.s:5629   .debug_str:0000000000001471 .LASF109
     /tmp/ccpSmzXj.s:5647   .debug_str:0000000000001525 .LASF110
     /tmp/ccpSmzXj.s:5767   .debug_str:0000000000001a0b .LASF111
     /tmp/ccpSmzXj.s:5361   .debug_str:0000000000000b38 .LASF112
     /tmp/ccpSmzXj.s:5357   .debug_str:0000000000000b10 .LASF113
     /tmp/ccpSmzXj.s:5381   .debug_str:0000000000000c17 .LASF114
     /tmp/ccpSmzXj.s:5313   .debug_str:000000000000094e .LASF115
     /tmp/ccpSmzXj.s:5693   .debug_str:00000000000016bd .LASF116
     /tmp/ccpSmzXj.s:5179   .debug_str:0000000000000466 .LASF117
     /tmp/ccpSmzXj.s:5515   .debug_str:00000000000010e4 .LASF118
     /tmp/ccpSmzXj.s:5495   .debug_str:000000000000105b .LASF119
     /tmp/ccpSmzXj.s:5273   .debug_str:000000000000079c .LASF120
     /tmp/ccpSmzXj.s:5467   .debug_str:0000000000000ef6 .LASF121
     /tmp/ccpSmzXj.s:5489   .debug_str:0000000000001048 .LASF122
     /tmp/ccpSmzXj.s:5407   .debug_str:0000000000000ccd .LASF123
     /tmp/ccpSmzXj.s:5543   .debug_str:0000000000001201 .LASF124
     /tmp/ccpSmzXj.s:5319   .debug_str:0000000000000978 .LASF125
     /tmp/ccpSmzXj.s:5105   .debug_str:00000000000001ed .LASF126
     /tmp/ccpSmzXj.s:5371   .debug_str:0000000000000ba4 .LASF127
     /tmp/ccpSmzXj.s:5769   .debug_str:0000000000001a2c .LASF128
     /tmp/ccpSmzXj.s:5669   .debug_str:0000000000001607 .LASF129
     /tmp/ccpSmzXj.s:5759   .debug_str:00000000000019c3 .LASF130
     /tmp/ccpSmzXj.s:5623   .debug_str:0000000000001437 .LASF131
     /tmp/ccpSmzXj.s:5753   .debug_str:0000000000001982 .LASF132
     /tmp/ccpSmzXj.s:5479   .debug_str:0000000000000faf .LASF133
     /tmp/ccpSmzXj.s:5065   .debug_str:0000000000000097 .LASF134
     /tmp/ccpSmzXj.s:5297   .debug_str:0000000000000881 .LASF135
     /tmp/ccpSmzXj.s:5223   .debug_str:00000000000005f1 .LASF136
     /tmp/ccpSmzXj.s:5697   .debug_str:00000000000016ff .LASF137
     /tmp/ccpSmzXj.s:5119   .debug_str:0000000000000245 .LASF138
     /tmp/ccpSmzXj.s:5711   .debug_str:0000000000001854 .LASF139
     /tmp/ccpSmzXj.s:5109   .debug_str:000000000000020c .LASF140
     /tmp/ccpSmzXj.s:5665   .debug_str:00000000000015de .LASF141
     /tmp/ccpSmzXj.s:5261   .debug_str:000000000000073c .LASF142
     /tmp/ccpSmzXj.s:5595   .debug_str:000000000000136c .LASF143
     /tmp/ccpSmzXj.s:5667   .debug_str:00000000000015fe .LASF144
     /tmp/ccpSmzXj.s:5517   .debug_str:00000000000010ef .LASF145
     /tmp/ccpSmzXj.s:5353   .debug_str:0000000000000af5 .LASF146
     /tmp/ccpSmzXj.s:5723   .debug_str:00000000000018ba .LASF147
     /tmp/ccpSmzXj.s:5309   .debug_str:000000000000092b .LASF148
     /tmp/ccpSmzXj.s:5377   .debug_str:0000000000000bf3 .LASF149
     /tmp/ccpSmzXj.s:5399   .debug_str:0000000000000c8e .LASF150
     /tmp/ccpSmzXj.s:5531   .debug_str:0000000000001192 .LASF151
     /tmp/ccpSmzXj.s:5571   .debug_str:00000000000012c5 .LASF152
     /tmp/ccpSmzXj.s:5367   .debug_str:0000000000000b79 .LASF153
     /tmp/ccpSmzXj.s:5355   .debug_str:0000000000000afc .LASF355
     /tmp/ccpSmzXj.s:5089   .debug_str:0000000000000160 .LASF356
     /tmp/ccpSmzXj.s:5503   .debug_str:0000000000001095 .LASF308
     /tmp/ccpSmzXj.s:5103   .debug_str:00000000000001e6 .LASF158
     /tmp/ccpSmzXj.s:5287   .debug_str:000000000000081f .LASF154
     /tmp/ccpSmzXj.s:5385   .debug_str:0000000000000c31 .LASF155
     /tmp/ccpSmzXj.s:5373   .debug_str:0000000000000bc6 .LASF156
     /tmp/ccpSmzXj.s:5577   .debug_str:00000000000012e8 .LASF157
     /tmp/ccpSmzXj.s:5511   .debug_str:00000000000010cc .LASF159
     /tmp/ccpSmzXj.s:5151   .debug_str:00000000000003b2 .LASF160
GAS LISTING /tmp/ccpSmzXj.s 			page 30


     /tmp/ccpSmzXj.s:5621   .debug_str:000000000000142c .LASF161
     /tmp/ccpSmzXj.s:5049   .debug_str:0000000000000013 .LASF162
     /tmp/ccpSmzXj.s:5193   .debug_str:00000000000004e5 .LASF163
     /tmp/ccpSmzXj.s:5689   .debug_str:0000000000001695 .LASF164
     /tmp/ccpSmzXj.s:5713   .debug_str:0000000000001878 .LASF165
     /tmp/ccpSmzXj.s:5433   .debug_str:0000000000000de1 .LASF166
     /tmp/ccpSmzXj.s:5651   .debug_str:0000000000001549 .LASF167
     /tmp/ccpSmzXj.s:5169   .debug_str:0000000000000426 .LASF168
     /tmp/ccpSmzXj.s:5459   .debug_str:0000000000000eb2 .LASF169
     /tmp/ccpSmzXj.s:5301   .debug_str:00000000000008cd .LASF170
     /tmp/ccpSmzXj.s:5455   .debug_str:0000000000000e9d .LASF171
     /tmp/ccpSmzXj.s:5113   .debug_str:0000000000000221 .LASF172
     /tmp/ccpSmzXj.s:5293   .debug_str:0000000000000850 .LASF173
     /tmp/ccpSmzXj.s:5617   .debug_str:0000000000001415 .LASF174
     /tmp/ccpSmzXj.s:5359   .debug_str:0000000000000b2f .LASF175
     /tmp/ccpSmzXj.s:5445   .debug_str:0000000000000e54 .LASF176
     /tmp/ccpSmzXj.s:5627   .debug_str:000000000000145b .LASF177
     /tmp/ccpSmzXj.s:5111   .debug_str:000000000000021c .LASF178
     /tmp/ccpSmzXj.s:5497   .debug_str:0000000000001073 .LASF179
     /tmp/ccpSmzXj.s:5199   .debug_str:0000000000000512 .LASF180
     /tmp/ccpSmzXj.s:5205   .debug_str:000000000000052c .LASF181
     /tmp/ccpSmzXj.s:5267   .debug_str:0000000000000762 .LASF182
     /tmp/ccpSmzXj.s:5133   .debug_str:00000000000002e9 .LASF183
     /tmp/ccpSmzXj.s:5681   .debug_str:0000000000001660 .LASF184
     /tmp/ccpSmzXj.s:5219   .debug_str:00000000000005a0 .LASF185
     /tmp/ccpSmzXj.s:5075   .debug_str:000000000000010f .LASF186
     /tmp/ccpSmzXj.s:5555   .debug_str:0000000000001263 .LASF187
     /tmp/ccpSmzXj.s:5447   .debug_str:0000000000000e67 .LASF188
     /tmp/ccpSmzXj.s:5343   .debug_str:0000000000000a8c .LASF189
     /tmp/ccpSmzXj.s:5155   .debug_str:00000000000003df .LASF190
     /tmp/ccpSmzXj.s:5625   .debug_str:0000000000001456 .LASF191
     /tmp/ccpSmzXj.s:5457   .debug_str:0000000000000ead .LASF192
     /tmp/ccpSmzXj.s:5587   .debug_str:000000000000133c .LASF193
     /tmp/ccpSmzXj.s:5077   .debug_str:000000000000011b .LASF194
     /tmp/ccpSmzXj.s:5253   .debug_str:0000000000000715 .LASF195
     /tmp/ccpSmzXj.s:5431   .debug_str:0000000000000dd9 .LASF196
     /tmp/ccpSmzXj.s:5101   .debug_str:00000000000001e1 .LASF197
     /tmp/ccpSmzXj.s:5097   .debug_str:00000000000001ca .LASF198
     /tmp/ccpSmzXj.s:5383   .debug_str:0000000000000c28 .LASF199
     /tmp/ccpSmzXj.s:5633   .debug_str:000000000000149e .LASF200
     /tmp/ccpSmzXj.s:5451   .debug_str:0000000000000e8c .LASF201
     /tmp/ccpSmzXj.s:5721   .debug_str:00000000000018b2 .LASF202
     /tmp/ccpSmzXj.s:5741   .debug_str:0000000000001926 .LASF203
     /tmp/ccpSmzXj.s:5649   .debug_str:0000000000001538 .LASF204
     /tmp/ccpSmzXj.s:5715   .debug_str:000000000000187d .LASF205
     /tmp/ccpSmzXj.s:5581   .debug_str:000000000000130a .LASF206
     /tmp/ccpSmzXj.s:5755   .debug_str:000000000000199b .LASF207
     /tmp/ccpSmzXj.s:5129   .debug_str:00000000000002cc .LASF208
     /tmp/ccpSmzXj.s:5195   .debug_str:00000000000004fc .LASF209
     /tmp/ccpSmzXj.s:5175   .debug_str:0000000000000451 .LASF210
     /tmp/ccpSmzXj.s:5761   .debug_str:00000000000019d5 .LASF211
     /tmp/ccpSmzXj.s:5213   .debug_str:0000000000000579 .LASF212
     /tmp/ccpSmzXj.s:5609   .debug_str:00000000000013e6 .LASF213
     /tmp/ccpSmzXj.s:5463   .debug_str:0000000000000ed6 .LASF214
     /tmp/ccpSmzXj.s:5391   .debug_str:0000000000000c5c .LASF215
     /tmp/ccpSmzXj.s:5063   .debug_str:000000000000008c .LASF216
     /tmp/ccpSmzXj.s:5215   .debug_str:0000000000000585 .LASF217
GAS LISTING /tmp/ccpSmzXj.s 			page 31


     /tmp/ccpSmzXj.s:5645   .debug_str:0000000000001518 .LASF218
     /tmp/ccpSmzXj.s:5079   .debug_str:0000000000000125 .LASF219
     /tmp/ccpSmzXj.s:5603   .debug_str:00000000000013cc .LASF220
     /tmp/ccpSmzXj.s:5611   .debug_str:00000000000013f2 .LASF221
     /tmp/ccpSmzXj.s:5083   .debug_str:000000000000013c .LASF222
     /tmp/ccpSmzXj.s:5679   .debug_str:0000000000001657 .LASF223
     /tmp/ccpSmzXj.s:5583   .debug_str:0000000000001312 .LASF224
     /tmp/ccpSmzXj.s:5521   .debug_str:0000000000001110 .LASF225
     /tmp/ccpSmzXj.s:5071   .debug_str:00000000000000e8 .LASF226
     /tmp/ccpSmzXj.s:5417   .debug_str:0000000000000d10 .LASF227
     /tmp/ccpSmzXj.s:5147   .debug_str:000000000000037f .LASF228
     /tmp/ccpSmzXj.s:5107   .debug_str:0000000000000202 .LASF229
     /tmp/ccpSmzXj.s:5765   .debug_str:00000000000019ee .LASF230
     /tmp/ccpSmzXj.s:5419   .debug_str:0000000000000d1a .LASF231
     /tmp/ccpSmzXj.s:5601   .debug_str:00000000000013bc .LASF232
     /tmp/ccpSmzXj.s:5375   .debug_str:0000000000000bcf .LASF233
     /tmp/ccpSmzXj.s:5127   .debug_str:00000000000002c3 .LASF234
     /tmp/ccpSmzXj.s:5545   .debug_str:0000000000001210 .LASF235
     /tmp/ccpSmzXj.s:5519   .debug_str:0000000000001104 .LASF236
     /tmp/ccpSmzXj.s:5473   .debug_str:0000000000000f57 .LASF237
     /tmp/ccpSmzXj.s:5493   .debug_str:0000000000001055 .LASF238
     /tmp/ccpSmzXj.s:5423   .debug_str:0000000000000d53 .LASF239
     /tmp/ccpSmzXj.s:5337   .debug_str:0000000000000a31 .LASF240
     /tmp/ccpSmzXj.s:5453   .debug_str:0000000000000e97 .LASF241
     /tmp/ccpSmzXj.s:5575   .debug_str:00000000000012e3 .LASF242
     /tmp/ccpSmzXj.s:5437   .debug_str:0000000000000df8 .LASF243
     /tmp/ccpSmzXj.s:5061   .debug_str:0000000000000083 .LASF244
     /tmp/ccpSmzXj.s:5329   .debug_str:00000000000009f5 .LASF245
     /tmp/ccpSmzXj.s:5157   .debug_str:00000000000003e4 .LASF246
     /tmp/ccpSmzXj.s:5675   .debug_str:000000000000163c .LASF247
     /tmp/ccpSmzXj.s:5559   .debug_str:0000000000001283 .LASF248
     /tmp/ccpSmzXj.s:5569   .debug_str:00000000000012c0 .LASF249
     /tmp/ccpSmzXj.s:5397   .debug_str:0000000000000c87 .LASF250
     /tmp/ccpSmzXj.s:5551   .debug_str:0000000000001248 .LASF252
     /tmp/ccpSmzXj.s:5539   .debug_str:00000000000011ec .LASF251
     /tmp/ccpSmzXj.s:5685   .debug_str:0000000000001674 .LASF253
     /tmp/ccpSmzXj.s:5117   .debug_str:0000000000000240 .LASF254
     /tmp/ccpSmzXj.s:5563   .debug_str:00000000000012a0 .LASF255
     /tmp/ccpSmzXj.s:5327   .debug_str:00000000000009e5 .LASF256
     /tmp/ccpSmzXj.s:5507   .debug_str:00000000000010b4 .LASF257
     /tmp/ccpSmzXj.s:5763   .debug_str:00000000000019e1 .LASF258
     /tmp/ccpSmzXj.s:5499   .debug_str:0000000000001083 .LASF259
     /tmp/ccpSmzXj.s:5661   .debug_str:00000000000015ac .LASF260
     /tmp/ccpSmzXj.s:5059   .debug_str:0000000000000060 .LASF261
     /tmp/ccpSmzXj.s:5487   .debug_str:000000000000103c .LASF264
     /tmp/ccpSmzXj.s:5525   .debug_str:0000000000001143 .LASF266
     /tmp/ccpSmzXj.s:5161   .debug_str:00000000000003fa .LASF262
     /tmp/ccpSmzXj.s:5331   .debug_str:00000000000009fd .LASF263
     /tmp/ccpSmzXj.s:5187   .debug_str:00000000000004c4 .LASF265
     /tmp/ccpSmzXj.s:5229   .debug_str:0000000000000631 .LASF267
     /tmp/ccpSmzXj.s:5243   .debug_str:00000000000006e3 .LASF268
     /tmp/ccpSmzXj.s:5153   .debug_str:00000000000003b7 .LASF269
     /tmp/ccpSmzXj.s:5209   .debug_str:0000000000000555 .LASF270
     /tmp/ccpSmzXj.s:5533   .debug_str:00000000000011ae .LASF271
     /tmp/ccpSmzXj.s:5677   .debug_str:0000000000001648 .LASF272
     /tmp/ccpSmzXj.s:5237   .debug_str:00000000000006a6 .LASF273
     /tmp/ccpSmzXj.s:5475   .debug_str:0000000000000f79 .LASF274
GAS LISTING /tmp/ccpSmzXj.s 			page 32


     /tmp/ccpSmzXj.s:5345   .debug_str:0000000000000a93 .LASF275
     /tmp/ccpSmzXj.s:5605   .debug_str:00000000000013d6 .LASF276
     /tmp/ccpSmzXj.s:5403   .debug_str:0000000000000ca4 .LASF277
     /tmp/ccpSmzXj.s:5435   .debug_str:0000000000000ded .LASF278
     /tmp/ccpSmzXj.s:5523   .debug_str:0000000000001119 .LASF279
     /tmp/ccpSmzXj.s:5247   .debug_str:00000000000006f9 .LASF280
     /tmp/ccpSmzXj.s:5349   .debug_str:0000000000000ac8 .LASF281
     /tmp/ccpSmzXj.s:5351   .debug_str:0000000000000aeb .LASF282
     /tmp/ccpSmzXj.s:5277   .debug_str:00000000000007b8 .LASF283
     /tmp/ccpSmzXj.s:5073   .debug_str:0000000000000104 .LASF284
     /tmp/ccpSmzXj.s:5481   .debug_str:0000000000000fd5 .LASF285
     /tmp/ccpSmzXj.s:5281   .debug_str:00000000000007e4 .LASF286
     /tmp/ccpSmzXj.s:5139   .debug_str:0000000000000313 .LASF287
     /tmp/ccpSmzXj.s:5333   .debug_str:0000000000000a26 .LASF288
     /tmp/ccpSmzXj.s:5683   .debug_str:000000000000166e .LASF289
     /tmp/ccpSmzXj.s:5217   .debug_str:0000000000000591 .LASF290
     /tmp/ccpSmzXj.s:5393   .debug_str:0000000000000c65 .LASF291
     /tmp/ccpSmzXj.s:5703   .debug_str:000000000000173b .LASF292
     /tmp/ccpSmzXj.s:5439   .debug_str:0000000000000e03 .LASF293
     /tmp/ccpSmzXj.s:5305   .debug_str:00000000000008f3 .LASF294
     /tmp/ccpSmzXj.s:5527   .debug_str:0000000000001171 .LASF295
     /tmp/ccpSmzXj.s:5341   .debug_str:0000000000000a66 .LASF296
     /tmp/ccpSmzXj.s:5509   .debug_str:00000000000010be .LASF297
     /tmp/ccpSmzXj.s:5221   .debug_str:00000000000005c8 .LASF298
     /tmp/ccpSmzXj.s:5585   .debug_str:000000000000132e .LASF299
     /tmp/ccpSmzXj.s:5053   .debug_str:0000000000000026 .LASF300
     /tmp/ccpSmzXj.s:5369   .debug_str:0000000000000b93 .LASF301
     /tmp/ccpSmzXj.s:5121   .debug_str:000000000000025c .LASF302
     /tmp/ccpSmzXj.s:5413   .debug_str:0000000000000cf8 .LASF303
     /tmp/ccpSmzXj.s:5321   .debug_str:0000000000000994 .LASF304
     /tmp/ccpSmzXj.s:5501   .debug_str:000000000000108a .LASF305
     /tmp/ccpSmzXj.s:5477   .debug_str:0000000000000f88 .LASF306
     /tmp/ccpSmzXj.s:5411   .debug_str:0000000000000cf2 .LASF307
     /tmp/ccpSmzXj.s:5051   .debug_str:000000000000001f .LASF309
     /tmp/ccpSmzXj.s:5607   .debug_str:00000000000013df .LASF310
     /tmp/ccpSmzXj.s:5673   .debug_str:0000000000001631 .LASF311
     /tmp/ccpSmzXj.s:5181   .debug_str:0000000000000491 .LASF312
     /tmp/ccpSmzXj.s:5167   .debug_str:000000000000041c .LASF313
     /tmp/ccpSmzXj.s:5335   .debug_str:0000000000000a2c .LASF314
     /tmp/ccpSmzXj.s:5443   .debug_str:0000000000000e3b .LASF357
     /tmp/ccpSmzXj.s:5567   .debug_str:00000000000012bb .LASF315
     /tmp/ccpSmzXj.s:5197   .debug_str:000000000000050d .LASF358
     /tmp/ccpSmzXj.s:5055   .debug_str:000000000000004f .LASF316
     /tmp/ccpSmzXj.s:5725   .debug_str:00000000000018cd .LASF317
     /tmp/ccpSmzXj.s:5727   .debug_str:00000000000018d2 .LASF318
     /tmp/ccpSmzXj.s:5729   .debug_str:00000000000018d7 .LASF319
     /tmp/ccpSmzXj.s:5227   .debug_str:0000000000000622 .LASF320
     /tmp/ccpSmzXj.s:5363   .debug_str:0000000000000b4a .LASF359
     /tmp/ccpSmzXj.s:604    .text:00000000000003c4 .LFB55
     /tmp/ccpSmzXj.s:784    .text:0000000000000534 .LFE55
     /tmp/ccpSmzXj.s:4718   .debug_loc:0000000000000000 .LLST16
     /tmp/ccpSmzXj.s:643    .text:0000000000000408 .LVL61
     /tmp/ccpSmzXj.s:652    .text:0000000000000428 .LVL62
     /tmp/ccpSmzXj.s:658    .text:0000000000000434 .LVL64
     /tmp/ccpSmzXj.s:666    .text:0000000000000444 .LVL67
     /tmp/ccpSmzXj.s:674    .text:0000000000000454 .LVL70
     /tmp/ccpSmzXj.s:688    .text:0000000000000470 .LVL73
GAS LISTING /tmp/ccpSmzXj.s 			page 33


     /tmp/ccpSmzXj.s:694    .text:0000000000000480 .LVL74
     /tmp/ccpSmzXj.s:699    .text:000000000000048c .LVL75
     /tmp/ccpSmzXj.s:705    .text:000000000000049c .LVL76
     /tmp/ccpSmzXj.s:711    .text:00000000000004ac .LVL77
     /tmp/ccpSmzXj.s:716    .text:00000000000004b8 .LVL78
     /tmp/ccpSmzXj.s:721    .text:00000000000004c4 .LVL79
     /tmp/ccpSmzXj.s:726    .text:00000000000004d0 .LVL80
     /tmp/ccpSmzXj.s:731    .text:00000000000004d8 .LVL81
     /tmp/ccpSmzXj.s:739    .text:00000000000004f0 .LVL82
     /tmp/ccpSmzXj.s:753    .text:0000000000000508 .LVL83
     /tmp/ccpSmzXj.s:759    .text:0000000000000514 .LVL84
     /tmp/ccpSmzXj.s:635    .text:00000000000003f4 .LBB11
     /tmp/ccpSmzXj.s:760    .text:0000000000000514 .LBE11
     /tmp/ccpSmzXj.s:4732   .debug_loc:0000000000000039 .LLST17
     /tmp/ccpSmzXj.s:4739   .debug_loc:000000000000005c .LLST18
     /tmp/ccpSmzXj.s:4750   .debug_loc:0000000000000092 .LLST19
     /tmp/ccpSmzXj.s:4761   .debug_loc:00000000000000c8 .LLST20
     /tmp/ccpSmzXj.s:5087   .debug_str:0000000000000156 .LASF321
     /tmp/ccpSmzXj.s:562    .text:0000000000000394 .LFB53
     /tmp/ccpSmzXj.s:593    .text:00000000000003c4 .LFE53
     /tmp/ccpSmzXj.s:5735   .debug_str:000000000000190b .LASF322
     /tmp/ccpSmzXj.s:5251   .debug_str:000000000000070b .LASF323
     /tmp/ccpSmzXj.s:500    .text:0000000000000318 .LFB52
     /tmp/ccpSmzXj.s:556    .text:0000000000000394 .LFE52
     /tmp/ccpSmzXj.s:4772   .debug_loc:00000000000000fe .LLST15
     /tmp/ccpSmzXj.s:520    .text:000000000000034c .LVL54
     /tmp/ccpSmzXj.s:537    .text:0000000000000374 .LVL56
     /tmp/ccpSmzXj.s:542    .text:0000000000000380 .LVL57
     /tmp/ccpSmzXj.s:5537   .debug_str:00000000000011e7 .LASF324
     /tmp/ccpSmzXj.s:5461   .debug_str:0000000000000ebf .LASF325
     /tmp/ccpSmzXj.s:410    .text:0000000000000298 .LFB51
     /tmp/ccpSmzXj.s:489    .text:0000000000000318 .LFE51
     /tmp/ccpSmzXj.s:5549   .debug_str:0000000000001243 .LASF326
     /tmp/ccpSmzXj.s:4779   .debug_loc:0000000000000121 .LLST11
     /tmp/ccpSmzXj.s:4797   .debug_loc:000000000000016d .LLST12
     /tmp/ccpSmzXj.s:4815   .debug_loc:00000000000001b9 .LLST13
     /tmp/ccpSmzXj.s:435    .text:00000000000002c4 .LBB8
     /tmp/ccpSmzXj.s:467    .text:00000000000002f8 .LBE8
     /tmp/ccpSmzXj.s:4829   .debug_loc:00000000000001f2 .LLST14
     /tmp/ccpSmzXj.s:442    .text:00000000000002cc .LBB9
     /tmp/ccpSmzXj.s:460    .text:00000000000002f0 .LBE9
     /tmp/ccpSmzXj.s:5541   .debug_str:00000000000011f4 .LASF327
     /tmp/ccpSmzXj.s:459    .text:00000000000002f0 .LVL48
     /tmp/ccpSmzXj.s:5307   .debug_str:0000000000000921 .LASF328
     /tmp/ccpSmzXj.s:155    .text:00000000000000a8 .LFB50
     /tmp/ccpSmzXj.s:404    .text:0000000000000298 .LFE50
     /tmp/ccpSmzXj.s:5615   .debug_str:000000000000140f .LASF329
     /tmp/ccpSmzXj.s:4845   .debug_loc:000000000000023c .LLST5
     /tmp/ccpSmzXj.s:5191   .debug_str:00000000000004e0 .LASF330
     /tmp/ccpSmzXj.s:4859   .debug_loc:0000000000000275 .LLST6
     /tmp/ccpSmzXj.s:5263   .debug_str:0000000000000747 .LASF331
     /tmp/ccpSmzXj.s:4875   .debug_loc:00000000000002bf .LLST7
     /tmp/ccpSmzXj.s:4924   .debug_loc:000000000000034a .LLST8
     /tmp/ccpSmzXj.s:5405   .debug_str:0000000000000cc8 .LASF332
     /tmp/ccpSmzXj.s:5031   .debug_ranges:0000000000000000 .Ldebug_ranges0
     /tmp/ccpSmzXj.s:4935   .debug_loc:0000000000000380 .LLST9
     /tmp/ccpSmzXj.s:244    .text:0000000000000160 .LVL24
GAS LISTING /tmp/ccpSmzXj.s 			page 34


     /tmp/ccpSmzXj.s:255    .text:0000000000000178 .LVL25
     /tmp/ccpSmzXj.s:282    .text:00000000000001a8 .LVL28
     /tmp/ccpSmzXj.s:292    .text:00000000000001bc .LVL29
     /tmp/ccpSmzXj.s:299    .text:00000000000001d0 .LVL30
     /tmp/ccpSmzXj.s:313    .text:00000000000001ec .LBB7
     /tmp/ccpSmzXj.s:360    .text:000000000000024c .LBE7
     /tmp/ccpSmzXj.s:4942   .debug_loc:00000000000003a3 .LLST10
     /tmp/ccpSmzXj.s:327    .text:000000000000020c .LVL34
     /tmp/ccpSmzXj.s:334    .text:000000000000021c .LVL35
     /tmp/ccpSmzXj.s:355    .text:0000000000000244 .LVL37
     /tmp/ccpSmzXj.s:215    .text:0000000000000128 .LVL19
     /tmp/ccpSmzXj.s:225    .text:000000000000013c .LVL22
     /tmp/ccpSmzXj.s:307    .text:00000000000001e0 .LVL31
     /tmp/ccpSmzXj.s:312    .text:00000000000001ec .LVL32
     /tmp/ccpSmzXj.s:365    .text:0000000000000258 .LVL38
     /tmp/ccpSmzXj.s:370    .text:0000000000000264 .LVL39
     /tmp/ccpSmzXj.s:5749   .debug_str:0000000000001969 .LASF360
     /tmp/ccpSmzXj.s:5177   .debug_str:000000000000045a .LASF361
     /tmp/ccpSmzXj.s:90     .text:0000000000000060 .LFB49
     /tmp/ccpSmzXj.s:144    .text:00000000000000a8 .LFE49
     /tmp/ccpSmzXj.s:4949   .debug_loc:00000000000003c6 .LLST2
     /tmp/ccpSmzXj.s:4960   .debug_loc:00000000000003fc .LLST3
     /tmp/ccpSmzXj.s:4976   .debug_loc:0000000000000446 .LLST4
     /tmp/ccpSmzXj.s:5701   .debug_str:0000000000001731 .LASF333
     /tmp/ccpSmzXj.s:5699   .debug_str:0000000000001722 .LASF334
     /tmp/ccpSmzXj.s:56     .text:0000000000000030 .LFB48
     /tmp/ccpSmzXj.s:84     .text:0000000000000060 .LFE48
     /tmp/ccpSmzXj.s:4988   .debug_loc:000000000000047d .LLST1
     /tmp/ccpSmzXj.s:73     .text:0000000000000050 .LVL6
     /tmp/ccpSmzXj.s:5401   .debug_str:0000000000000c9d .LASF335
     /tmp/ccpSmzXj.s:5719   .debug_str:00000000000018a3 .LASF336
     /tmp/ccpSmzXj.s:10     .text:0000000000000000 .LFB47
     /tmp/ccpSmzXj.s:50     .text:0000000000000030 .LFE47
     /tmp/ccpSmzXj.s:5241   .debug_str:00000000000006dd .LASF337
     /tmp/ccpSmzXj.s:23     .text:000000000000000c .LBB2
     /tmp/ccpSmzXj.s:41     .text:0000000000000024 .LBE2
     /tmp/ccpSmzXj.s:5002   .debug_loc:00000000000004b6 .LLST0
     /tmp/ccpSmzXj.s:5123   .debug_str:0000000000000288 .LASF338
     /tmp/ccpSmzXj.s:5115   .debug_str:000000000000022e .LASF340
     /tmp/ccpSmzXj.s:5743   .debug_str:0000000000001931 .LASF339
     /tmp/ccpSmzXj.s:5135   .debug_str:00000000000002f3 .LASF341
     /tmp/ccpSmzXj.s:5717   .debug_str:0000000000001886 .LASF342
     /tmp/ccpSmzXj.s:5165   .debug_str:000000000000040c .LASF343
     /tmp/ccpSmzXj.s:5225   .debug_str:0000000000000607 .LASF344
     /tmp/ccpSmzXj.s:5589   .debug_str:0000000000001342 .LASF345
     /tmp/ccpSmzXj.s:5093   .debug_str:000000000000018d .LASF346
     /tmp/ccpSmzXj.s:5409   .debug_str:0000000000000cdf .LASF347
     /tmp/ccpSmzXj.s:5159   .debug_str:00000000000003ee .LASF348
     /tmp/ccpSmzXj.s:5279   .debug_str:00000000000007dc .LASF349
     /tmp/ccpSmzXj.s:5739   .debug_str:000000000000191a .LASF350
     /tmp/ccpSmzXj.s:5379   .debug_str:0000000000000c11 .LASF351
     /tmp/ccpSmzXj.s:607    .text:00000000000003c4 .LVL60
     /tmp/ccpSmzXj.s:654    .text:000000000000042c .LVL63
     /tmp/ccpSmzXj.s:770    .text:0000000000000520 .LVL85
     /tmp/ccpSmzXj.s:660    .text:0000000000000438 .LVL65
     /tmp/ccpSmzXj.s:664    .text:000000000000043c .LVL66
     /tmp/ccpSmzXj.s:773    .text:0000000000000524 .LVL86
GAS LISTING /tmp/ccpSmzXj.s 			page 35


     /tmp/ccpSmzXj.s:668    .text:0000000000000448 .LVL68
     /tmp/ccpSmzXj.s:672    .text:000000000000044c .LVL69
     /tmp/ccpSmzXj.s:776    .text:0000000000000528 .LVL87
     /tmp/ccpSmzXj.s:676    .text:0000000000000458 .LVL71
     /tmp/ccpSmzXj.s:686    .text:0000000000000468 .LVL72
     /tmp/ccpSmzXj.s:779    .text:000000000000052c .LVL88
     /tmp/ccpSmzXj.s:522    .text:0000000000000350 .LVL55
     /tmp/ccpSmzXj.s:551    .text:000000000000038c .LVL58
     /tmp/ccpSmzXj.s:413    .text:0000000000000298 .LVL45
     /tmp/ccpSmzXj.s:438    .text:00000000000002c8 .LVL47
     /tmp/ccpSmzXj.s:484    .text:0000000000000310 .LVL53
     /tmp/ccpSmzXj.s:479    .text:0000000000000308 .LVL52
     /tmp/ccpSmzXj.s:434    .text:00000000000002c4 .LVL46
     /tmp/ccpSmzXj.s:463    .text:00000000000002f4 .LVL49
     /tmp/ccpSmzXj.s:465    .text:00000000000002f8 .LVL50
     /tmp/ccpSmzXj.s:476    .text:0000000000000304 .LVL51
     /tmp/ccpSmzXj.s:158    .text:00000000000000a8 .LVL14
     /tmp/ccpSmzXj.s:213    .text:0000000000000120 .LVL18
     /tmp/ccpSmzXj.s:194    .text:00000000000000f4 .LVL15
     /tmp/ccpSmzXj.s:234    .text:000000000000014c .LVL23
     /tmp/ccpSmzXj.s:260    .text:000000000000017c .LVL26
     /tmp/ccpSmzXj.s:263    .text:0000000000000180 .LVL27
     /tmp/ccpSmzXj.s:385    .text:0000000000000278 .LVL42
     /tmp/ccpSmzXj.s:200    .text:00000000000000fc .LVL16
     /tmp/ccpSmzXj.s:205    .text:0000000000000108 .LVL17
     /tmp/ccpSmzXj.s:377    .text:000000000000026c .LVL40
     /tmp/ccpSmzXj.s:401    .text:0000000000000294 .LVL44
     /tmp/ccpSmzXj.s:217    .text:000000000000012c .LVL20
     /tmp/ccpSmzXj.s:223    .text:0000000000000134 .LVL21
     /tmp/ccpSmzXj.s:388    .text:000000000000027c .LVL43
     /tmp/ccpSmzXj.s:317    .text:00000000000001f4 .LVL33
     /tmp/ccpSmzXj.s:382    .text:0000000000000274 .LVL41
     /tmp/ccpSmzXj.s:93     .text:0000000000000060 .LVL7
     /tmp/ccpSmzXj.s:110    .text:0000000000000078 .LVL9
     /tmp/ccpSmzXj.s:102    .text:0000000000000070 .LVL8
     /tmp/ccpSmzXj.s:112    .text:000000000000007c .LVL10
     /tmp/ccpSmzXj.s:130    .text:0000000000000098 .LVL12
     /tmp/ccpSmzXj.s:132    .text:000000000000009c .LVL13
     /tmp/ccpSmzXj.s:59     .text:0000000000000030 .LVL5
     /tmp/ccpSmzXj.s:22     .text:000000000000000c .LVL1
     /tmp/ccpSmzXj.s:26     .text:0000000000000010 .LVL2
     /tmp/ccpSmzXj.s:37     .text:0000000000000020 .LVL3
     /tmp/ccpSmzXj.s:39     .text:0000000000000024 .LVL4
     /tmp/ccpSmzXj.s:836    .debug_info:0000000000000000 .Ldebug_info0
     /tmp/ccpSmzXj.s:104    .text:0000000000000070 .LBB3
     /tmp/ccpSmzXj.s:107    .text:0000000000000074 .LBE3
     /tmp/ccpSmzXj.s:114    .text:000000000000007c .LBB4
     /tmp/ccpSmzXj.s:134    .text:000000000000009c .LBE4
     /tmp/ccpSmzXj.s:227    .text:0000000000000140 .LBB5
     /tmp/ccpSmzXj.s:230    .text:0000000000000144 .LBE5
     /tmp/ccpSmzXj.s:236    .text:000000000000014c .LBB6
     /tmp/ccpSmzXj.s:302    .text:00000000000001d4 .LBE6

UNDEFINED SYMBOLS
_Z17kmem_cache_createPKcmPFvPvES3_
_Z7kmallocm
_Z16kmem_cache_allocP5Cache
GAS LISTING /tmp/ccpSmzXj.s 			page 36


_ZN11ConsoleUtil11printStringEPKc
_Z15kmem_cache_infoP5Cache
_Z15kmem_cache_freeP5CachePv
_Z5kfreePKv
_Z18kmem_cache_destroyP5Cache
_ZN5RiscV10initializeEv
_ZN13SlabAllocator9printSlabEP4Slab
_Z15userMainWrapperPv
_ZN5RiscV16threadCreateUtilEPP3TCBPFvPvES3_
_ZN5RiscV18threadDispatchUtilEv
_ZN5RiscV8finalizeEv
