GAS LISTING /tmp/cccDx6aj.s 			page 1


   1              		.file	"system.cpp"
   2              		.option pic
   3              		.option norelax
   4              		.text
   5              	.Ltext0:
   6              		.align	2
   7              		.globl	_Z6memsetPKvii
   9              	_Z6memsetPKvii:
  10              	.LFB44:
  11              		.file 1 "src/kernel/../../src/kernel/tests/test2.hpp"
   1:src/kernel/../../src/kernel/tests/test2.hpp **** //
   2:src/kernel/../../src/kernel/tests/test2.hpp **** // Created by os on 1/10/23.
   3:src/kernel/../../src/kernel/tests/test2.hpp **** //
   4:src/kernel/../../src/kernel/tests/test2.hpp **** 
   5:src/kernel/../../src/kernel/tests/test2.hpp **** #ifndef KERNEL_FOR_RISCV_ARCHITECURE_TEST2_HPP
   6:src/kernel/../../src/kernel/tests/test2.hpp **** #define KERNEL_FOR_RISCV_ARCHITECURE_TEST2_HPP
   7:src/kernel/../../src/kernel/tests/test2.hpp **** #include "../../../h/kernel/slab.hpp"
   8:src/kernel/../../src/kernel/tests/test2.hpp **** 
   9:src/kernel/../../src/kernel/tests/test2.hpp **** #define RUN_NUM (5)
  10:src/kernel/../../src/kernel/tests/test2.hpp **** #define ITERATIONS (1000)
  11:src/kernel/../../src/kernel/tests/test2.hpp **** 
  12:src/kernel/../../src/kernel/tests/test2.hpp **** #define shared_size (7)
  13:src/kernel/../../src/kernel/tests/test2.hpp **** #define MASK (0xA5)
  14:src/kernel/../../src/kernel/tests/test2.hpp **** 
  15:src/kernel/../../src/kernel/tests/test2.hpp **** struct data_s {
  16:src/kernel/../../src/kernel/tests/test2.hpp ****     int id;
  17:src/kernel/../../src/kernel/tests/test2.hpp ****     kmem_cache_t  *shared;
  18:src/kernel/../../src/kernel/tests/test2.hpp ****     int iterations;
  19:src/kernel/../../src/kernel/tests/test2.hpp **** };
  20:src/kernel/../../src/kernel/tests/test2.hpp **** 
  21:src/kernel/../../src/kernel/tests/test2.hpp **** const char * const CACHE_NAMES[] = {"tc_0",
  22:src/kernel/../../src/kernel/tests/test2.hpp ****                                     "tc_1",
  23:src/kernel/../../src/kernel/tests/test2.hpp ****                                     "tc_2",
  24:src/kernel/../../src/kernel/tests/test2.hpp ****                                     "tc_3",
  25:src/kernel/../../src/kernel/tests/test2.hpp ****                                     "tc_4"};
  26:src/kernel/../../src/kernel/tests/test2.hpp **** 
  27:src/kernel/../../src/kernel/tests/test2.hpp **** void memset(const void *data, int size, int value) {
  12              		.loc 1 27 52
  13              		.cfi_startproc
  14              	.LVL0:
  15 0000 130101FF 		addi	sp,sp,-16
  16              		.cfi_def_cfa_offset 16
  17 0004 23348100 		sd	s0,8(sp)
  18              		.cfi_offset 8, -8
  19 0008 13040101 		addi	s0,sp,16
  20              		.cfi_def_cfa 8, 0
  28:src/kernel/../../src/kernel/tests/test2.hpp ****     for (int j = 0; j < size; j++) {
  21              		.loc 1 28 5
  22              	.LVL1:
  23              	.LBB2:
  24              		.loc 1 28 14 is_stmt 0
  25 000c 93070000 		li	a5,0
  26              	.LVL2:
  27              	.L3:
  28              		.loc 1 28 23 is_stmt 1 discriminator 3
  29 0010 63DAB700 		bge	a5,a1,.L1
  29:src/kernel/../../src/kernel/tests/test2.hpp ****         *((char *)data + j) = value;
GAS LISTING /tmp/cccDx6aj.s 			page 2


  30              		.loc 1 29 9 discriminator 2
  31              		.loc 1 29 24 is_stmt 0 discriminator 2
  32 0014 3307F500 		add	a4,a0,a5
  33              		.loc 1 29 29 discriminator 2
  34 0018 2300C700 		sb	a2,0(a4)
  28:src/kernel/../../src/kernel/tests/test2.hpp ****     for (int j = 0; j < size; j++) {
  35              		.loc 1 28 5 is_stmt 1 discriminator 2
  36 001c 9B871700 		addiw	a5,a5,1
  37              	.LVL3:
  38 0020 6FF01FFF 		j	.L3
  39              	.LVL4:
  40              	.L1:
  41              	.LBE2:
  30:src/kernel/../../src/kernel/tests/test2.hpp ****     }
  31:src/kernel/../../src/kernel/tests/test2.hpp **** }
  42              		.loc 1 31 1 is_stmt 0
  43 0024 03348100 		ld	s0,8(sp)
  44              		.cfi_restore 8
  45              		.cfi_def_cfa 2, 16
  46 0028 13010101 		addi	sp,sp,16
  47              		.cfi_def_cfa_offset 0
  48 002c 67800000 		jr	ra
  49              		.cfi_endproc
  50              	.LFE44:
  52              		.align	2
  53              		.globl	_Z9constructPv
  55              	_Z9constructPv:
  56              	.LFB45:
  32:src/kernel/../../src/kernel/tests/test2.hpp **** 
  33:src/kernel/../../src/kernel/tests/test2.hpp **** void construct(void *data) {
  57              		.loc 1 33 28 is_stmt 1
  58              		.cfi_startproc
  59              	.LVL5:
  60 0030 130101FF 		addi	sp,sp,-16
  61              		.cfi_def_cfa_offset 16
  62 0034 23341100 		sd	ra,8(sp)
  63 0038 23308100 		sd	s0,0(sp)
  64              		.cfi_offset 1, -8
  65              		.cfi_offset 8, -16
  66 003c 13040101 		addi	s0,sp,16
  67              		.cfi_def_cfa 8, 0
  34:src/kernel/../../src/kernel/tests/test2.hpp **** //    static int i = 1;
  35:src/kernel/../../src/kernel/tests/test2.hpp **** //    printf("%d Shared object constructed.\n", i++);
  36:src/kernel/../../src/kernel/tests/test2.hpp ****     memset(data, shared_size, MASK);
  68              		.loc 1 36 5
  69              		.loc 1 36 11 is_stmt 0
  70 0040 1306500A 		li	a2,165
  71 0044 93057000 		li	a1,7
  72 0048 97000000 		call	_Z6memsetPKvii
  72      E7800000 
  73              	.LVL6:
  37:src/kernel/../../src/kernel/tests/test2.hpp **** }
  74              		.loc 1 37 1
  75 0050 83308100 		ld	ra,8(sp)
  76              		.cfi_restore 1
  77 0054 03340100 		ld	s0,0(sp)
  78              		.cfi_restore 8
GAS LISTING /tmp/cccDx6aj.s 			page 3


  79              		.cfi_def_cfa 2, 16
  80 0058 13010101 		addi	sp,sp,16
  81              		.cfi_def_cfa_offset 0
  82 005c 67800000 		jr	ra
  83              		.cfi_endproc
  84              	.LFE45:
  86              		.align	2
  87              		.globl	_Z5checkPvm
  89              	_Z5checkPvm:
  90              	.LFB46:
  38:src/kernel/../../src/kernel/tests/test2.hpp **** 
  39:src/kernel/../../src/kernel/tests/test2.hpp **** int check(void *data, size_t size) {
  91              		.loc 1 39 36 is_stmt 1
  92              		.cfi_startproc
  93              	.LVL7:
  94 0060 130101FF 		addi	sp,sp,-16
  95              		.cfi_def_cfa_offset 16
  96 0064 23348100 		sd	s0,8(sp)
  97              		.cfi_offset 8, -8
  98 0068 13040101 		addi	s0,sp,16
  99              		.cfi_def_cfa 8, 0
 100 006c 13060500 		mv	a2,a0
  40:src/kernel/../../src/kernel/tests/test2.hpp ****     int ret = 1;
 101              		.loc 1 40 5
 102              	.LVL8:
  41:src/kernel/../../src/kernel/tests/test2.hpp ****     for (uint64 i = 0; i < size; i++) {
 103              		.loc 1 41 5
 104              	.LBB3:
 105              		.loc 1 41 17 is_stmt 0
 106 0070 93070000 		li	a5,0
 107              	.LBE3:
  40:src/kernel/../../src/kernel/tests/test2.hpp ****     int ret = 1;
 108              		.loc 1 40 9
 109 0074 13051000 		li	a0,1
 110              	.LVL9:
 111 0078 6F008000 		j	.L10
 112              	.LVL10:
 113              	.L9:
 114              	.LBB4:
 115              		.loc 1 41 5 is_stmt 1 discriminator 2
 116 007c 93871700 		addi	a5,a5,1
 117              	.LVL11:
 118              	.L10:
 119              		.loc 1 41 26 discriminator 1
 120 0080 63FEB700 		bgeu	a5,a1,.L8
  42:src/kernel/../../src/kernel/tests/test2.hpp ****         if (((unsigned char *)data)[i] != MASK) {
 121              		.loc 1 42 9
 122              		.loc 1 42 38 is_stmt 0
 123 0084 3307F600 		add	a4,a2,a5
 124 0088 83460700 		lbu	a3,0(a4)
 125              		.loc 1 42 9
 126 008c 1307500A 		li	a4,165
 127 0090 E386E6FE 		beq	a3,a4,.L9
  43:src/kernel/../../src/kernel/tests/test2.hpp ****             ret = 0;
 128              		.loc 1 43 17
 129 0094 13050000 		li	a0,0
 130              	.LVL12:
GAS LISTING /tmp/cccDx6aj.s 			page 4


 131 0098 6FF05FFE 		j	.L9
 132              	.LVL13:
 133              	.L8:
 134              	.LBE4:
  44:src/kernel/../../src/kernel/tests/test2.hpp ****         }
  45:src/kernel/../../src/kernel/tests/test2.hpp ****     }
  46:src/kernel/../../src/kernel/tests/test2.hpp **** 
  47:src/kernel/../../src/kernel/tests/test2.hpp ****     return ret;
 135              		.loc 1 47 5 is_stmt 1
  48:src/kernel/../../src/kernel/tests/test2.hpp **** }
 136              		.loc 1 48 1 is_stmt 0
 137 009c 03348100 		ld	s0,8(sp)
 138              		.cfi_restore 8
 139              		.cfi_def_cfa 2, 16
 140 00a0 13010101 		addi	sp,sp,16
 141              		.cfi_def_cfa_offset 0
 142 00a4 67800000 		jr	ra
 143              		.cfi_endproc
 144              	.LFE46:
 146              		.section	.rodata.str1.8,"aMS",@progbits,1
 147              		.align	3
 148              	.LC0:
 149 0000 56616C75 		.string	"Value not correct!"
 149      65206E6F 
 149      7420636F 
 149      72726563 
 149      742100
 150              		.text
 151              		.align	2
 152              		.globl	_Z4workPv
 154              	_Z4workPv:
 155              	.LFB47:
  49:src/kernel/../../src/kernel/tests/test2.hpp **** 
  50:src/kernel/../../src/kernel/tests/test2.hpp **** struct objects_s {
  51:src/kernel/../../src/kernel/tests/test2.hpp ****     kmem_cache_t *cache;
  52:src/kernel/../../src/kernel/tests/test2.hpp ****     void *data;
  53:src/kernel/../../src/kernel/tests/test2.hpp **** };
  54:src/kernel/../../src/kernel/tests/test2.hpp **** 
  55:src/kernel/../../src/kernel/tests/test2.hpp **** void work(void* pdata) {
 156              		.loc 1 55 24 is_stmt 1
 157              		.cfi_startproc
 158              	.LVL14:
 159 00a8 130101F8 		addi	sp,sp,-128
 160              		.cfi_def_cfa_offset 128
 161 00ac 233C1106 		sd	ra,120(sp)
 162 00b0 23388106 		sd	s0,112(sp)
 163 00b4 23349106 		sd	s1,104(sp)
 164 00b8 23302107 		sd	s2,96(sp)
 165 00bc 233C3105 		sd	s3,88(sp)
 166 00c0 23384105 		sd	s4,80(sp)
 167 00c4 23345105 		sd	s5,72(sp)
 168 00c8 23306105 		sd	s6,64(sp)
 169 00cc 233C7103 		sd	s7,56(sp)
 170 00d0 23388103 		sd	s8,48(sp)
 171 00d4 23349103 		sd	s9,40(sp)
 172              		.cfi_offset 1, -8
 173              		.cfi_offset 8, -16
GAS LISTING /tmp/cccDx6aj.s 			page 5


 174              		.cfi_offset 9, -24
 175              		.cfi_offset 18, -32
 176              		.cfi_offset 19, -40
 177              		.cfi_offset 20, -48
 178              		.cfi_offset 21, -56
 179              		.cfi_offset 22, -64
 180              		.cfi_offset 23, -72
 181              		.cfi_offset 24, -80
 182              		.cfi_offset 25, -88
 183 00d8 13040108 		addi	s0,sp,128
 184              		.cfi_def_cfa 8, 0
  56:src/kernel/../../src/kernel/tests/test2.hpp ****     struct data_s data = *(struct data_s*) pdata;
 185              		.loc 1 56 5
 186              		.loc 1 56 19 is_stmt 0
 187 00dc 033C0500 		ld	s8,0(a0)
 188 00e0 233484F9 		sd	s8,-120(s0)
 189 00e4 83378500 		ld	a5,8(a0)
 190 00e8 2338F4F8 		sd	a5,-112(s0)
 191 00ec 83370501 		ld	a5,16(a0)
 192 00f0 233CF4F8 		sd	a5,-104(s0)
  57:src/kernel/../../src/kernel/tests/test2.hpp ****     int size = 0;
 193              		.loc 1 57 5 is_stmt 1
 194              	.LVL15:
  58:src/kernel/../../src/kernel/tests/test2.hpp ****     int object_size = data.id + 1;
 195              		.loc 1 58 5
 196              		.loc 1 58 28 is_stmt 0
 197 00f4 9B070C00 		sext.w	a5,s8
 198              		.loc 1 58 9
 199 00f8 1B0C1C00 		addiw	s8,s8,1
 200              	.LVL16:
  59:src/kernel/../../src/kernel/tests/test2.hpp ****     kmem_cache_t *cache = kmem_cache_create(CACHE_NAMES[data.id], object_size, 0, 0);
 201              		.loc 1 59 5 is_stmt 1
 202              		.loc 1 59 64 is_stmt 0
 203 00fc 13973700 		slli	a4,a5,3
 204 0100 97070000 		lla	a5,.LANCHOR0
 204      93870700 
 205              	.LVL17:
 206 0108 B387E700 		add	a5,a5,a4
 207              		.loc 1 59 44
 208 010c 130B0C00 		mv	s6,s8
 209 0110 93060000 		li	a3,0
 210 0114 13060000 		li	a2,0
 211 0118 93050C00 		mv	a1,s8
 212 011c 03B50700 		ld	a0,0(a5)
 213              	.LVL18:
 214 0120 97000000 		call	_Z17kmem_cache_createPKcmPFvPvES3_@plt
 214      E7800000 
 215              	.LVL19:
 216 0128 130A0500 		mv	s4,a0
 217              	.LVL20:
  60:src/kernel/../../src/kernel/tests/test2.hpp **** 
  61:src/kernel/../../src/kernel/tests/test2.hpp ****     struct objects_s *objs = (struct objects_s*)(kmalloc(sizeof(struct objects_s) * data.iterations
 218              		.loc 1 61 5 is_stmt 1
 219              		.loc 1 61 90 is_stmt 0
 220 012c 832B84F9 		lw	s7,-104(s0)
 221              		.loc 1 61 57
 222 0130 13954B00 		slli	a0,s7,4
GAS LISTING /tmp/cccDx6aj.s 			page 6


 223              	.LVL21:
 224 0134 97000000 		call	_Z7kmallocm@plt
 224      E7800000 
 225              	.LVL22:
 226 013c 930A0500 		mv	s5,a0
 227              	.LBB5:
  62:src/kernel/../../src/kernel/tests/test2.hpp **** 
  63:src/kernel/../../src/kernel/tests/test2.hpp ****     for (int i = 0; i < data.iterations; i++) {
 228              		.loc 1 63 14
 229 0140 93040000 		li	s1,0
 230              	.LBE5:
  57:src/kernel/../../src/kernel/tests/test2.hpp ****     int object_size = data.id + 1;
 231              		.loc 1 57 9
 232 0144 93090000 		li	s3,0
 233 0148 6F008003 		j	.L17
 234              	.LVL23:
 235              	.L15:
 236              	.LBB6:
  64:src/kernel/../../src/kernel/tests/test2.hpp ****         if (i % 100 == 0) {
  65:src/kernel/../../src/kernel/tests/test2.hpp ****             objs[size].data = kmem_cache_alloc(data.shared);
  66:src/kernel/../../src/kernel/tests/test2.hpp ****             objs[size].cache = data.shared;
  67:src/kernel/../../src/kernel/tests/test2.hpp ****             if (!check(objs[size].data, shared_size)) {
  68:src/kernel/../../src/kernel/tests/test2.hpp ****                 ConsoleUtil::printString("Value not correct!");
  69:src/kernel/../../src/kernel/tests/test2.hpp ****             }
  70:src/kernel/../../src/kernel/tests/test2.hpp ****         }
  71:src/kernel/../../src/kernel/tests/test2.hpp ****         else {
  72:src/kernel/../../src/kernel/tests/test2.hpp ****             objs[size].data = kmem_cache_alloc(cache);
 237              		.loc 1 72 13 is_stmt 1
 238              		.loc 1 72 22 is_stmt 0
 239 014c 13994900 		slli	s2,s3,4
 240 0150 33892A01 		add	s2,s5,s2
 241              		.loc 1 72 47
 242 0154 13050A00 		mv	a0,s4
 243 0158 97000000 		call	_Z16kmem_cache_allocP5Cache@plt
 243      E7800000 
 244              	.LVL24:
 245              		.loc 1 72 29
 246 0160 2334A900 		sd	a0,8(s2)
  73:src/kernel/../../src/kernel/tests/test2.hpp ****             objs[size].cache = cache;
 247              		.loc 1 73 13 is_stmt 1
 248              		.loc 1 73 30 is_stmt 0
 249 0164 23304901 		sd	s4,0(s2)
  74:src/kernel/../../src/kernel/tests/test2.hpp ****             memset(objs[size].data, object_size, MASK);
 250              		.loc 1 74 13 is_stmt 1
 251              		.loc 1 74 19 is_stmt 0
 252 0168 1306500A 		li	a2,165
 253 016c 93050C00 		mv	a1,s8
 254 0170 97000000 		call	_Z6memsetPKvii
 254      E7800000 
 255              	.LVL25:
 256              	.L16:
  75:src/kernel/../../src/kernel/tests/test2.hpp ****         }
  76:src/kernel/../../src/kernel/tests/test2.hpp ****         size++;
 257              		.loc 1 76 9 is_stmt 1 discriminator 2
 258              		.loc 1 76 13 is_stmt 0 discriminator 2
 259 0178 9B891900 		addiw	s3,s3,1
 260              	.LVL26:
GAS LISTING /tmp/cccDx6aj.s 			page 7


  63:src/kernel/../../src/kernel/tests/test2.hpp ****         if (i % 100 == 0) {
 261              		.loc 1 63 5 is_stmt 1 discriminator 2
 262 017c 9B841400 		addiw	s1,s1,1
 263              	.LVL27:
 264              	.L17:
  63:src/kernel/../../src/kernel/tests/test2.hpp ****         if (i % 100 == 0) {
 265              		.loc 1 63 23 discriminator 1
 266 0180 63DA7405 		ble	s7,s1,.L14
  64:src/kernel/../../src/kernel/tests/test2.hpp ****             objs[size].data = kmem_cache_alloc(data.shared);
 267              		.loc 1 64 9
  64:src/kernel/../../src/kernel/tests/test2.hpp ****             objs[size].data = kmem_cache_alloc(data.shared);
 268              		.loc 1 64 15 is_stmt 0
 269 0184 93074006 		li	a5,100
 270 0188 BBE7F402 		remw	a5,s1,a5
  64:src/kernel/../../src/kernel/tests/test2.hpp ****             objs[size].data = kmem_cache_alloc(data.shared);
 271              		.loc 1 64 9
 272 018c E39007FC 		bnez	a5,.L15
  65:src/kernel/../../src/kernel/tests/test2.hpp ****             objs[size].cache = data.shared;
 273              		.loc 1 65 13 is_stmt 1
  65:src/kernel/../../src/kernel/tests/test2.hpp ****             objs[size].cache = data.shared;
 274              		.loc 1 65 47 is_stmt 0
 275 0190 833C04F9 		ld	s9,-112(s0)
  65:src/kernel/../../src/kernel/tests/test2.hpp ****             objs[size].cache = data.shared;
 276              		.loc 1 65 22
 277 0194 13994900 		slli	s2,s3,4
 278 0198 33892A01 		add	s2,s5,s2
  65:src/kernel/../../src/kernel/tests/test2.hpp ****             objs[size].cache = data.shared;
 279              		.loc 1 65 47
 280 019c 13850C00 		mv	a0,s9
 281 01a0 97000000 		call	_Z16kmem_cache_allocP5Cache@plt
 281      E7800000 
 282              	.LVL28:
  65:src/kernel/../../src/kernel/tests/test2.hpp ****             objs[size].cache = data.shared;
 283              		.loc 1 65 29
 284 01a8 2334A900 		sd	a0,8(s2)
  66:src/kernel/../../src/kernel/tests/test2.hpp ****             if (!check(objs[size].data, shared_size)) {
 285              		.loc 1 66 13 is_stmt 1
  66:src/kernel/../../src/kernel/tests/test2.hpp ****             if (!check(objs[size].data, shared_size)) {
 286              		.loc 1 66 30 is_stmt 0
 287 01ac 23309901 		sd	s9,0(s2)
  67:src/kernel/../../src/kernel/tests/test2.hpp ****                 ConsoleUtil::printString("Value not correct!");
 288              		.loc 1 67 13 is_stmt 1
  67:src/kernel/../../src/kernel/tests/test2.hpp ****                 ConsoleUtil::printString("Value not correct!");
 289              		.loc 1 67 23 is_stmt 0
 290 01b0 93057000 		li	a1,7
 291 01b4 97000000 		call	_Z5checkPvm
 291      E7800000 
 292              	.LVL29:
  67:src/kernel/../../src/kernel/tests/test2.hpp ****                 ConsoleUtil::printString("Value not correct!");
 293              		.loc 1 67 13
 294 01bc E31E05FA 		bnez	a0,.L16
  68:src/kernel/../../src/kernel/tests/test2.hpp ****             }
 295              		.loc 1 68 17 is_stmt 1
  68:src/kernel/../../src/kernel/tests/test2.hpp ****             }
 296              		.loc 1 68 41 is_stmt 0
 297 01c0 17050000 		lla	a0,.LC0
 297      13050500 
GAS LISTING /tmp/cccDx6aj.s 			page 8


 298 01c8 97000000 		call	_ZN11ConsoleUtil11printStringEPKc@plt
 298      E7800000 
 299              	.LVL30:
 300 01d0 6FF09FFA 		j	.L16
 301              	.L14:
 302              	.LBE6:
  77:src/kernel/../../src/kernel/tests/test2.hpp ****     }
  78:src/kernel/../../src/kernel/tests/test2.hpp **** 
  79:src/kernel/../../src/kernel/tests/test2.hpp ****     kmem_cache_info(cache);
 303              		.loc 1 79 5 is_stmt 1
 304              		.loc 1 79 20 is_stmt 0
 305 01d4 13050A00 		mv	a0,s4
 306 01d8 97000000 		call	_Z15kmem_cache_infoP5Cache@plt
 306      E7800000 
 307              	.LVL31:
  80:src/kernel/../../src/kernel/tests/test2.hpp ****     kmem_cache_info(data.shared);
 308              		.loc 1 80 5 is_stmt 1
 309              		.loc 1 80 20 is_stmt 0
 310 01e0 033504F9 		ld	a0,-112(s0)
 311 01e4 97000000 		call	_Z15kmem_cache_infoP5Cache@plt
 311      E7800000 
 312              	.LVL32:
 313              	.LBB7:
  81:src/kernel/../../src/kernel/tests/test2.hpp **** 
  82:src/kernel/../../src/kernel/tests/test2.hpp ****     for (int i = 0; i < size; i++) {
 314              		.loc 1 82 14
 315 01ec 13090000 		li	s2,0
 316 01f0 6F000003 		j	.L21
 317              	.LVL33:
 318              	.L22:
  83:src/kernel/../../src/kernel/tests/test2.hpp ****         if (!check(objs[i].data, (cache == objs[i].cache) ? object_size : shared_size)) {
 319              		.loc 1 83 19
 320 01f4 93050B00 		mv	a1,s6
 321 01f8 6F004004 		j	.L19
 322              	.L24:
  84:src/kernel/../../src/kernel/tests/test2.hpp ****             ConsoleUtil::printString("Value not correct!");
 323              		.loc 1 84 13 is_stmt 1
 324              		.loc 1 84 37 is_stmt 0
 325 01fc 17050000 		lla	a0,.LC0
 325      13050500 
 326 0204 97000000 		call	_ZN11ConsoleUtil11printStringEPKc@plt
 326      E7800000 
 327              	.LVL34:
 328              	.L20:
  85:src/kernel/../../src/kernel/tests/test2.hpp ****         }
  86:src/kernel/../../src/kernel/tests/test2.hpp ****         kmem_cache_free(objs[i].cache, objs[i].data);
 329              		.loc 1 86 9 is_stmt 1
 330              		.loc 1 86 24 is_stmt 0
 331 020c 83B58400 		ld	a1,8(s1)
 332 0210 03B50400 		ld	a0,0(s1)
 333 0214 97000000 		call	_Z15kmem_cache_freeP5CachePv@plt
 333      E7800000 
 334              	.LVL35:
  82:src/kernel/../../src/kernel/tests/test2.hpp ****         if (!check(objs[i].data, (cache == objs[i].cache) ? object_size : shared_size)) {
 335              		.loc 1 82 5 is_stmt 1
 336 021c 1B091900 		addiw	s2,s2,1
 337              	.LVL36:
GAS LISTING /tmp/cccDx6aj.s 			page 9


 338              	.L21:
  82:src/kernel/../../src/kernel/tests/test2.hpp ****         if (!check(objs[i].data, (cache == objs[i].cache) ? object_size : shared_size)) {
 339              		.loc 1 82 23 discriminator 1
 340 0220 63563903 		ble	s3,s2,.L18
  83:src/kernel/../../src/kernel/tests/test2.hpp ****             ConsoleUtil::printString("Value not correct!");
 341              		.loc 1 83 9
  83:src/kernel/../../src/kernel/tests/test2.hpp ****             ConsoleUtil::printString("Value not correct!");
 342              		.loc 1 83 26 is_stmt 0
 343 0224 93144900 		slli	s1,s2,4
 344 0228 B3849A00 		add	s1,s5,s1
  83:src/kernel/../../src/kernel/tests/test2.hpp ****             ConsoleUtil::printString("Value not correct!");
 345              		.loc 1 83 19
 346 022c 03B58400 		ld	a0,8(s1)
  83:src/kernel/../../src/kernel/tests/test2.hpp ****             ConsoleUtil::printString("Value not correct!");
 347              		.loc 1 83 52
 348 0230 83B70400 		ld	a5,0(s1)
  83:src/kernel/../../src/kernel/tests/test2.hpp ****             ConsoleUtil::printString("Value not correct!");
 349              		.loc 1 83 19
 350 0234 E38047FD 		beq	a5,s4,.L22
 351 0238 93057000 		li	a1,7
 352              	.L19:
  83:src/kernel/../../src/kernel/tests/test2.hpp ****             ConsoleUtil::printString("Value not correct!");
 353              		.loc 1 83 19 discriminator 4
 354 023c 97000000 		call	_Z5checkPvm
 354      E7800000 
 355              	.LVL37:
  83:src/kernel/../../src/kernel/tests/test2.hpp ****             ConsoleUtil::printString("Value not correct!");
 356              		.loc 1 83 9 discriminator 4
 357 0244 E31405FC 		bnez	a0,.L20
 358 0248 6FF05FFB 		j	.L24
 359              	.L18:
 360              	.LBE7:
  87:src/kernel/../../src/kernel/tests/test2.hpp ****     }
  88:src/kernel/../../src/kernel/tests/test2.hpp **** 
  89:src/kernel/../../src/kernel/tests/test2.hpp ****     kfree(objs);
 361              		.loc 1 89 5 is_stmt 1
 362              		.loc 1 89 10 is_stmt 0
 363 024c 13850A00 		mv	a0,s5
 364 0250 97000000 		call	_Z5kfreePKv@plt
 364      E7800000 
 365              	.LVL38:
  90:src/kernel/../../src/kernel/tests/test2.hpp ****     kmem_cache_destroy(cache);
 366              		.loc 1 90 5 is_stmt 1
 367              		.loc 1 90 23 is_stmt 0
 368 0258 13050A00 		mv	a0,s4
 369 025c 97000000 		call	_Z18kmem_cache_destroyP5Cache@plt
 369      E7800000 
 370              	.LVL39:
  91:src/kernel/../../src/kernel/tests/test2.hpp **** }
 371              		.loc 1 91 1
 372 0264 83308107 		ld	ra,120(sp)
 373              		.cfi_restore 1
 374 0268 03340107 		ld	s0,112(sp)
 375              		.cfi_restore 8
 376              		.cfi_def_cfa 2, 128
 377              	.LVL40:
 378 026c 83348106 		ld	s1,104(sp)
GAS LISTING /tmp/cccDx6aj.s 			page 10


 379              		.cfi_restore 9
 380 0270 03390106 		ld	s2,96(sp)
 381              		.cfi_restore 18
 382              	.LVL41:
 383 0274 83398105 		ld	s3,88(sp)
 384              		.cfi_restore 19
 385              	.LVL42:
 386 0278 033A0105 		ld	s4,80(sp)
 387              		.cfi_restore 20
 388              	.LVL43:
 389 027c 833A8104 		ld	s5,72(sp)
 390              		.cfi_restore 21
 391 0280 033B0104 		ld	s6,64(sp)
 392              		.cfi_restore 22
 393 0284 833B8103 		ld	s7,56(sp)
 394              		.cfi_restore 23
 395 0288 033C0103 		ld	s8,48(sp)
 396              		.cfi_restore 24
 397 028c 833C8102 		ld	s9,40(sp)
 398              		.cfi_restore 25
 399 0290 13010108 		addi	sp,sp,128
 400              		.cfi_def_cfa_offset 0
 401              	.LVL44:
 402 0294 67800000 		jr	ra
 403              		.cfi_endproc
 404              	.LFE47:
 406              		.align	2
 407              		.globl	_Z4runsPFvPvEP6data_si
 409              	_Z4runsPFvPvEP6data_si:
 410              	.LFB48:
  92:src/kernel/../../src/kernel/tests/test2.hpp **** 
  93:src/kernel/../../src/kernel/tests/test2.hpp **** 
  94:src/kernel/../../src/kernel/tests/test2.hpp **** 
  95:src/kernel/../../src/kernel/tests/test2.hpp **** void runs(void(*work)(void*), struct data_s* data, int num) {
 411              		.loc 1 95 61 is_stmt 1
 412              		.cfi_startproc
 413              	.LVL45:
 414 0298 130101FB 		addi	sp,sp,-80
 415              		.cfi_def_cfa_offset 80
 416 029c 23341104 		sd	ra,72(sp)
 417 02a0 23308104 		sd	s0,64(sp)
 418 02a4 233C9102 		sd	s1,56(sp)
 419 02a8 23382103 		sd	s2,48(sp)
 420 02ac 23343103 		sd	s3,40(sp)
 421 02b0 23304103 		sd	s4,32(sp)
 422              		.cfi_offset 1, -8
 423              		.cfi_offset 8, -16
 424              		.cfi_offset 9, -24
 425              		.cfi_offset 18, -32
 426              		.cfi_offset 19, -40
 427              		.cfi_offset 20, -48
 428 02b4 13040105 		addi	s0,sp,80
 429              		.cfi_def_cfa 8, 0
 430 02b8 130A0500 		mv	s4,a0
 431 02bc 13890500 		mv	s2,a1
 432 02c0 93090600 		mv	s3,a2
  96:src/kernel/../../src/kernel/tests/test2.hpp ****     for (int i = 0; i < num; i++) {
GAS LISTING /tmp/cccDx6aj.s 			page 11


 433              		.loc 1 96 5
 434              	.LVL46:
 435              	.LBB8:
 436              		.loc 1 96 14 is_stmt 0
 437 02c4 93040000 		li	s1,0
 438              	.LVL47:
 439              	.L27:
 440              		.loc 1 96 23 is_stmt 1 discriminator 1
 441 02c8 63D83403 		bge	s1,s3,.L25
 442              	.LBB9:
  97:src/kernel/../../src/kernel/tests/test2.hpp ****         struct data_s private_data;
 443              		.loc 1 97 9
  98:src/kernel/../../src/kernel/tests/test2.hpp ****         private_data = *(struct data_s*) data;
 444              		.loc 1 98 9
 445              		.loc 1 98 22 is_stmt 0
 446 02cc 83370900 		ld	a5,0(s2)
 447 02d0 233CF4FA 		sd	a5,-72(s0)
 448 02d4 83378900 		ld	a5,8(s2)
 449 02d8 2330F4FC 		sd	a5,-64(s0)
 450 02dc 83370901 		ld	a5,16(s2)
 451 02e0 2334F4FC 		sd	a5,-56(s0)
  99:src/kernel/../../src/kernel/tests/test2.hpp ****         private_data.id = i;
 452              		.loc 1 99 9 is_stmt 1
 453              		.loc 1 99 25 is_stmt 0
 454 02e4 232C94FA 		sw	s1,-72(s0)
 100:src/kernel/../../src/kernel/tests/test2.hpp ****         work(&private_data);
 455              		.loc 1 100 9 is_stmt 1
 456              		.loc 1 100 13 is_stmt 0
 457 02e8 130584FB 		addi	a0,s0,-72
 458 02ec E7000A00 		jalr	s4
 459              	.LVL48:
 460              	.LBE9:
  96:src/kernel/../../src/kernel/tests/test2.hpp ****         struct data_s private_data;
 461              		.loc 1 96 5 is_stmt 1
 462 02f0 9B841400 		addiw	s1,s1,1
 463              	.LVL49:
 464 02f4 6FF05FFD 		j	.L27
 465              	.LVL50:
 466              	.L25:
 467              	.LBE8:
 101:src/kernel/../../src/kernel/tests/test2.hpp ****     }
 102:src/kernel/../../src/kernel/tests/test2.hpp **** }
 468              		.loc 1 102 1 is_stmt 0
 469 02f8 83308104 		ld	ra,72(sp)
 470              		.cfi_restore 1
 471 02fc 03340104 		ld	s0,64(sp)
 472              		.cfi_restore 8
 473              		.cfi_def_cfa 2, 80
 474 0300 83348103 		ld	s1,56(sp)
 475              		.cfi_restore 9
 476              	.LVL51:
 477 0304 03390103 		ld	s2,48(sp)
 478              		.cfi_restore 18
 479              	.LVL52:
 480 0308 83398102 		ld	s3,40(sp)
 481              		.cfi_restore 19
 482 030c 033A0102 		ld	s4,32(sp)
GAS LISTING /tmp/cccDx6aj.s 			page 12


 483              		.cfi_restore 20
 484              	.LVL53:
 485 0310 13010105 		addi	sp,sp,80
 486              		.cfi_def_cfa_offset 0
 487 0314 67800000 		jr	ra
 488              		.cfi_endproc
 489              	.LFE48:
 491              		.section	.rodata.str1.8
 492 0013 00000000 		.align	3
 492      00
 493              	.LC1:
 494 0018 73686172 		.string	"shared object"
 494      6564206F 
 494      626A6563 
 494      7400
 495              		.text
 496              		.align	2
 497              		.globl	_Z5test2v
 499              	_Z5test2v:
 500              	.LFB49:
 103:src/kernel/../../src/kernel/tests/test2.hpp **** 
 104:src/kernel/../../src/kernel/tests/test2.hpp **** void test2() {
 501              		.loc 1 104 14 is_stmt 1
 502              		.cfi_startproc
 503 0318 130101FC 		addi	sp,sp,-64
 504              		.cfi_def_cfa_offset 64
 505 031c 233C1102 		sd	ra,56(sp)
 506 0320 23388102 		sd	s0,48(sp)
 507 0324 23349102 		sd	s1,40(sp)
 508              		.cfi_offset 1, -8
 509              		.cfi_offset 8, -16
 510              		.cfi_offset 9, -24
 511 0328 13040104 		addi	s0,sp,64
 512              		.cfi_def_cfa 8, 0
 105:src/kernel/../../src/kernel/tests/test2.hpp ****     kmem_cache_t *shared = kmem_cache_create("shared object", shared_size, construct, nullptr);
 513              		.loc 1 105 5
 514              		.loc 1 105 45 is_stmt 0
 515 032c 93060000 		li	a3,0
 516 0330 17060000 		lla	a2,_Z9constructPv
 516      13060600 
 517 0338 93057000 		li	a1,7
 518 033c 17050000 		lla	a0,.LC1
 518      13050500 
 519 0344 97000000 		call	_Z17kmem_cache_createPKcmPFvPvES3_@plt
 519      E7800000 
 520              	.LVL54:
 521 034c 93040500 		mv	s1,a0
 522              	.LVL55:
 106:src/kernel/../../src/kernel/tests/test2.hpp **** 
 107:src/kernel/../../src/kernel/tests/test2.hpp ****     struct data_s data;
 523              		.loc 1 107 5 is_stmt 1
 108:src/kernel/../../src/kernel/tests/test2.hpp ****     data.shared = shared;
 524              		.loc 1 108 5
 525              		.loc 1 108 17 is_stmt 0
 526 0350 2338A4FC 		sd	a0,-48(s0)
 109:src/kernel/../../src/kernel/tests/test2.hpp ****     data.iterations = ITERATIONS;
 527              		.loc 1 109 5 is_stmt 1
GAS LISTING /tmp/cccDx6aj.s 			page 13


 528              		.loc 1 109 21 is_stmt 0
 529 0354 9307803E 		li	a5,1000
 530 0358 232CF4FC 		sw	a5,-40(s0)
 110:src/kernel/../../src/kernel/tests/test2.hpp ****     runs(work, &data, RUN_NUM);
 531              		.loc 1 110 5 is_stmt 1
 532              		.loc 1 110 9 is_stmt 0
 533 035c 13065000 		li	a2,5
 534 0360 930584FC 		addi	a1,s0,-56
 535 0364 17050000 		lla	a0,_Z4workPv
 535      13050500 
 536 036c 97000000 		call	_Z4runsPFvPvEP6data_si
 536      E7800000 
 537              	.LVL56:
 111:src/kernel/../../src/kernel/tests/test2.hpp **** 
 112:src/kernel/../../src/kernel/tests/test2.hpp ****     kmem_cache_destroy(shared);
 538              		.loc 1 112 5 is_stmt 1
 539              		.loc 1 112 23 is_stmt 0
 540 0374 13850400 		mv	a0,s1
 541 0378 97000000 		call	_Z18kmem_cache_destroyP5Cache@plt
 541      E7800000 
 542              	.LVL57:
 113:src/kernel/../../src/kernel/tests/test2.hpp **** }
 543              		.loc 1 113 1
 544 0380 83308103 		ld	ra,56(sp)
 545              		.cfi_restore 1
 546 0384 03340103 		ld	s0,48(sp)
 547              		.cfi_restore 8
 548              		.cfi_def_cfa 2, 64
 549 0388 83348102 		ld	s1,40(sp)
 550              		.cfi_restore 9
 551              	.LVL58:
 552 038c 13010104 		addi	sp,sp,64
 553              		.cfi_def_cfa_offset 0
 554 0390 67800000 		jr	ra
 555              		.cfi_endproc
 556              	.LFE49:
 558              		.align	2
 559              		.globl	_Z4ctorPv
 561              	_Z4ctorPv:
 562              	.LFB50:
 563              		.file 2 "src/kernel/system.cpp"
   1:src/kernel/system.cpp **** //
   2:src/kernel/system.cpp **** // Created by os on 5/31/22.
   3:src/kernel/system.cpp **** //
   4:src/kernel/system.cpp **** 
   5:src/kernel/system.cpp **** #include "../../h/kernel/system.hpp"
   6:src/kernel/system.cpp **** #include "../../h/kernel/riscv.hpp"
   7:src/kernel/system.cpp **** #include "../../h/user/syscall_c.h"
   8:src/kernel/system.cpp **** #include "../../src/user/tests/userMain.hpp"
   9:src/kernel/system.cpp **** #include "../../src/kernel/tests/test2.hpp"
  10:src/kernel/system.cpp **** #include "../../h/user/printing.hpp"
  11:src/kernel/system.cpp **** #include "../../h/kernel/tcb.hpp"
  12:src/kernel/system.cpp **** #include "../../h/kernel/scheduler.hpp"
  13:src/kernel/system.cpp **** #include "../../h/user/userWrappers.hpp"
  14:src/kernel/system.cpp **** 
  15:src/kernel/system.cpp **** bool System::initialized = false;
  16:src/kernel/system.cpp **** 
GAS LISTING /tmp/cccDx6aj.s 			page 14


  17:src/kernel/system.cpp **** struct Test{
  18:src/kernel/system.cpp ****     uint64 a,b,c,d,e,f;
  19:src/kernel/system.cpp **** };
  20:src/kernel/system.cpp **** 
  21:src/kernel/system.cpp **** void ctor(void* tst){
 564              		.loc 2 21 21 is_stmt 1
 565              		.cfi_startproc
 566              	.LVL59:
 567 0394 130101FF 		addi	sp,sp,-16
 568              		.cfi_def_cfa_offset 16
 569 0398 23348100 		sd	s0,8(sp)
 570              		.cfi_offset 8, -8
 571 039c 13040101 		addi	s0,sp,16
 572              		.cfi_def_cfa 8, 0
  22:src/kernel/system.cpp ****     ((Test*)tst)->a = 17;
 573              		.loc 2 22 5
 574              		.loc 2 22 21 is_stmt 0
 575 03a0 93071001 		li	a5,17
 576 03a4 2330F500 		sd	a5,0(a0)
  23:src/kernel/system.cpp ****     ((Test*)tst)->b = 32;
 577              		.loc 2 23 5 is_stmt 1
 578              		.loc 2 23 21 is_stmt 0
 579 03a8 93070002 		li	a5,32
 580 03ac 2334F500 		sd	a5,8(a0)
  24:src/kernel/system.cpp ****     ((Test*)tst)->c = 13;
 581              		.loc 2 24 5 is_stmt 1
 582              		.loc 2 24 21 is_stmt 0
 583 03b0 9307D000 		li	a5,13
 584 03b4 2338F500 		sd	a5,16(a0)
  25:src/kernel/system.cpp **** 
  26:src/kernel/system.cpp **** }
 585              		.loc 2 26 1
 586 03b8 03348100 		ld	s0,8(sp)
 587              		.cfi_restore 8
 588              		.cfi_def_cfa 2, 16
 589 03bc 13010101 		addi	sp,sp,16
 590              		.cfi_def_cfa_offset 0
 591 03c0 67800000 		jr	ra
 592              		.cfi_endproc
 593              	.LFE50:
 595              		.section	.rodata.str1.8
 596 0026 0000     		.align	3
 597              	.LC2:
 598 0028 43616368 		.string	"Cache 1"
 598      65203100 
 599              		.align	3
 600              	.LC3:
 601 0030 4552524F 		.string	"ERROR\n"
 601      520A00
 602 0037 00       		.align	3
 603              	.LC4:
 604 0038 0A00     		.string	"\n"
 605 003a 00000000 		.align	3
 605      0000
 606              	.LC5:
 607 0040 00       		.string	""
 608              		.text
GAS LISTING /tmp/cccDx6aj.s 			page 15


 609              		.align	2
 610              		.globl	_ZN6SystemC2Ev
 612              	_ZN6SystemC2Ev:
 613              	.LFB52:
  27:src/kernel/system.cpp **** 
  28:src/kernel/system.cpp **** 
  29:src/kernel/system.cpp **** System::System() {
 614              		.loc 2 29 1 is_stmt 1
 615              		.cfi_startproc
 616              	.LVL60:
  30:src/kernel/system.cpp ****     //check whether system is already running to prevent user malicious access
  31:src/kernel/system.cpp ****     if (!initialized) {
 617              		.loc 2 31 5
 618              	.LBB10:
 619              		.loc 2 31 9 is_stmt 0
 620 03c4 97070000 		lbu	a5,.LANCHOR1
 620      83C70700 
 621              		.loc 2 31 5
 622 03cc 63840700 		beqz	a5,.L47
 623 03d0 67800000 		ret
 624              	.L47:
 625              	.LBE10:
  29:src/kernel/system.cpp ****     //check whether system is already running to prevent user malicious access
 626              		.loc 2 29 1
 627 03d4 130101FC 		addi	sp,sp,-64
 628              		.cfi_def_cfa_offset 64
 629 03d8 233C1102 		sd	ra,56(sp)
 630 03dc 23388102 		sd	s0,48(sp)
 631 03e0 23349102 		sd	s1,40(sp)
 632 03e4 23302103 		sd	s2,32(sp)
 633 03e8 233C3101 		sd	s3,24(sp)
 634              		.cfi_offset 1, -8
 635              		.cfi_offset 8, -16
 636              		.cfi_offset 9, -24
 637              		.cfi_offset 18, -32
 638              		.cfi_offset 19, -40
 639 03ec 13040104 		addi	s0,sp,64
 640              		.cfi_def_cfa 8, 0
 641              	.LBB14:
 642              	.LBB11:
  32:src/kernel/system.cpp ****         initialized = true;
 643              		.loc 2 32 9 is_stmt 1
 644              		.loc 2 32 21 is_stmt 0
 645 03f0 93071000 		li	a5,1
 646 03f4 17070000 		sb	a5,.LANCHOR1,a4
 646      2300F700 
  33:src/kernel/system.cpp **** 
  34:src/kernel/system.cpp ****         //initialize the machine
  35:src/kernel/system.cpp ****         RiscV::initialize();
 647              		.loc 2 35 9 is_stmt 1
 648              		.loc 2 35 26 is_stmt 0
 649 03fc 97000000 		call	_ZN5RiscV10initializeEv@plt
 649      E7800000 
 650              	.LVL61:
  36:src/kernel/system.cpp **** 
  37:src/kernel/system.cpp ****         kmem_cache_t* cache1 = kmem_cache_create("Cache 1", 512, nullptr, nullptr);
 651              		.loc 2 37 9 is_stmt 1
GAS LISTING /tmp/cccDx6aj.s 			page 16


 652              		.loc 2 37 49 is_stmt 0
 653 0404 93060000 		li	a3,0
 654 0408 13060000 		li	a2,0
 655 040c 93050020 		li	a1,512
 656 0410 17050000 		lla	a0,.LC2
 656      13050500 
 657 0418 97000000 		call	_Z17kmem_cache_createPKcmPFvPvES3_@plt
 657      E7800000 
 658              	.LVL62:
 659 0420 13090500 		mv	s2,a0
 660              	.LVL63:
  38:src/kernel/system.cpp ****         kmem_cache_t* cache2 = kmem_cache_create("Cache 1", 1<<15, nullptr, nullptr);
 661              		.loc 2 38 9 is_stmt 1
 662              		.loc 2 38 49 is_stmt 0
 663 0424 93060000 		li	a3,0
 664 0428 13060000 		li	a2,0
 665 042c B7850000 		li	a1,32768
 666 0430 17050000 		lla	a0,.LC2
 666      13050500 
 667              	.LVL64:
 668 0438 97000000 		call	_Z17kmem_cache_createPKcmPFvPvES3_@plt
 668      E7800000 
 669              	.LVL65:
 670 0440 93040500 		mv	s1,a0
 671              	.LVL66:
  39:src/kernel/system.cpp ****         kmem_cache_alloc(cache1);
 672              		.loc 2 39 9 is_stmt 1
 673              		.loc 2 39 25 is_stmt 0
 674 0444 13050900 		mv	a0,s2
 675 0448 97000000 		call	_Z16kmem_cache_allocP5Cache@plt
 675      E7800000 
 676              	.LVL67:
  40:src/kernel/system.cpp ****         kmem_cache_alloc(cache2);
 677              		.loc 2 40 9 is_stmt 1
 678              		.loc 2 40 25 is_stmt 0
 679 0450 13850400 		mv	a0,s1
 680 0454 97000000 		call	_Z16kmem_cache_allocP5Cache@plt
 680      E7800000 
 681              	.LVL68:
  41:src/kernel/system.cpp ****         kmem_cache_alloc(cache2);
 682              		.loc 2 41 9 is_stmt 1
 683              		.loc 2 41 25 is_stmt 0
 684 045c 13850400 		mv	a0,s1
 685 0460 97000000 		call	_Z16kmem_cache_allocP5Cache@plt
 685      E7800000 
 686              	.LVL69:
  42:src/kernel/system.cpp ****         kmem_cache_alloc(cache2);
 687              		.loc 2 42 9 is_stmt 1
 688              		.loc 2 42 25 is_stmt 0
 689 0468 13850400 		mv	a0,s1
 690 046c 97000000 		call	_Z16kmem_cache_allocP5Cache@plt
 690      E7800000 
 691              	.LVL70:
  43:src/kernel/system.cpp ****         void *ret = kmem_cache_alloc(cache2);
 692              		.loc 2 43 9 is_stmt 1
 693              		.loc 2 43 37 is_stmt 0
 694 0474 13850400 		mv	a0,s1
GAS LISTING /tmp/cccDx6aj.s 			page 17


 695 0478 97000000 		call	_Z16kmem_cache_allocP5Cache@plt
 695      E7800000 
 696              	.LVL71:
 697 0480 93090500 		mv	s3,a0
 698              	.LVL72:
  44:src/kernel/system.cpp **** 
  45:src/kernel/system.cpp ****         SlabAllocator::printSlab(cache2->fullHead);
 699              		.loc 2 45 9 is_stmt 1
 700              		.loc 2 45 33 is_stmt 0
 701 0484 03B50407 		ld	a0,112(s1)
 702              	.LVL73:
 703 0488 97000000 		call	_ZN13SlabAllocator9printSlabEP4Slab@plt
 703      E7800000 
 704              	.LVL74:
  46:src/kernel/system.cpp **** 
  47:src/kernel/system.cpp ****         kmem_cache_free(cache2, ret);
 705              		.loc 2 47 9 is_stmt 1
 706              		.loc 2 47 24 is_stmt 0
 707 0490 93850900 		mv	a1,s3
 708 0494 13850400 		mv	a0,s1
 709 0498 97000000 		call	_Z15kmem_cache_freeP5CachePv@plt
 709      E7800000 
 710              	.LVL75:
  48:src/kernel/system.cpp **** 
  49:src/kernel/system.cpp ****         SlabAllocator::printSlab(cache2->partialHead);
 711              		.loc 2 49 9 is_stmt 1
 712              		.loc 2 49 33 is_stmt 0
 713 04a0 03B58406 		ld	a0,104(s1)
 714 04a4 97000000 		call	_ZN13SlabAllocator9printSlabEP4Slab@plt
 714      E7800000 
 715              	.LVL76:
  50:src/kernel/system.cpp **** 
  51:src/kernel/system.cpp ****         kmem_cache_info(cache1);
 716              		.loc 2 51 9 is_stmt 1
 717              		.loc 2 51 24 is_stmt 0
 718 04ac 13050900 		mv	a0,s2
 719 04b0 97000000 		call	_Z15kmem_cache_infoP5Cache@plt
 719      E7800000 
 720              	.LVL77:
  52:src/kernel/system.cpp ****         kmem_cache_info(cache2);
 721              		.loc 2 52 9 is_stmt 1
 722              		.loc 2 52 24 is_stmt 0
 723 04b8 13850400 		mv	a0,s1
 724 04bc 97000000 		call	_Z15kmem_cache_infoP5Cache@plt
 724      E7800000 
 725              	.LVL78:
  53:src/kernel/system.cpp ****         void* ret1 = kmalloc(1<<17);
 726              		.loc 2 53 9 is_stmt 1
 727              		.loc 2 53 29 is_stmt 0
 728 04c4 37050200 		li	a0,131072
 729 04c8 97000000 		call	_Z7kmallocm@plt
 729      E7800000 
 730              	.LVL79:
  54:src/kernel/system.cpp ****         if(ret1 == nullptr){
 731              		.loc 2 54 9 is_stmt 1
 732 04d0 630E0504 		beqz	a0,.L48
  55:src/kernel/system.cpp ****             ConsoleUtil::printString("ERROR\n");
GAS LISTING /tmp/cccDx6aj.s 			page 18


  56:src/kernel/system.cpp ****         }
  57:src/kernel/system.cpp ****         else{
  58:src/kernel/system.cpp ****             ConsoleUtil::print("",(uint64)ret1,"\n");
 733              		.loc 2 58 13
 734              		.loc 2 58 31 is_stmt 0
 735 04d4 93060001 		li	a3,16
 736 04d8 17060000 		lla	a2,.LC4
 736      13060600 
 737 04e0 9B050500 		sext.w	a1,a0
 738 04e4 17050000 		lla	a0,.LC5
 738      13050500 
 739              	.LVL80:
 740 04ec 97000000 		call	_ZN11ConsoleUtil5printEPKciS1_i@plt
 740      E7800000 
 741              	.LVL81:
 742              	.L36:
  59:src/kernel/system.cpp ****         };
 743              		.loc 2 59 10 is_stmt 1
  60:src/kernel/system.cpp ****         void* ret2 = kmalloc(1<<17);
 744              		.loc 2 60 9
 745              		.loc 2 60 29 is_stmt 0
 746 04f4 37050200 		li	a0,131072
 747 04f8 97000000 		call	_Z7kmallocm@plt
 747      E7800000 
 748              	.LVL82:
  61:src/kernel/system.cpp ****         if(ret2 == nullptr){
 749              		.loc 2 61 9 is_stmt 1
 750 0500 63000504 		beqz	a0,.L49
  62:src/kernel/system.cpp ****             ConsoleUtil::printString("ERROR\n");
  63:src/kernel/system.cpp ****         }
  64:src/kernel/system.cpp ****         else{
  65:src/kernel/system.cpp ****             ConsoleUtil::print("",(uint64)ret2,"\n");
 751              		.loc 2 65 13
 752              		.loc 2 65 31 is_stmt 0
 753 0504 93060001 		li	a3,16
 754 0508 17060000 		lla	a2,.LC4
 754      13060600 
 755 0510 9B050500 		sext.w	a1,a0
 756 0514 17050000 		lla	a0,.LC5
 756      13050500 
 757              	.LVL83:
 758 051c 97000000 		call	_ZN11ConsoleUtil5printEPKciS1_i@plt
 758      E7800000 
 759              	.LVL84:
 760              	.L38:
 761              	.LBE11:
 762              	.LBE14:
  29:src/kernel/system.cpp ****     //check whether system is already running to prevent user malicious access
 763              		.loc 2 29 1 discriminator 1
 764 0524 93040000 		li	s1,0
 765              	.LVL85:
 766 0528 6F00C004 		j	.L40
 767              	.LVL86:
 768              	.L48:
 769              	.LBB15:
 770              	.LBB13:
  55:src/kernel/system.cpp ****         }
GAS LISTING /tmp/cccDx6aj.s 			page 19


 771              		.loc 2 55 13 is_stmt 1
  55:src/kernel/system.cpp ****         }
 772              		.loc 2 55 37 is_stmt 0
 773 052c 17050000 		lla	a0,.LC3
 773      13050500 
 774              	.LVL87:
 775 0534 97000000 		call	_ZN11ConsoleUtil11printStringEPKc@plt
 775      E7800000 
 776              	.LVL88:
 777 053c 6FF09FFB 		j	.L36
 778              	.LVL89:
 779              	.L49:
  62:src/kernel/system.cpp ****             ConsoleUtil::printString("ERROR\n");
 780              		.loc 2 62 13 is_stmt 1
  62:src/kernel/system.cpp ****             ConsoleUtil::printString("ERROR\n");
 781              		.loc 2 62 37 is_stmt 0
 782 0540 17050000 		lla	a0,.LC3
 782      13050500 
 783              	.LVL90:
 784 0548 97000000 		call	_ZN11ConsoleUtil11printStringEPKc@plt
 784      E7800000 
 785              	.LVL91:
 786 0550 6FF05FFD 		j	.L38
 787              	.LVL92:
 788              	.L50:
 789              	.LBB12:
  66:src/kernel/system.cpp ****         };
  67:src/kernel/system.cpp ****         for(int i=0;i<BUCKET_SIZE;i++){
  68:src/kernel/system.cpp ****             kmem_cache_info(SlabAllocator::sizeN[i]);
 790              		.loc 2 68 13 is_stmt 1
 791              		.loc 2 68 28 is_stmt 0
 792 0554 13973400 		slli	a4,s1,3
 793 0558 97070000 		la	a5,_ZN13SlabAllocator5sizeNE
 793      83B70700 
 794 0560 B387E700 		add	a5,a5,a4
 795 0564 03B50700 		ld	a0,0(a5)
 796 0568 97000000 		call	_Z15kmem_cache_infoP5Cache@plt
 796      E7800000 
 797              	.LVL93:
  67:src/kernel/system.cpp ****             kmem_cache_info(SlabAllocator::sizeN[i]);
 798              		.loc 2 67 9 is_stmt 1
 799 0570 9B841400 		addiw	s1,s1,1
 800              	.LVL94:
 801              	.L40:
  67:src/kernel/system.cpp ****             kmem_cache_info(SlabAllocator::sizeN[i]);
 802              		.loc 2 67 22 discriminator 1
 803 0574 9307C000 		li	a5,12
 804 0578 E3DE97FC 		ble	s1,a5,.L50
 805              	.LBE12:
  69:src/kernel/system.cpp ****         }
  70:src/kernel/system.cpp ****         test2();
 806              		.loc 2 70 9
 807              		.loc 2 70 14 is_stmt 0
 808 057c 97000000 		call	_Z5test2v
 808      E7800000 
 809              	.LVL95:
  71:src/kernel/system.cpp ****         //creating a thread that will be executing user code
GAS LISTING /tmp/cccDx6aj.s 			page 20


  72:src/kernel/system.cpp ****         //this is done as to separate user code execution from main kernel thread
  73:src/kernel/system.cpp ****         //also it provides kernel with an idle thread that will run itself if user code gets blocke
  74:src/kernel/system.cpp **** 
  75:src/kernel/system.cpp ****         thread_t userMainThread;
 810              		.loc 2 75 9 is_stmt 1
  76:src/kernel/system.cpp ****         RiscV::threadCreateUtil((TCB**)(&userMainThread), userMainWrapper, nullptr);
 811              		.loc 2 76 9
 812              		.loc 2 76 32 is_stmt 0
 813 0584 13060000 		li	a2,0
 814 0588 97050000 		la	a1,_Z15userMainWrapperPv
 814      83B50500 
 815 0590 130584FC 		addi	a0,s0,-56
 816 0594 97000000 		call	_ZN5RiscV16threadCreateUtilEPP3TCBPFvPvES3_@plt
 816      E7800000 
 817              	.LVL96:
 818              	.L42:
  77:src/kernel/system.cpp **** 
  78:src/kernel/system.cpp **** 
  79:src/kernel/system.cpp **** //        //return control to user code until it reaches the end
  80:src/kernel/system.cpp **** //        //exit only if user is finished and machine is ready to exit (in case there is something 
  81:src/kernel/system.cpp ****         while (( (TCB*)userMainThread)->status != TCB::Status::FINISHED) {
 819              		.loc 2 81 9 is_stmt 1
 820              		.loc 2 81 48
 821              		.loc 2 81 18 is_stmt 0
 822 059c 833784FC 		ld	a5,-56(s0)
 823              		.loc 2 81 41
 824 05a0 03A70701 		lw	a4,16(a5)
 825              		.loc 2 81 48
 826 05a4 93072000 		li	a5,2
 827 05a8 6308F700 		beq	a4,a5,.L41
  82:src/kernel/system.cpp ****             RiscV::threadDispatchUtil();
 828              		.loc 2 82 13 is_stmt 1
 829              		.loc 2 82 38 is_stmt 0
 830 05ac 97000000 		call	_ZN5RiscV18threadDispatchUtilEv@plt
 830      E7800000 
 831              	.LVL97:
 832 05b4 6FF09FFE 		j	.L42
 833              	.L41:
  83:src/kernel/system.cpp ****         }
  84:src/kernel/system.cpp **** 
  85:src/kernel/system.cpp ****         //finalize the machine
  86:src/kernel/system.cpp ****         RiscV::finalize();
 834              		.loc 2 86 9 is_stmt 1
 835              		.loc 2 86 24 is_stmt 0
 836 05b8 97000000 		call	_ZN5RiscV8finalizeEv@plt
 836      E7800000 
 837              	.LVL98:
 838              	.LBE13:
 839              	.LBE15:
  87:src/kernel/system.cpp ****     }
  88:src/kernel/system.cpp **** }...
 840              		.loc 2 88 1
 841 05c0 83308103 		ld	ra,56(sp)
 842              		.cfi_restore 1
 843 05c4 03340103 		ld	s0,48(sp)
 844              		.cfi_restore 8
 845              		.cfi_def_cfa 2, 64
GAS LISTING /tmp/cccDx6aj.s 			page 21


 846 05c8 83348102 		ld	s1,40(sp)
 847              		.cfi_restore 9
 848              	.LVL99:
 849 05cc 03390102 		ld	s2,32(sp)
 850              		.cfi_restore 18
 851              	.LVL100:
 852 05d0 83398101 		ld	s3,24(sp)
 853              		.cfi_restore 19
 854              	.LVL101:
 855 05d4 13010104 		addi	sp,sp,64
 856              		.cfi_def_cfa_offset 0
 857 05d8 67800000 		jr	ra
 858              		.cfi_endproc
 859              	.LFE52:
 861              		.globl	_ZN6SystemC1Ev
 862              		.set	_ZN6SystemC1Ev,_ZN6SystemC2Ev
 863              		.globl	_ZN6System11initializedE
 864              		.section	.rodata.str1.8
 865 0041 00000000 		.align	3
 865      000000
 866              	.LC6:
 867 0048 74635F30 		.string	"tc_0"
 867      00
 868 004d 000000   		.align	3
 869              	.LC7:
 870 0050 74635F31 		.string	"tc_1"
 870      00
 871 0055 000000   		.align	3
 872              	.LC8:
 873 0058 74635F32 		.string	"tc_2"
 873      00
 874 005d 000000   		.align	3
 875              	.LC9:
 876 0060 74635F33 		.string	"tc_3"
 876      00
 877 0065 000000   		.align	3
 878              	.LC10:
 879 0068 74635F34 		.string	"tc_4"
 879      00
 880              		.bss
 881              		.set	.LANCHOR1,. + 0
 884              	_ZN6System11initializedE:
 885 0000 00       		.zero	1
 886              		.section	.data.rel.ro.local,"aw"
 887              		.align	3
 888              		.set	.LANCHOR0,. + 0
 891              	_ZL11CACHE_NAMES:
 892 0000 00000000 		.dword	.LC6
 892      00000000 
 893 0008 00000000 		.dword	.LC7
 893      00000000 
 894 0010 00000000 		.dword	.LC8
 894      00000000 
 895 0018 00000000 		.dword	.LC9
 895      00000000 
 896 0020 00000000 		.dword	.LC10
 896      00000000 
GAS LISTING /tmp/cccDx6aj.s 			page 22


 897              		.text
 898              	.Letext0:
 899              		.file 3 "src/kernel/../../h/kernel/../../lib/hw.h"
 900              		.file 4 "src/kernel/../../h/kernel/utility.hpp"
 901              		.file 5 "src/kernel/../../h/kernel/system.hpp"
 902              		.file 6 "src/kernel/../../h/kernel/riscv.hpp"
 903              		.file 7 "src/kernel/../../h/kernel/tcb.hpp"
 904              		.file 8 "src/kernel/../../h/user/_thread.hpp"
 905              		.file 9 "src/kernel/../../src/kernel/tests/../../../h/kernel/consoleUtil.hpp"
 906              		.file 10 "src/kernel/../../src/kernel/tests/../../../h/kernel/slab_t.hpp"
 907              		.file 11 "src/kernel/../../src/kernel/tests/../../../h/kernel/cache_t.hpp"
 908              		.file 12 "src/kernel/../../src/kernel/tests/../../../h/kernel/slabAllocator.hpp"
 909              		.file 13 "src/kernel/../../src/kernel/tests/../../../h/kernel/slab.hpp"
GAS LISTING /tmp/cccDx6aj.s 			page 23


DEFINED SYMBOLS
                            *ABS*:0000000000000000 system.cpp
     /tmp/cccDx6aj.s:9      .text:0000000000000000 _Z6memsetPKvii
     /tmp/cccDx6aj.s:13     .text:0000000000000000 .L0 
     /tmp/cccDx6aj.s:15     .text:0000000000000000 .L0 
     /tmp/cccDx6aj.s:16     .text:0000000000000004 .L0 
     /tmp/cccDx6aj.s:18     .text:0000000000000008 .L0 
     /tmp/cccDx6aj.s:20     .text:000000000000000c .L0 
     /tmp/cccDx6aj.s:24     .text:000000000000000c .L0 
     /tmp/cccDx6aj.s:25     .text:000000000000000c .L0 
     /tmp/cccDx6aj.s:29     .text:0000000000000010 .L0 
     /tmp/cccDx6aj.s:31     .text:0000000000000014 .L0 
     /tmp/cccDx6aj.s:32     .text:0000000000000014 .L0 
     /tmp/cccDx6aj.s:34     .text:0000000000000018 .L0 
     /tmp/cccDx6aj.s:36     .text:000000000000001c .L0 
     /tmp/cccDx6aj.s:43     .text:0000000000000024 .L0 
     /tmp/cccDx6aj.s:44     .text:0000000000000028 .L0 
     /tmp/cccDx6aj.s:45     .text:0000000000000028 .L0 
     /tmp/cccDx6aj.s:47     .text:000000000000002c .L0 
     /tmp/cccDx6aj.s:49     .text:0000000000000030 .L0 
     /tmp/cccDx6aj.s:55     .text:0000000000000030 _Z9constructPv
     /tmp/cccDx6aj.s:58     .text:0000000000000030 .L0 
     /tmp/cccDx6aj.s:60     .text:0000000000000030 .L0 
     /tmp/cccDx6aj.s:61     .text:0000000000000034 .L0 
     /tmp/cccDx6aj.s:64     .text:000000000000003c .L0 
     /tmp/cccDx6aj.s:65     .text:000000000000003c .L0 
     /tmp/cccDx6aj.s:67     .text:0000000000000040 .L0 
     /tmp/cccDx6aj.s:69     .text:0000000000000040 .L0 
     /tmp/cccDx6aj.s:70     .text:0000000000000040 .L0 
     /tmp/cccDx6aj.s:75     .text:0000000000000050 .L0 
     /tmp/cccDx6aj.s:76     .text:0000000000000054 .L0 
     /tmp/cccDx6aj.s:78     .text:0000000000000058 .L0 
     /tmp/cccDx6aj.s:79     .text:0000000000000058 .L0 
     /tmp/cccDx6aj.s:81     .text:000000000000005c .L0 
     /tmp/cccDx6aj.s:83     .text:0000000000000060 .L0 
     /tmp/cccDx6aj.s:89     .text:0000000000000060 _Z5checkPvm
     /tmp/cccDx6aj.s:92     .text:0000000000000060 .L0 
     /tmp/cccDx6aj.s:94     .text:0000000000000060 .L0 
     /tmp/cccDx6aj.s:95     .text:0000000000000064 .L0 
     /tmp/cccDx6aj.s:97     .text:0000000000000068 .L0 
     /tmp/cccDx6aj.s:99     .text:000000000000006c .L0 
     /tmp/cccDx6aj.s:103    .text:0000000000000070 .L0 
     /tmp/cccDx6aj.s:105    .text:0000000000000070 .L0 
     /tmp/cccDx6aj.s:106    .text:0000000000000070 .L0 
     /tmp/cccDx6aj.s:109    .text:0000000000000074 .L0 
     /tmp/cccDx6aj.s:116    .text:000000000000007c .L0 
     /tmp/cccDx6aj.s:120    .text:0000000000000080 .L0 
     /tmp/cccDx6aj.s:122    .text:0000000000000084 .L0 
     /tmp/cccDx6aj.s:123    .text:0000000000000084 .L0 
     /tmp/cccDx6aj.s:126    .text:000000000000008c .L0 
     /tmp/cccDx6aj.s:129    .text:0000000000000094 .L0 
     /tmp/cccDx6aj.s:136    .text:000000000000009c .L0 
     /tmp/cccDx6aj.s:137    .text:000000000000009c .L0 
     /tmp/cccDx6aj.s:138    .text:00000000000000a0 .L0 
     /tmp/cccDx6aj.s:139    .text:00000000000000a0 .L0 
     /tmp/cccDx6aj.s:141    .text:00000000000000a4 .L0 
     /tmp/cccDx6aj.s:143    .text:00000000000000a8 .L0 
GAS LISTING /tmp/cccDx6aj.s 			page 24


     /tmp/cccDx6aj.s:154    .text:00000000000000a8 _Z4workPv
     /tmp/cccDx6aj.s:157    .text:00000000000000a8 .L0 
     /tmp/cccDx6aj.s:159    .text:00000000000000a8 .L0 
     /tmp/cccDx6aj.s:160    .text:00000000000000ac .L0 
     /tmp/cccDx6aj.s:172    .text:00000000000000d8 .L0 
     /tmp/cccDx6aj.s:173    .text:00000000000000d8 .L0 
     /tmp/cccDx6aj.s:174    .text:00000000000000d8 .L0 
     /tmp/cccDx6aj.s:175    .text:00000000000000d8 .L0 
     /tmp/cccDx6aj.s:176    .text:00000000000000d8 .L0 
     /tmp/cccDx6aj.s:177    .text:00000000000000d8 .L0 
     /tmp/cccDx6aj.s:178    .text:00000000000000d8 .L0 
     /tmp/cccDx6aj.s:179    .text:00000000000000d8 .L0 
     /tmp/cccDx6aj.s:180    .text:00000000000000d8 .L0 
     /tmp/cccDx6aj.s:181    .text:00000000000000d8 .L0 
     /tmp/cccDx6aj.s:182    .text:00000000000000d8 .L0 
     /tmp/cccDx6aj.s:184    .text:00000000000000dc .L0 
     /tmp/cccDx6aj.s:186    .text:00000000000000dc .L0 
     /tmp/cccDx6aj.s:187    .text:00000000000000dc .L0 
     /tmp/cccDx6aj.s:195    .text:00000000000000f4 .L0 
     /tmp/cccDx6aj.s:196    .text:00000000000000f4 .L0 
     /tmp/cccDx6aj.s:197    .text:00000000000000f4 .L0 
     /tmp/cccDx6aj.s:199    .text:00000000000000f8 .L0 
     /tmp/cccDx6aj.s:202    .text:00000000000000fc .L0 
     /tmp/cccDx6aj.s:203    .text:00000000000000fc .L0 
     /tmp/cccDx6aj.s:208    .text:000000000000010c .L0 
     /tmp/cccDx6aj.s:219    .text:000000000000012c .L0 
     /tmp/cccDx6aj.s:220    .text:000000000000012c .L0 
     /tmp/cccDx6aj.s:222    .text:0000000000000130 .L0 
     /tmp/cccDx6aj.s:229    .text:0000000000000140 .L0 
     /tmp/cccDx6aj.s:232    .text:0000000000000144 .L0 
     /tmp/cccDx6aj.s:238    .text:000000000000014c .L0 
     /tmp/cccDx6aj.s:239    .text:000000000000014c .L0 
     /tmp/cccDx6aj.s:242    .text:0000000000000154 .L0 
     /tmp/cccDx6aj.s:246    .text:0000000000000160 .L0 
     /tmp/cccDx6aj.s:248    .text:0000000000000164 .L0 
     /tmp/cccDx6aj.s:249    .text:0000000000000164 .L0 
     /tmp/cccDx6aj.s:251    .text:0000000000000168 .L0 
     /tmp/cccDx6aj.s:252    .text:0000000000000168 .L0 
     /tmp/cccDx6aj.s:258    .text:0000000000000178 .L0 
     /tmp/cccDx6aj.s:259    .text:0000000000000178 .L0 
     /tmp/cccDx6aj.s:262    .text:000000000000017c .L0 
     /tmp/cccDx6aj.s:266    .text:0000000000000180 .L0 
     /tmp/cccDx6aj.s:268    .text:0000000000000184 .L0 
     /tmp/cccDx6aj.s:269    .text:0000000000000184 .L0 
     /tmp/cccDx6aj.s:272    .text:000000000000018c .L0 
     /tmp/cccDx6aj.s:274    .text:0000000000000190 .L0 
     /tmp/cccDx6aj.s:275    .text:0000000000000190 .L0 
     /tmp/cccDx6aj.s:277    .text:0000000000000194 .L0 
     /tmp/cccDx6aj.s:280    .text:000000000000019c .L0 
     /tmp/cccDx6aj.s:284    .text:00000000000001a8 .L0 
     /tmp/cccDx6aj.s:286    .text:00000000000001ac .L0 
     /tmp/cccDx6aj.s:287    .text:00000000000001ac .L0 
     /tmp/cccDx6aj.s:289    .text:00000000000001b0 .L0 
     /tmp/cccDx6aj.s:290    .text:00000000000001b0 .L0 
     /tmp/cccDx6aj.s:294    .text:00000000000001bc .L0 
     /tmp/cccDx6aj.s:296    .text:00000000000001c0 .L0 
     /tmp/cccDx6aj.s:297    .text:00000000000001c0 .L0 
GAS LISTING /tmp/cccDx6aj.s 			page 25


     /tmp/cccDx6aj.s:304    .text:00000000000001d4 .L0 
     /tmp/cccDx6aj.s:305    .text:00000000000001d4 .L0 
     /tmp/cccDx6aj.s:309    .text:00000000000001e0 .L0 
     /tmp/cccDx6aj.s:310    .text:00000000000001e0 .L0 
     /tmp/cccDx6aj.s:315    .text:00000000000001ec .L0 
     /tmp/cccDx6aj.s:320    .text:00000000000001f4 .L0 
     /tmp/cccDx6aj.s:324    .text:00000000000001fc .L0 
     /tmp/cccDx6aj.s:325    .text:00000000000001fc .L0 
     /tmp/cccDx6aj.s:330    .text:000000000000020c .L0 
     /tmp/cccDx6aj.s:331    .text:000000000000020c .L0 
     /tmp/cccDx6aj.s:336    .text:000000000000021c .L0 
     /tmp/cccDx6aj.s:340    .text:0000000000000220 .L0 
     /tmp/cccDx6aj.s:342    .text:0000000000000224 .L0 
     /tmp/cccDx6aj.s:343    .text:0000000000000224 .L0 
     /tmp/cccDx6aj.s:346    .text:000000000000022c .L0 
     /tmp/cccDx6aj.s:348    .text:0000000000000230 .L0 
     /tmp/cccDx6aj.s:350    .text:0000000000000234 .L0 
     /tmp/cccDx6aj.s:354    .text:000000000000023c .L0 
     /tmp/cccDx6aj.s:357    .text:0000000000000244 .L0 
     /tmp/cccDx6aj.s:362    .text:000000000000024c .L0 
     /tmp/cccDx6aj.s:363    .text:000000000000024c .L0 
     /tmp/cccDx6aj.s:367    .text:0000000000000258 .L0 
     /tmp/cccDx6aj.s:368    .text:0000000000000258 .L0 
     /tmp/cccDx6aj.s:372    .text:0000000000000264 .L0 
     /tmp/cccDx6aj.s:373    .text:0000000000000268 .L0 
     /tmp/cccDx6aj.s:375    .text:000000000000026c .L0 
     /tmp/cccDx6aj.s:376    .text:000000000000026c .L0 
     /tmp/cccDx6aj.s:379    .text:0000000000000270 .L0 
     /tmp/cccDx6aj.s:381    .text:0000000000000274 .L0 
     /tmp/cccDx6aj.s:384    .text:0000000000000278 .L0 
     /tmp/cccDx6aj.s:387    .text:000000000000027c .L0 
     /tmp/cccDx6aj.s:390    .text:0000000000000280 .L0 
     /tmp/cccDx6aj.s:392    .text:0000000000000284 .L0 
     /tmp/cccDx6aj.s:394    .text:0000000000000288 .L0 
     /tmp/cccDx6aj.s:396    .text:000000000000028c .L0 
     /tmp/cccDx6aj.s:398    .text:0000000000000290 .L0 
     /tmp/cccDx6aj.s:400    .text:0000000000000294 .L0 
     /tmp/cccDx6aj.s:403    .text:0000000000000298 .L0 
     /tmp/cccDx6aj.s:409    .text:0000000000000298 _Z4runsPFvPvEP6data_si
     /tmp/cccDx6aj.s:412    .text:0000000000000298 .L0 
     /tmp/cccDx6aj.s:414    .text:0000000000000298 .L0 
     /tmp/cccDx6aj.s:415    .text:000000000000029c .L0 
     /tmp/cccDx6aj.s:422    .text:00000000000002b4 .L0 
     /tmp/cccDx6aj.s:423    .text:00000000000002b4 .L0 
     /tmp/cccDx6aj.s:424    .text:00000000000002b4 .L0 
     /tmp/cccDx6aj.s:425    .text:00000000000002b4 .L0 
     /tmp/cccDx6aj.s:426    .text:00000000000002b4 .L0 
     /tmp/cccDx6aj.s:427    .text:00000000000002b4 .L0 
     /tmp/cccDx6aj.s:429    .text:00000000000002b8 .L0 
     /tmp/cccDx6aj.s:436    .text:00000000000002c4 .L0 
     /tmp/cccDx6aj.s:437    .text:00000000000002c4 .L0 
     /tmp/cccDx6aj.s:441    .text:00000000000002c8 .L0 
     /tmp/cccDx6aj.s:444    .text:00000000000002cc .L0 
     /tmp/cccDx6aj.s:445    .text:00000000000002cc .L0 
     /tmp/cccDx6aj.s:446    .text:00000000000002cc .L0 
     /tmp/cccDx6aj.s:453    .text:00000000000002e4 .L0 
     /tmp/cccDx6aj.s:454    .text:00000000000002e4 .L0 
GAS LISTING /tmp/cccDx6aj.s 			page 26


     /tmp/cccDx6aj.s:456    .text:00000000000002e8 .L0 
     /tmp/cccDx6aj.s:457    .text:00000000000002e8 .L0 
     /tmp/cccDx6aj.s:462    .text:00000000000002f0 .L0 
     /tmp/cccDx6aj.s:469    .text:00000000000002f8 .L0 
     /tmp/cccDx6aj.s:470    .text:00000000000002fc .L0 
     /tmp/cccDx6aj.s:472    .text:0000000000000300 .L0 
     /tmp/cccDx6aj.s:473    .text:0000000000000300 .L0 
     /tmp/cccDx6aj.s:475    .text:0000000000000304 .L0 
     /tmp/cccDx6aj.s:478    .text:0000000000000308 .L0 
     /tmp/cccDx6aj.s:481    .text:000000000000030c .L0 
     /tmp/cccDx6aj.s:483    .text:0000000000000310 .L0 
     /tmp/cccDx6aj.s:486    .text:0000000000000314 .L0 
     /tmp/cccDx6aj.s:488    .text:0000000000000318 .L0 
     /tmp/cccDx6aj.s:499    .text:0000000000000318 _Z5test2v
     /tmp/cccDx6aj.s:502    .text:0000000000000318 .L0 
     /tmp/cccDx6aj.s:503    .text:0000000000000318 .L0 
     /tmp/cccDx6aj.s:504    .text:000000000000031c .L0 
     /tmp/cccDx6aj.s:508    .text:0000000000000328 .L0 
     /tmp/cccDx6aj.s:509    .text:0000000000000328 .L0 
     /tmp/cccDx6aj.s:510    .text:0000000000000328 .L0 
     /tmp/cccDx6aj.s:512    .text:000000000000032c .L0 
     /tmp/cccDx6aj.s:514    .text:000000000000032c .L0 
     /tmp/cccDx6aj.s:515    .text:000000000000032c .L0 
     /tmp/cccDx6aj.s:524    .text:0000000000000350 .L0 
     /tmp/cccDx6aj.s:525    .text:0000000000000350 .L0 
     /tmp/cccDx6aj.s:526    .text:0000000000000350 .L0 
     /tmp/cccDx6aj.s:528    .text:0000000000000354 .L0 
     /tmp/cccDx6aj.s:529    .text:0000000000000354 .L0 
     /tmp/cccDx6aj.s:532    .text:000000000000035c .L0 
     /tmp/cccDx6aj.s:533    .text:000000000000035c .L0 
     /tmp/cccDx6aj.s:539    .text:0000000000000374 .L0 
     /tmp/cccDx6aj.s:540    .text:0000000000000374 .L0 
     /tmp/cccDx6aj.s:544    .text:0000000000000380 .L0 
     /tmp/cccDx6aj.s:545    .text:0000000000000384 .L0 
     /tmp/cccDx6aj.s:547    .text:0000000000000388 .L0 
     /tmp/cccDx6aj.s:548    .text:0000000000000388 .L0 
     /tmp/cccDx6aj.s:550    .text:000000000000038c .L0 
     /tmp/cccDx6aj.s:553    .text:0000000000000390 .L0 
     /tmp/cccDx6aj.s:555    .text:0000000000000394 .L0 
     /tmp/cccDx6aj.s:561    .text:0000000000000394 _Z4ctorPv
     /tmp/cccDx6aj.s:565    .text:0000000000000394 .L0 
     /tmp/cccDx6aj.s:567    .text:0000000000000394 .L0 
     /tmp/cccDx6aj.s:568    .text:0000000000000398 .L0 
     /tmp/cccDx6aj.s:570    .text:000000000000039c .L0 
     /tmp/cccDx6aj.s:572    .text:00000000000003a0 .L0 
     /tmp/cccDx6aj.s:574    .text:00000000000003a0 .L0 
     /tmp/cccDx6aj.s:575    .text:00000000000003a0 .L0 
     /tmp/cccDx6aj.s:578    .text:00000000000003a8 .L0 
     /tmp/cccDx6aj.s:579    .text:00000000000003a8 .L0 
     /tmp/cccDx6aj.s:582    .text:00000000000003b0 .L0 
     /tmp/cccDx6aj.s:583    .text:00000000000003b0 .L0 
     /tmp/cccDx6aj.s:586    .text:00000000000003b8 .L0 
     /tmp/cccDx6aj.s:587    .text:00000000000003bc .L0 
     /tmp/cccDx6aj.s:588    .text:00000000000003bc .L0 
     /tmp/cccDx6aj.s:590    .text:00000000000003c0 .L0 
     /tmp/cccDx6aj.s:592    .text:00000000000003c4 .L0 
     /tmp/cccDx6aj.s:612    .text:00000000000003c4 _ZN6SystemC2Ev
GAS LISTING /tmp/cccDx6aj.s 			page 27


     /tmp/cccDx6aj.s:615    .text:00000000000003c4 .L0 
     /tmp/cccDx6aj.s:617    .text:00000000000003c4 .L0 
     /tmp/cccDx6aj.s:619    .text:00000000000003c4 .L0 
     /tmp/cccDx6aj.s:620    .text:00000000000003c4 .L0 
     /tmp/cccDx6aj.s:622    .text:00000000000003cc .L0 
     /tmp/cccDx6aj.s:627    .text:00000000000003d4 .L0 
     /tmp/cccDx6aj.s:628    .text:00000000000003d8 .L0 
     /tmp/cccDx6aj.s:634    .text:00000000000003ec .L0 
     /tmp/cccDx6aj.s:635    .text:00000000000003ec .L0 
     /tmp/cccDx6aj.s:636    .text:00000000000003ec .L0 
     /tmp/cccDx6aj.s:637    .text:00000000000003ec .L0 
     /tmp/cccDx6aj.s:638    .text:00000000000003ec .L0 
     /tmp/cccDx6aj.s:640    .text:00000000000003f0 .L0 
     /tmp/cccDx6aj.s:644    .text:00000000000003f0 .L0 
     /tmp/cccDx6aj.s:645    .text:00000000000003f0 .L0 
     /tmp/cccDx6aj.s:648    .text:00000000000003fc .L0 
     /tmp/cccDx6aj.s:649    .text:00000000000003fc .L0 
     /tmp/cccDx6aj.s:652    .text:0000000000000404 .L0 
     /tmp/cccDx6aj.s:653    .text:0000000000000404 .L0 
     /tmp/cccDx6aj.s:662    .text:0000000000000424 .L0 
     /tmp/cccDx6aj.s:663    .text:0000000000000424 .L0 
     /tmp/cccDx6aj.s:673    .text:0000000000000444 .L0 
     /tmp/cccDx6aj.s:674    .text:0000000000000444 .L0 
     /tmp/cccDx6aj.s:678    .text:0000000000000450 .L0 
     /tmp/cccDx6aj.s:679    .text:0000000000000450 .L0 
     /tmp/cccDx6aj.s:683    .text:000000000000045c .L0 
     /tmp/cccDx6aj.s:684    .text:000000000000045c .L0 
     /tmp/cccDx6aj.s:688    .text:0000000000000468 .L0 
     /tmp/cccDx6aj.s:689    .text:0000000000000468 .L0 
     /tmp/cccDx6aj.s:693    .text:0000000000000474 .L0 
     /tmp/cccDx6aj.s:694    .text:0000000000000474 .L0 
     /tmp/cccDx6aj.s:700    .text:0000000000000484 .L0 
     /tmp/cccDx6aj.s:701    .text:0000000000000484 .L0 
     /tmp/cccDx6aj.s:706    .text:0000000000000490 .L0 
     /tmp/cccDx6aj.s:707    .text:0000000000000490 .L0 
     /tmp/cccDx6aj.s:712    .text:00000000000004a0 .L0 
     /tmp/cccDx6aj.s:713    .text:00000000000004a0 .L0 
     /tmp/cccDx6aj.s:717    .text:00000000000004ac .L0 
     /tmp/cccDx6aj.s:718    .text:00000000000004ac .L0 
     /tmp/cccDx6aj.s:722    .text:00000000000004b8 .L0 
     /tmp/cccDx6aj.s:723    .text:00000000000004b8 .L0 
     /tmp/cccDx6aj.s:727    .text:00000000000004c4 .L0 
     /tmp/cccDx6aj.s:728    .text:00000000000004c4 .L0 
     /tmp/cccDx6aj.s:732    .text:00000000000004d0 .L0 
     /tmp/cccDx6aj.s:734    .text:00000000000004d4 .L0 
     /tmp/cccDx6aj.s:735    .text:00000000000004d4 .L0 
     /tmp/cccDx6aj.s:744    .text:00000000000004f4 .L0 
     /tmp/cccDx6aj.s:745    .text:00000000000004f4 .L0 
     /tmp/cccDx6aj.s:746    .text:00000000000004f4 .L0 
     /tmp/cccDx6aj.s:750    .text:0000000000000500 .L0 
     /tmp/cccDx6aj.s:752    .text:0000000000000504 .L0 
     /tmp/cccDx6aj.s:753    .text:0000000000000504 .L0 
     /tmp/cccDx6aj.s:764    .text:0000000000000524 .L0 
     /tmp/cccDx6aj.s:772    .text:000000000000052c .L0 
     /tmp/cccDx6aj.s:773    .text:000000000000052c .L0 
     /tmp/cccDx6aj.s:781    .text:0000000000000540 .L0 
     /tmp/cccDx6aj.s:782    .text:0000000000000540 .L0 
GAS LISTING /tmp/cccDx6aj.s 			page 28


     /tmp/cccDx6aj.s:791    .text:0000000000000554 .L0 
     /tmp/cccDx6aj.s:792    .text:0000000000000554 .L0 
     /tmp/cccDx6aj.s:799    .text:0000000000000570 .L0 
     /tmp/cccDx6aj.s:803    .text:0000000000000574 .L0 
     /tmp/cccDx6aj.s:807    .text:000000000000057c .L0 
     /tmp/cccDx6aj.s:808    .text:000000000000057c .L0 
     /tmp/cccDx6aj.s:811    .text:0000000000000584 .L0 
     /tmp/cccDx6aj.s:812    .text:0000000000000584 .L0 
     /tmp/cccDx6aj.s:813    .text:0000000000000584 .L0 
     /tmp/cccDx6aj.s:820    .text:000000000000059c .L0 
     /tmp/cccDx6aj.s:821    .text:000000000000059c .L0 
     /tmp/cccDx6aj.s:822    .text:000000000000059c .L0 
     /tmp/cccDx6aj.s:824    .text:00000000000005a0 .L0 
     /tmp/cccDx6aj.s:826    .text:00000000000005a4 .L0 
     /tmp/cccDx6aj.s:829    .text:00000000000005ac .L0 
     /tmp/cccDx6aj.s:830    .text:00000000000005ac .L0 
     /tmp/cccDx6aj.s:835    .text:00000000000005b8 .L0 
     /tmp/cccDx6aj.s:836    .text:00000000000005b8 .L0 
     /tmp/cccDx6aj.s:841    .text:00000000000005c0 .L0 
     /tmp/cccDx6aj.s:842    .text:00000000000005c4 .L0 
     /tmp/cccDx6aj.s:844    .text:00000000000005c8 .L0 
     /tmp/cccDx6aj.s:845    .text:00000000000005c8 .L0 
     /tmp/cccDx6aj.s:847    .text:00000000000005cc .L0 
     /tmp/cccDx6aj.s:850    .text:00000000000005d0 .L0 
     /tmp/cccDx6aj.s:853    .text:00000000000005d4 .L0 
     /tmp/cccDx6aj.s:856    .text:00000000000005d8 .L0 
     /tmp/cccDx6aj.s:858    .text:00000000000005dc .L0 
     /tmp/cccDx6aj.s:612    .text:00000000000003c4 _ZN6SystemC1Ev
     /tmp/cccDx6aj.s:884    .bss:0000000000000000 _ZN6System11initializedE
     /tmp/cccDx6aj.s:881    .bss:0000000000000000 .LANCHOR1
     /tmp/cccDx6aj.s:888    .data.rel.ro.local:0000000000000000 .LANCHOR0
     /tmp/cccDx6aj.s:891    .data.rel.ro.local:0000000000000000 _ZL11CACHE_NAMES
     /tmp/cccDx6aj.s:910    .text:00000000000005dc .L0 
     /tmp/cccDx6aj.s:204    .text:0000000000000100 .L0 
     /tmp/cccDx6aj.s:148    .rodata.str1.8:0000000000000000 .LC0
     /tmp/cccDx6aj.s:297    .text:00000000000001c0 .L0 
     /tmp/cccDx6aj.s:325    .text:00000000000001fc .L0 
     /tmp/cccDx6aj.s:516    .text:0000000000000330 .L0 
     /tmp/cccDx6aj.s:493    .rodata.str1.8:0000000000000018 .LC1
     /tmp/cccDx6aj.s:518    .text:000000000000033c .L0 
     /tmp/cccDx6aj.s:535    .text:0000000000000364 .L0 
     /tmp/cccDx6aj.s:620    .text:00000000000003c4 .L0 
     /tmp/cccDx6aj.s:646    .text:00000000000003f4 .L0 
     /tmp/cccDx6aj.s:597    .rodata.str1.8:0000000000000028 .LC2
     /tmp/cccDx6aj.s:656    .text:0000000000000410 .L0 
     /tmp/cccDx6aj.s:666    .text:0000000000000430 .L0 
     /tmp/cccDx6aj.s:603    .rodata.str1.8:0000000000000038 .LC4
     /tmp/cccDx6aj.s:736    .text:00000000000004d8 .L0 
     /tmp/cccDx6aj.s:606    .rodata.str1.8:0000000000000040 .LC5
     /tmp/cccDx6aj.s:738    .text:00000000000004e4 .L0 
     /tmp/cccDx6aj.s:754    .text:0000000000000508 .L0 
     /tmp/cccDx6aj.s:756    .text:0000000000000514 .L0 
     /tmp/cccDx6aj.s:600    .rodata.str1.8:0000000000000030 .LC3
     /tmp/cccDx6aj.s:773    .text:000000000000052c .L0 
     /tmp/cccDx6aj.s:782    .text:0000000000000540 .L0 
     /tmp/cccDx6aj.s:793    .text:0000000000000558 .L0 
     /tmp/cccDx6aj.s:814    .text:0000000000000588 .L0 
GAS LISTING /tmp/cccDx6aj.s 			page 29


     /tmp/cccDx6aj.s:40     .text:0000000000000024 .L1
     /tmp/cccDx6aj.s:27     .text:0000000000000010 .L3
     /tmp/cccDx6aj.s:118    .text:0000000000000080 .L10
     /tmp/cccDx6aj.s:133    .text:000000000000009c .L8
     /tmp/cccDx6aj.s:113    .text:000000000000007c .L9
     /tmp/cccDx6aj.s:264    .text:0000000000000180 .L17
     /tmp/cccDx6aj.s:301    .text:00000000000001d4 .L14
     /tmp/cccDx6aj.s:235    .text:000000000000014c .L15
     /tmp/cccDx6aj.s:256    .text:0000000000000178 .L16
     /tmp/cccDx6aj.s:338    .text:0000000000000220 .L21
     /tmp/cccDx6aj.s:352    .text:000000000000023c .L19
     /tmp/cccDx6aj.s:359    .text:000000000000024c .L18
     /tmp/cccDx6aj.s:318    .text:00000000000001f4 .L22
     /tmp/cccDx6aj.s:328    .text:000000000000020c .L20
     /tmp/cccDx6aj.s:322    .text:00000000000001fc .L24
     /tmp/cccDx6aj.s:466    .text:00000000000002f8 .L25
     /tmp/cccDx6aj.s:439    .text:00000000000002c8 .L27
     /tmp/cccDx6aj.s:624    .text:00000000000003d4 .L47
     /tmp/cccDx6aj.s:768    .text:000000000000052c .L48
     /tmp/cccDx6aj.s:779    .text:0000000000000540 .L49
     /tmp/cccDx6aj.s:801    .text:0000000000000574 .L40
     /tmp/cccDx6aj.s:742    .text:00000000000004f4 .L36
     /tmp/cccDx6aj.s:760    .text:0000000000000524 .L38
     /tmp/cccDx6aj.s:788    .text:0000000000000554 .L50
     /tmp/cccDx6aj.s:833    .text:00000000000005b8 .L41
     /tmp/cccDx6aj.s:818    .text:000000000000059c .L42
     /tmp/cccDx6aj.s:866    .rodata.str1.8:0000000000000048 .LC6
     /tmp/cccDx6aj.s:869    .rodata.str1.8:0000000000000050 .LC7
     /tmp/cccDx6aj.s:872    .rodata.str1.8:0000000000000058 .LC8
     /tmp/cccDx6aj.s:875    .rodata.str1.8:0000000000000060 .LC9
     /tmp/cccDx6aj.s:878    .rodata.str1.8:0000000000000068 .LC10
     /tmp/cccDx6aj.s:3818   .debug_abbrev:0000000000000000 .Ldebug_abbrev0
     /tmp/cccDx6aj.s:5949   .debug_str:00000000000016d0 .LASF343
     /tmp/cccDx6aj.s:5399   .debug_str:000000000000035c .LASF344
     /tmp/cccDx6aj.s:5877   .debug_str:00000000000013f8 .LASF345
     /tmp/cccDx6aj.s:5      .text:0000000000000000 .Ltext0
     /tmp/cccDx6aj.s:898    .text:00000000000005dc .Letext0
     /tmp/cccDx6aj.s:5301   .debug_line:0000000000000000 .Ldebug_line0
     /tmp/cccDx6aj.s:5351   .debug_str:00000000000001c2 .LASF0
     /tmp/cccDx6aj.s:5945   .debug_str:00000000000016b5 .LASF1
     /tmp/cccDx6aj.s:5883   .debug_str:0000000000001454 .LASF2
     /tmp/cccDx6aj.s:5839   .debug_str:00000000000012db .LASF4
     /tmp/cccDx6aj.s:5857   .debug_str:0000000000001368 .LASF3
     /tmp/cccDx6aj.s:5507   .debug_str:00000000000006d9 .LASF5
     /tmp/cccDx6aj.s:5569   .debug_str:0000000000000949 .LASF6
     /tmp/cccDx6aj.s:5759   .debug_str:0000000000001047 .LASF7
     /tmp/cccDx6aj.s:5395   .debug_str:000000000000032f .LASF8
     /tmp/cccDx6aj.s:5929   .debug_str:00000000000015d8 .LASF9
     /tmp/cccDx6aj.s:5513   .debug_str:00000000000006f7 .LASF10
     /tmp/cccDx6aj.s:5437   .debug_str:0000000000000475 .LASF11
     /tmp/cccDx6aj.s:5591   .debug_str:0000000000000a3a .LASF12
     /tmp/cccDx6aj.s:5523   .debug_str:000000000000074c .LASF13
     /tmp/cccDx6aj.s:5811   .debug_str:0000000000001225 .LASF14
     /tmp/cccDx6aj.s:5529   .debug_str:0000000000000788 .LASF15
     /tmp/cccDx6aj.s:5483   .debug_str:0000000000000634 .LASF16
     /tmp/cccDx6aj.s:5561   .debug_str:00000000000008f6 .LASF17
     /tmp/cccDx6aj.s:5863   .debug_str:000000000000138f .LASF18
GAS LISTING /tmp/cccDx6aj.s 			page 30


     /tmp/cccDx6aj.s:5985   .debug_str:00000000000018a2 .LASF19
     /tmp/cccDx6aj.s:5449   .debug_str:00000000000004bb .LASF20
     /tmp/cccDx6aj.s:5311   .debug_str:000000000000004f .LASF21
     /tmp/cccDx6aj.s:5983   .debug_str:0000000000001894 .LASF22
     /tmp/cccDx6aj.s:5633   .debug_str:0000000000000bd9 .LASF23
     /tmp/cccDx6aj.s:5733   .debug_str:0000000000000fb6 .LASF24
     /tmp/cccDx6aj.s:5487   .debug_str:0000000000000675 .LASF26
     /tmp/cccDx6aj.s:5389   .debug_str:00000000000002f2 .LASF159
     /tmp/cccDx6aj.s:5413   .debug_str:00000000000003c6 .LASF25
     /tmp/cccDx6aj.s:5343   .debug_str:0000000000000170 .LASF27
     /tmp/cccDx6aj.s:5423   .debug_str:000000000000040c .LASF28
     /tmp/cccDx6aj.s:5879   .debug_str:0000000000001429 .LASF29
     /tmp/cccDx6aj.s:5819   .debug_str:0000000000001248 .LASF30
     /tmp/cccDx6aj.s:5751   .debug_str:0000000000001013 .LASF31
     /tmp/cccDx6aj.s:5671   .debug_str:0000000000000d1d .LASF33
     /tmp/cccDx6aj.s:5557   .debug_str:00000000000008c2 .LASF32
     /tmp/cccDx6aj.s:5931   .debug_str:00000000000015e6 .LASF34
     /tmp/cccDx6aj.s:5393   .debug_str:0000000000000314 .LASF35
     /tmp/cccDx6aj.s:5583   .debug_str:00000000000009c0 .LASF36
     /tmp/cccDx6aj.s:5455   .debug_str:00000000000004e0 .LASF37
     /tmp/cccDx6aj.s:5881   .debug_str:000000000000142e .LASF38
     /tmp/cccDx6aj.s:5691   .debug_str:0000000000000dd7 .LASF39
     /tmp/cccDx6aj.s:5725   .debug_str:0000000000000f64 .LASF40
     /tmp/cccDx6aj.s:5347   .debug_str:0000000000000199 .LASF41
     /tmp/cccDx6aj.s:5541   .debug_str:00000000000007df .LASF42
     /tmp/cccDx6aj.s:5549   .debug_str:0000000000000863 .LASF43
     /tmp/cccDx6aj.s:5897   .debug_str:00000000000014a9 .LASF44
     /tmp/cccDx6aj.s:5707   .debug_str:0000000000000e48 .LASF45
     /tmp/cccDx6aj.s:5481   .debug_str:0000000000000611 .LASF46
     /tmp/cccDx6aj.s:5459   .debug_str:0000000000000506 .LASF47
     /tmp/cccDx6aj.s:5905   .debug_str:000000000000150b .LASF48
     /tmp/cccDx6aj.s:5971   .debug_str:000000000000183c .LASF49
     /tmp/cccDx6aj.s:5713   .debug_str:0000000000000e9c .LASF50
     /tmp/cccDx6aj.s:5377   .debug_str:0000000000000299 .LASF51
     /tmp/cccDx6aj.s:5711   .debug_str:0000000000000e77 .LASF52
     /tmp/cccDx6aj.s:5901   .debug_str:00000000000014e5 .LASF53
     /tmp/cccDx6aj.s:5545   .debug_str:0000000000000832 .LASF54
     /tmp/cccDx6aj.s:5421   .debug_str:00000000000003f9 .LASF55
     /tmp/cccDx6aj.s:5609   .debug_str:0000000000000adb .LASF56
     /tmp/cccDx6aj.s:5571   .debug_str:000000000000095c .LASF57
     /tmp/cccDx6aj.s:5631   .debug_str:0000000000000bb9 .LASF58
     /tmp/cccDx6aj.s:5321   .debug_str:00000000000000ac .LASF59
     /tmp/cccDx6aj.s:5935   .debug_str:0000000000001627 .LASF60
     /tmp/cccDx6aj.s:5969   .debug_str:0000000000001823 .LASF61
     /tmp/cccDx6aj.s:5517   .debug_str:0000000000000710 .LASF62
     /tmp/cccDx6aj.s:5535   .debug_str:00000000000007b9 .LASF63
     /tmp/cccDx6aj.s:5683   .debug_str:0000000000000d7a .LASF64
     /tmp/cccDx6aj.s:5303   .debug_str:0000000000000000 .LASF65
     /tmp/cccDx6aj.s:5845   .debug_str:0000000000001312 .LASF66
     /tmp/cccDx6aj.s:5913   .debug_str:0000000000001576 .LASF67
     /tmp/cccDx6aj.s:5825   .debug_str:0000000000001266 .LASF69
     /tmp/cccDx6aj.s:5781   .debug_str:000000000000114c .LASF68
     /tmp/cccDx6aj.s:5669   .debug_str:0000000000000cf1 .LASF70
     /tmp/cccDx6aj.s:5337   .debug_str:0000000000000135 .LASF71
     /tmp/cccDx6aj.s:5775   .debug_str:00000000000010ec .LASF72
     /tmp/cccDx6aj.s:5873   .debug_str:00000000000013dc .LASF73
     /tmp/cccDx6aj.s:5323   .debug_str:00000000000000c3 .LASF74
GAS LISTING /tmp/cccDx6aj.s 			page 31


     /tmp/cccDx6aj.s:5975   .debug_str:0000000000001858 .LASF77
     /tmp/cccDx6aj.s:5793   .debug_str:00000000000011a4 .LASF79
     /tmp/cccDx6aj.s:5799   .debug_str:00000000000011d0 .LASF75
     /tmp/cccDx6aj.s:5899   .debug_str:00000000000014d0 .LASF76
     /tmp/cccDx6aj.s:5451   .debug_str:00000000000004c9 .LASF78
     /tmp/cccDx6aj.s:5837   .debug_str:00000000000012c8 .LASF80
     /tmp/cccDx6aj.s:5503   .debug_str:00000000000006be .LASF81
     /tmp/cccDx6aj.s:5639   .debug_str:0000000000000bf6 .LASF82
     /tmp/cccDx6aj.s:5947   .debug_str:00000000000016c8 .LASF83
     /tmp/cccDx6aj.s:5505   .debug_str:00000000000006c5 .LASF84
     /tmp/cccDx6aj.s:5803   .debug_str:00000000000011f1 .LASF85
     /tmp/cccDx6aj.s:5807   .debug_str:0000000000001202 .LASF86
     /tmp/cccDx6aj.s:5519   .debug_str:0000000000000736 .LASF87
     /tmp/cccDx6aj.s:5667   .debug_str:0000000000000cdb .LASF88
     /tmp/cccDx6aj.s:5493   .debug_str:0000000000000693 .LASF89
     /tmp/cccDx6aj.s:5727   .debug_str:0000000000000f8e .LASF90
     /tmp/cccDx6aj.s:5659   .debug_str:0000000000000c87 .LASF91
     /tmp/cccDx6aj.s:5995   .debug_str:00000000000018f2 .LASF92
     /tmp/cccDx6aj.s:5383   .debug_str:00000000000002cc .LASF93
     /tmp/cccDx6aj.s:5843   .debug_str:00000000000012fa .LASF94
     /tmp/cccDx6aj.s:5895   .debug_str:00000000000014a2 .LASF95
     /tmp/cccDx6aj.s:5479   .debug_str:00000000000005fe .LASF96
     /tmp/cccDx6aj.s:5497   .debug_str:00000000000006a8 .LASF97
     /tmp/cccDx6aj.s:5531   .debug_str:000000000000079e .LASF98
     /tmp/cccDx6aj.s:5885   .debug_str:0000000000001462 .LASF99
     /tmp/cccDx6aj.s:5391   .debug_str:0000000000000301 .LASF100
     /tmp/cccDx6aj.s:5563   .debug_str:00000000000008fb .LASF101
     /tmp/cccDx6aj.s:5989   .debug_str:00000000000018b6 .LASF102
     /tmp/cccDx6aj.s:5889   .debug_str:0000000000001476 .LASF103
     /tmp/cccDx6aj.s:6005   .debug_str:0000000000001952 .LASF104
     /tmp/cccDx6aj.s:5605   .debug_str:0000000000000aba .LASF105
     /tmp/cccDx6aj.s:5601   .debug_str:0000000000000a92 .LASF106
     /tmp/cccDx6aj.s:5625   .debug_str:0000000000000b99 .LASF107
     /tmp/cccDx6aj.s:5559   .debug_str:00000000000008d8 .LASF108
     /tmp/cccDx6aj.s:5933   .debug_str:0000000000001609 .LASF109
     /tmp/cccDx6aj.s:5429   .debug_str:0000000000000426 .LASF110
     /tmp/cccDx6aj.s:5761   .debug_str:000000000000105a .LASF111
     /tmp/cccDx6aj.s:5737   .debug_str:0000000000000fc3 .LASF112
     /tmp/cccDx6aj.s:5521   .debug_str:0000000000000740 .LASF113
     /tmp/cccDx6aj.s:5709   .debug_str:0000000000000e5e .LASF114
     /tmp/cccDx6aj.s:5731   .debug_str:0000000000000fb0 .LASF115
     /tmp/cccDx6aj.s:5651   .debug_str:0000000000000c4f .LASF116
     /tmp/cccDx6aj.s:5789   .debug_str:0000000000001177 .LASF117
     /tmp/cccDx6aj.s:5565   .debug_str:0000000000000902 .LASF118
     /tmp/cccDx6aj.s:5357   .debug_str:00000000000001db .LASF119
     /tmp/cccDx6aj.s:5615   .debug_str:0000000000000b26 .LASF120
     /tmp/cccDx6aj.s:6007   .debug_str:0000000000001973 .LASF121
     /tmp/cccDx6aj.s:5911   .debug_str:0000000000001558 .LASF122
     /tmp/cccDx6aj.s:5997   .debug_str:000000000000190a .LASF123
     /tmp/cccDx6aj.s:5867   .debug_str:00000000000013a2 .LASF124
     /tmp/cccDx6aj.s:5991   .debug_str:00000000000018c9 .LASF125
     /tmp/cccDx6aj.s:5721   .debug_str:0000000000000f17 .LASF126
     /tmp/cccDx6aj.s:5319   .debug_str:0000000000000092 .LASF127
     /tmp/cccDx6aj.s:5543   .debug_str:000000000000080b .LASF128
     /tmp/cccDx6aj.s:5471   .debug_str:0000000000000595 .LASF129
     /tmp/cccDx6aj.s:5937   .debug_str:000000000000164b .LASF130
     /tmp/cccDx6aj.s:5371   .debug_str:0000000000000233 .LASF131
GAS LISTING /tmp/cccDx6aj.s 			page 32


     /tmp/cccDx6aj.s:5951   .debug_str:00000000000017a0 .LASF132
     /tmp/cccDx6aj.s:5361   .debug_str:00000000000001fa .LASF133
     /tmp/cccDx6aj.s:5907   .debug_str:000000000000152f .LASF134
     /tmp/cccDx6aj.s:5509   .debug_str:00000000000006e0 .LASF135
     /tmp/cccDx6aj.s:5841   .debug_str:00000000000012e2 .LASF136
     /tmp/cccDx6aj.s:5909   .debug_str:000000000000154f .LASF137
     /tmp/cccDx6aj.s:5763   .debug_str:0000000000001065 .LASF138
     /tmp/cccDx6aj.s:5597   .debug_str:0000000000000a77 .LASF139
     /tmp/cccDx6aj.s:5963   .debug_str:0000000000001806 .LASF140
     /tmp/cccDx6aj.s:5555   .debug_str:00000000000008b5 .LASF141
     /tmp/cccDx6aj.s:5621   .debug_str:0000000000000b75 .LASF142
     /tmp/cccDx6aj.s:5643   .debug_str:0000000000000c10 .LASF143
     /tmp/cccDx6aj.s:5777   .debug_str:0000000000001108 .LASF144
     /tmp/cccDx6aj.s:5817   .debug_str:000000000000123b .LASF145
     /tmp/cccDx6aj.s:5611   .debug_str:0000000000000afb .LASF146
     /tmp/cccDx6aj.s:5599   .debug_str:0000000000000a7e .LASF346
     /tmp/cccDx6aj.s:5341   .debug_str:000000000000014e .LASF347
     /tmp/cccDx6aj.s:5749   .debug_str:000000000000100b .LASF299
     /tmp/cccDx6aj.s:5355   .debug_str:00000000000001d4 .LASF151
     /tmp/cccDx6aj.s:5533   .debug_str:00000000000007b1 .LASF147
     /tmp/cccDx6aj.s:5629   .debug_str:0000000000000bb3 .LASF148
     /tmp/cccDx6aj.s:5617   .debug_str:0000000000000b48 .LASF149
     /tmp/cccDx6aj.s:5823   .debug_str:000000000000125e .LASF150
     /tmp/cccDx6aj.s:5757   .debug_str:0000000000001042 .LASF152
     /tmp/cccDx6aj.s:5401   .debug_str:0000000000000372 .LASF153
     /tmp/cccDx6aj.s:5865   .debug_str:0000000000001397 .LASF154
     /tmp/cccDx6aj.s:5305   .debug_str:0000000000000013 .LASF155
     /tmp/cccDx6aj.s:5441   .debug_str:0000000000000489 .LASF156
     /tmp/cccDx6aj.s:5537   .debug_str:00000000000007d5 .LASF157
     /tmp/cccDx6aj.s:5953   .debug_str:00000000000017c4 .LASF158
     /tmp/cccDx6aj.s:5675   .debug_str:0000000000000d49 .LASF160
     /tmp/cccDx6aj.s:5893   .debug_str:000000000000149a .LASF161
     /tmp/cccDx6aj.s:5419   .debug_str:00000000000003e6 .LASF162
     /tmp/cccDx6aj.s:5701   .debug_str:0000000000000e1a .LASF163
     /tmp/cccDx6aj.s:5547   .debug_str:0000000000000857 .LASF164
     /tmp/cccDx6aj.s:5697   .debug_str:0000000000000e05 .LASF165
     /tmp/cccDx6aj.s:5365   .debug_str:000000000000020f .LASF166
     /tmp/cccDx6aj.s:5539   .debug_str:00000000000007da .LASF167
     /tmp/cccDx6aj.s:5861   .debug_str:0000000000001380 .LASF168
     /tmp/cccDx6aj.s:5603   .debug_str:0000000000000ab1 .LASF169
     /tmp/cccDx6aj.s:5687   .debug_str:0000000000000dbc .LASF170
     /tmp/cccDx6aj.s:5871   .debug_str:00000000000013c6 .LASF171
     /tmp/cccDx6aj.s:5363   .debug_str:000000000000020a .LASF172
     /tmp/cccDx6aj.s:5739   .debug_str:0000000000000fdb .LASF173
     /tmp/cccDx6aj.s:5447   .debug_str:00000000000004b6 .LASF174
     /tmp/cccDx6aj.s:5453   .debug_str:00000000000004d0 .LASF175
     /tmp/cccDx6aj.s:5515   .debug_str:0000000000000706 .LASF176
     /tmp/cccDx6aj.s:5385   .debug_str:00000000000002d7 .LASF177
     /tmp/cccDx6aj.s:5923   .debug_str:00000000000015b1 .LASF178
     /tmp/cccDx6aj.s:5467   .debug_str:0000000000000544 .LASF179
     /tmp/cccDx6aj.s:5329   .debug_str:000000000000010a .LASF180
     /tmp/cccDx6aj.s:5801   .debug_str:00000000000011d9 .LASF181
     /tmp/cccDx6aj.s:5689   .debug_str:0000000000000dcf .LASF182
     /tmp/cccDx6aj.s:5587   .debug_str:0000000000000a0e .LASF183
     /tmp/cccDx6aj.s:5405   .debug_str:000000000000039f .LASF184
     /tmp/cccDx6aj.s:5869   .debug_str:00000000000013c1 .LASF185
     /tmp/cccDx6aj.s:5699   .debug_str:0000000000000e15 .LASF186
GAS LISTING /tmp/cccDx6aj.s 			page 33


     /tmp/cccDx6aj.s:5833   .debug_str:00000000000012b2 .LASF187
     /tmp/cccDx6aj.s:5331   .debug_str:0000000000000116 .LASF188
     /tmp/cccDx6aj.s:5501   .debug_str:00000000000006b9 .LASF189
     /tmp/cccDx6aj.s:5673   .debug_str:0000000000000d41 .LASF190
     /tmp/cccDx6aj.s:5353   .debug_str:00000000000001cf .LASF191
     /tmp/cccDx6aj.s:5349   .debug_str:00000000000001b8 .LASF192
     /tmp/cccDx6aj.s:5627   .debug_str:0000000000000baa .LASF193
     /tmp/cccDx6aj.s:5875   .debug_str:00000000000013ef .LASF194
     /tmp/cccDx6aj.s:5693   .debug_str:0000000000000df4 .LASF195
     /tmp/cccDx6aj.s:5961   .debug_str:00000000000017fe .LASF196
     /tmp/cccDx6aj.s:5979   .debug_str:000000000000186d .LASF197
     /tmp/cccDx6aj.s:5891   .debug_str:0000000000001489 .LASF198
     /tmp/cccDx6aj.s:5955   .debug_str:00000000000017c9 .LASF199
     /tmp/cccDx6aj.s:5827   .debug_str:0000000000001280 .LASF200
     /tmp/cccDx6aj.s:5993   .debug_str:00000000000018e2 .LASF201
     /tmp/cccDx6aj.s:5381   .debug_str:00000000000002ba .LASF202
     /tmp/cccDx6aj.s:5443   .debug_str:00000000000004a0 .LASF203
     /tmp/cccDx6aj.s:5425   .debug_str:0000000000000411 .LASF204
     /tmp/cccDx6aj.s:5999   .debug_str:000000000000191c .LASF205
     /tmp/cccDx6aj.s:5461   .debug_str:000000000000051d .LASF206
     /tmp/cccDx6aj.s:5855   .debug_str:000000000000135c .LASF207
     /tmp/cccDx6aj.s:5705   .debug_str:0000000000000e3e .LASF208
     /tmp/cccDx6aj.s:5635   .debug_str:0000000000000bde .LASF209
     /tmp/cccDx6aj.s:5317   .debug_str:0000000000000087 .LASF210
     /tmp/cccDx6aj.s:5463   .debug_str:0000000000000529 .LASF211
     /tmp/cccDx6aj.s:5887   .debug_str:0000000000001469 .LASF212
     /tmp/cccDx6aj.s:5333   .debug_str:0000000000000120 .LASF213
     /tmp/cccDx6aj.s:5849   .debug_str:0000000000001342 .LASF214
     /tmp/cccDx6aj.s:5433   .debug_str:000000000000045d .LASF215
     /tmp/cccDx6aj.s:5335   .debug_str:000000000000012a .LASF216
     /tmp/cccDx6aj.s:5921   .debug_str:00000000000015a8 .LASF217
     /tmp/cccDx6aj.s:5829   .debug_str:0000000000001288 .LASF218
     /tmp/cccDx6aj.s:5767   .debug_str:0000000000001086 .LASF219
     /tmp/cccDx6aj.s:5325   .debug_str:00000000000000e3 .LASF220
     /tmp/cccDx6aj.s:5661   .debug_str:0000000000000c92 .LASF221
     /tmp/cccDx6aj.s:5397   .debug_str:000000000000033f .LASF222
     /tmp/cccDx6aj.s:5359   .debug_str:00000000000001f0 .LASF223
     /tmp/cccDx6aj.s:6003   .debug_str:0000000000001935 .LASF224
     /tmp/cccDx6aj.s:5663   .debug_str:0000000000000c9c .LASF225
     /tmp/cccDx6aj.s:5847   .debug_str:0000000000001332 .LASF226
     /tmp/cccDx6aj.s:5619   .debug_str:0000000000000b51 .LASF227
     /tmp/cccDx6aj.s:5379   .debug_str:00000000000002b1 .LASF228
     /tmp/cccDx6aj.s:5791   .debug_str:0000000000001186 .LASF229
     /tmp/cccDx6aj.s:5765   .debug_str:000000000000107a .LASF230
     /tmp/cccDx6aj.s:5715   .debug_str:0000000000000ebf .LASF231
     /tmp/cccDx6aj.s:5735   .debug_str:0000000000000fbd .LASF232
     /tmp/cccDx6aj.s:5665   .debug_str:0000000000000cbb .LASF233
     /tmp/cccDx6aj.s:5581   .debug_str:00000000000009b3 .LASF234
     /tmp/cccDx6aj.s:5695   .debug_str:0000000000000dff .LASF235
     /tmp/cccDx6aj.s:5821   .debug_str:0000000000001259 .LASF236
     /tmp/cccDx6aj.s:5679   .debug_str:0000000000000d60 .LASF237
     /tmp/cccDx6aj.s:5315   .debug_str:000000000000007e .LASF238
     /tmp/cccDx6aj.s:5407   .debug_str:00000000000003a4 .LASF239
     /tmp/cccDx6aj.s:5917   .debug_str:000000000000158d .LASF240
     /tmp/cccDx6aj.s:5805   .debug_str:00000000000011f9 .LASF241
     /tmp/cccDx6aj.s:5815   .debug_str:0000000000001236 .LASF242
     /tmp/cccDx6aj.s:5641   .debug_str:0000000000000c09 .LASF243
GAS LISTING /tmp/cccDx6aj.s 			page 34


     /tmp/cccDx6aj.s:5797   .debug_str:00000000000011be .LASF245
     /tmp/cccDx6aj.s:5785   .debug_str:0000000000001162 .LASF244
     /tmp/cccDx6aj.s:5927   .debug_str:00000000000015c5 .LASF246
     /tmp/cccDx6aj.s:5369   .debug_str:000000000000022e .LASF247
     /tmp/cccDx6aj.s:5809   .debug_str:0000000000001216 .LASF248
     /tmp/cccDx6aj.s:5573   .debug_str:000000000000096f .LASF249
     /tmp/cccDx6aj.s:5753   .debug_str:000000000000102a .LASF250
     /tmp/cccDx6aj.s:6001   .debug_str:0000000000001928 .LASF251
     /tmp/cccDx6aj.s:5741   .debug_str:0000000000000feb .LASF252
     /tmp/cccDx6aj.s:5903   .debug_str:00000000000014fd .LASF253
     /tmp/cccDx6aj.s:5313   .debug_str:000000000000005b .LASF254
     /tmp/cccDx6aj.s:5729   .debug_str:0000000000000fa4 .LASF257
     /tmp/cccDx6aj.s:5771   .debug_str:00000000000010b9 .LASF259
     /tmp/cccDx6aj.s:5411   .debug_str:00000000000003ba .LASF255
     /tmp/cccDx6aj.s:5575   .debug_str:000000000000097f .LASF256
     /tmp/cccDx6aj.s:5435   .debug_str:0000000000000468 .LASF258
     /tmp/cccDx6aj.s:5477   .debug_str:00000000000005d5 .LASF260
     /tmp/cccDx6aj.s:5491   .debug_str:0000000000000687 .LASF261
     /tmp/cccDx6aj.s:5403   .debug_str:0000000000000377 .LASF262
     /tmp/cccDx6aj.s:5457   .debug_str:00000000000004f9 .LASF263
     /tmp/cccDx6aj.s:5779   .debug_str:0000000000001124 .LASF264
     /tmp/cccDx6aj.s:5919   .debug_str:0000000000001599 .LASF265
     /tmp/cccDx6aj.s:5485   .debug_str:000000000000064a .LASF266
     /tmp/cccDx6aj.s:5717   .debug_str:0000000000000ee1 .LASF267
     /tmp/cccDx6aj.s:5589   .debug_str:0000000000000a15 .LASF268
     /tmp/cccDx6aj.s:5851   .debug_str:000000000000134c .LASF269
     /tmp/cccDx6aj.s:5647   .debug_str:0000000000000c26 .LASF270
     /tmp/cccDx6aj.s:5677   .debug_str:0000000000000d55 .LASF271
     /tmp/cccDx6aj.s:5769   .debug_str:000000000000108f .LASF272
     /tmp/cccDx6aj.s:5495   .debug_str:000000000000069d .LASF273
     /tmp/cccDx6aj.s:5593   .debug_str:0000000000000a4a .LASF274
     /tmp/cccDx6aj.s:5595   .debug_str:0000000000000a6d .LASF275
     /tmp/cccDx6aj.s:5525   .debug_str:000000000000075c .LASF276
     /tmp/cccDx6aj.s:5327   .debug_str:00000000000000ff .LASF277
     /tmp/cccDx6aj.s:5723   .debug_str:0000000000000f3d .LASF278
     /tmp/cccDx6aj.s:5577   .debug_str:00000000000009a8 .LASF279
     /tmp/cccDx6aj.s:5925   .debug_str:00000000000015bf .LASF280
     /tmp/cccDx6aj.s:5465   .debug_str:0000000000000535 .LASF281
     /tmp/cccDx6aj.s:5637   .debug_str:0000000000000be7 .LASF282
     /tmp/cccDx6aj.s:5943   .debug_str:0000000000001687 .LASF283
     /tmp/cccDx6aj.s:5681   .debug_str:0000000000000d6b .LASF284
     /tmp/cccDx6aj.s:5551   .debug_str:000000000000087d .LASF285
     /tmp/cccDx6aj.s:5773   .debug_str:00000000000010e7 .LASF286
     /tmp/cccDx6aj.s:5585   .debug_str:00000000000009e8 .LASF287
     /tmp/cccDx6aj.s:5755   .debug_str:0000000000001034 .LASF288
     /tmp/cccDx6aj.s:5469   .debug_str:000000000000056c .LASF289
     /tmp/cccDx6aj.s:5831   .debug_str:00000000000012a4 .LASF290
     /tmp/cccDx6aj.s:5309   .debug_str:0000000000000026 .LASF291
     /tmp/cccDx6aj.s:5613   .debug_str:0000000000000b15 .LASF292
     /tmp/cccDx6aj.s:5373   .debug_str:000000000000024a .LASF293
     /tmp/cccDx6aj.s:5657   .debug_str:0000000000000c7a .LASF294
     /tmp/cccDx6aj.s:5567   .debug_str:000000000000091e .LASF295
     /tmp/cccDx6aj.s:5747   .debug_str:0000000000001000 .LASF296
     /tmp/cccDx6aj.s:5719   .debug_str:0000000000000ef0 .LASF297
     /tmp/cccDx6aj.s:5655   .debug_str:0000000000000c74 .LASF298
     /tmp/cccDx6aj.s:5307   .debug_str:000000000000001f .LASF300
     /tmp/cccDx6aj.s:5853   .debug_str:0000000000001355 .LASF301
GAS LISTING /tmp/cccDx6aj.s 			page 35


     /tmp/cccDx6aj.s:5915   .debug_str:0000000000001582 .LASF302
     /tmp/cccDx6aj.s:5431   .debug_str:0000000000000451 .LASF303
     /tmp/cccDx6aj.s:5417   .debug_str:00000000000003dc .LASF304
     /tmp/cccDx6aj.s:5579   .debug_str:00000000000009ae .LASF305
     /tmp/cccDx6aj.s:5685   .debug_str:0000000000000da3 .LASF348
     /tmp/cccDx6aj.s:5813   .debug_str:0000000000001231 .LASF306
     /tmp/cccDx6aj.s:5445   .debug_str:00000000000004b1 .LASF349
     /tmp/cccDx6aj.s:5743   .debug_str:0000000000000ff2 .LASF307
     /tmp/cccDx6aj.s:5745   .debug_str:0000000000000ff9 .LASF308
     /tmp/cccDx6aj.s:5965   .debug_str:0000000000001819 .LASF309
     /tmp/cccDx6aj.s:5967   .debug_str:000000000000181e .LASF310
     /tmp/cccDx6aj.s:5475   .debug_str:00000000000005c6 .LASF311
     /tmp/cccDx6aj.s:5607   .debug_str:0000000000000acc .LASF350
     /tmp/cccDx6aj.s:613    .text:00000000000003c4 .LFB52
     /tmp/cccDx6aj.s:859    .text:00000000000005dc .LFE52
     /tmp/cccDx6aj.s:4946   .debug_loc:0000000000000000 .LLST16
     /tmp/cccDx6aj.s:797    .text:0000000000000570 .LVL93
     /tmp/cccDx6aj.s:650    .text:0000000000000404 .LVL61
     /tmp/cccDx6aj.s:658    .text:0000000000000420 .LVL62
     /tmp/cccDx6aj.s:669    .text:0000000000000440 .LVL65
     /tmp/cccDx6aj.s:676    .text:0000000000000450 .LVL67
     /tmp/cccDx6aj.s:681    .text:000000000000045c .LVL68
     /tmp/cccDx6aj.s:686    .text:0000000000000468 .LVL69
     /tmp/cccDx6aj.s:691    .text:0000000000000474 .LVL70
     /tmp/cccDx6aj.s:696    .text:0000000000000480 .LVL71
     /tmp/cccDx6aj.s:704    .text:0000000000000490 .LVL74
     /tmp/cccDx6aj.s:710    .text:00000000000004a0 .LVL75
     /tmp/cccDx6aj.s:715    .text:00000000000004ac .LVL76
     /tmp/cccDx6aj.s:720    .text:00000000000004b8 .LVL77
     /tmp/cccDx6aj.s:725    .text:00000000000004c4 .LVL78
     /tmp/cccDx6aj.s:730    .text:00000000000004d0 .LVL79
     /tmp/cccDx6aj.s:741    .text:00000000000004f4 .LVL81
     /tmp/cccDx6aj.s:748    .text:0000000000000500 .LVL82
     /tmp/cccDx6aj.s:759    .text:0000000000000524 .LVL84
     /tmp/cccDx6aj.s:776    .text:000000000000053c .LVL88
     /tmp/cccDx6aj.s:785    .text:0000000000000550 .LVL91
     /tmp/cccDx6aj.s:809    .text:0000000000000584 .LVL95
     /tmp/cccDx6aj.s:817    .text:000000000000059c .LVL96
     /tmp/cccDx6aj.s:831    .text:00000000000005b4 .LVL97
     /tmp/cccDx6aj.s:837    .text:00000000000005c0 .LVL98
     /tmp/cccDx6aj.s:5281   .debug_ranges:0000000000000000 .Ldebug_ranges0
     /tmp/cccDx6aj.s:4960   .debug_loc:0000000000000039 .LLST17
     /tmp/cccDx6aj.s:4971   .debug_loc:000000000000006f .LLST18
     /tmp/cccDx6aj.s:4982   .debug_loc:00000000000000a5 .LLST19
     /tmp/cccDx6aj.s:4993   .debug_loc:00000000000000db .LLST20
     /tmp/cccDx6aj.s:5004   .debug_loc:0000000000000111 .LLST21
     /tmp/cccDx6aj.s:789    .text:0000000000000554 .LBB12
     /tmp/cccDx6aj.s:805    .text:000000000000057c .LBE12
     /tmp/cccDx6aj.s:5015   .debug_loc:0000000000000147 .LLST22
     /tmp/cccDx6aj.s:5339   .debug_str:0000000000000144 .LASF312
     /tmp/cccDx6aj.s:562    .text:0000000000000394 .LFB50
     /tmp/cccDx6aj.s:593    .text:00000000000003c4 .LFE50
     /tmp/cccDx6aj.s:5973   .debug_str:0000000000001852 .LASF313
     /tmp/cccDx6aj.s:5499   .debug_str:00000000000006af .LASF314
     /tmp/cccDx6aj.s:500    .text:0000000000000318 .LFB49
     /tmp/cccDx6aj.s:556    .text:0000000000000394 .LFE49
     /tmp/cccDx6aj.s:5022   .debug_loc:000000000000016a .LLST15
GAS LISTING /tmp/cccDx6aj.s 			page 36


     /tmp/cccDx6aj.s:520    .text:000000000000034c .LVL54
     /tmp/cccDx6aj.s:537    .text:0000000000000374 .LVL56
     /tmp/cccDx6aj.s:542    .text:0000000000000380 .LVL57
     /tmp/cccDx6aj.s:5783   .debug_str:000000000000115d .LASF315
     /tmp/cccDx6aj.s:5703   .debug_str:0000000000000e27 .LASF316
     /tmp/cccDx6aj.s:410    .text:0000000000000298 .LFB48
     /tmp/cccDx6aj.s:489    .text:0000000000000318 .LFE48
     /tmp/cccDx6aj.s:5795   .debug_str:00000000000011b9 .LASF317
     /tmp/cccDx6aj.s:5029   .debug_loc:000000000000018d .LLST11
     /tmp/cccDx6aj.s:5047   .debug_loc:00000000000001d9 .LLST12
     /tmp/cccDx6aj.s:5065   .debug_loc:0000000000000225 .LLST13
     /tmp/cccDx6aj.s:435    .text:00000000000002c4 .LBB8
     /tmp/cccDx6aj.s:467    .text:00000000000002f8 .LBE8
     /tmp/cccDx6aj.s:5079   .debug_loc:000000000000025e .LLST14
     /tmp/cccDx6aj.s:442    .text:00000000000002cc .LBB9
     /tmp/cccDx6aj.s:460    .text:00000000000002f0 .LBE9
     /tmp/cccDx6aj.s:5787   .debug_str:000000000000116a .LASF318
     /tmp/cccDx6aj.s:459    .text:00000000000002f0 .LVL48
     /tmp/cccDx6aj.s:5553   .debug_str:00000000000008ab .LASF319
     /tmp/cccDx6aj.s:155    .text:00000000000000a8 .LFB47
     /tmp/cccDx6aj.s:404    .text:0000000000000298 .LFE47
     /tmp/cccDx6aj.s:5859   .debug_str:000000000000137a .LASF320
     /tmp/cccDx6aj.s:5095   .debug_loc:00000000000002a8 .LLST5
     /tmp/cccDx6aj.s:5439   .debug_str:0000000000000484 .LASF321
     /tmp/cccDx6aj.s:5109   .debug_loc:00000000000002e1 .LLST6
     /tmp/cccDx6aj.s:5511   .debug_str:00000000000006eb .LASF322
     /tmp/cccDx6aj.s:5125   .debug_loc:000000000000032b .LLST7
     /tmp/cccDx6aj.s:5174   .debug_loc:00000000000003b6 .LLST8
     /tmp/cccDx6aj.s:5649   .debug_str:0000000000000c4a .LASF323
     /tmp/cccDx6aj.s:5185   .debug_loc:00000000000003ec .LLST9
     /tmp/cccDx6aj.s:244    .text:0000000000000160 .LVL24
     /tmp/cccDx6aj.s:255    .text:0000000000000178 .LVL25
     /tmp/cccDx6aj.s:282    .text:00000000000001a8 .LVL28
     /tmp/cccDx6aj.s:292    .text:00000000000001bc .LVL29
     /tmp/cccDx6aj.s:299    .text:00000000000001d0 .LVL30
     /tmp/cccDx6aj.s:313    .text:00000000000001ec .LBB7
     /tmp/cccDx6aj.s:360    .text:000000000000024c .LBE7
     /tmp/cccDx6aj.s:5192   .debug_loc:000000000000040f .LLST10
     /tmp/cccDx6aj.s:327    .text:000000000000020c .LVL34
     /tmp/cccDx6aj.s:334    .text:000000000000021c .LVL35
     /tmp/cccDx6aj.s:355    .text:0000000000000244 .LVL37
     /tmp/cccDx6aj.s:215    .text:0000000000000128 .LVL19
     /tmp/cccDx6aj.s:225    .text:000000000000013c .LVL22
     /tmp/cccDx6aj.s:307    .text:00000000000001e0 .LVL31
     /tmp/cccDx6aj.s:312    .text:00000000000001ec .LVL32
     /tmp/cccDx6aj.s:365    .text:0000000000000258 .LVL38
     /tmp/cccDx6aj.s:370    .text:0000000000000264 .LVL39
     /tmp/cccDx6aj.s:5987   .debug_str:00000000000018b0 .LASF351
     /tmp/cccDx6aj.s:5427   .debug_str:000000000000041a .LASF352
     /tmp/cccDx6aj.s:90     .text:0000000000000060 .LFB46
     /tmp/cccDx6aj.s:144    .text:00000000000000a8 .LFE46
     /tmp/cccDx6aj.s:5199   .debug_loc:0000000000000432 .LLST2
     /tmp/cccDx6aj.s:5210   .debug_loc:0000000000000468 .LLST3
     /tmp/cccDx6aj.s:5226   .debug_loc:00000000000004b2 .LLST4
     /tmp/cccDx6aj.s:5941   .debug_str:000000000000167d .LASF324
     /tmp/cccDx6aj.s:5939   .debug_str:000000000000166e .LASF325
     /tmp/cccDx6aj.s:56     .text:0000000000000030 .LFB45
GAS LISTING /tmp/cccDx6aj.s 			page 37


     /tmp/cccDx6aj.s:84     .text:0000000000000060 .LFE45
     /tmp/cccDx6aj.s:5238   .debug_loc:00000000000004e9 .LLST1
     /tmp/cccDx6aj.s:73     .text:0000000000000050 .LVL6
     /tmp/cccDx6aj.s:5645   .debug_str:0000000000000c1f .LASF326
     /tmp/cccDx6aj.s:5959   .debug_str:00000000000017ef .LASF327
     /tmp/cccDx6aj.s:10     .text:0000000000000000 .LFB44
     /tmp/cccDx6aj.s:50     .text:0000000000000030 .LFE44
     /tmp/cccDx6aj.s:5489   .debug_str:0000000000000681 .LASF328
     /tmp/cccDx6aj.s:23     .text:000000000000000c .LBB2
     /tmp/cccDx6aj.s:41     .text:0000000000000024 .LBE2
     /tmp/cccDx6aj.s:5252   .debug_loc:0000000000000522 .LLST0
     /tmp/cccDx6aj.s:5473   .debug_str:00000000000005ab .LASF329
     /tmp/cccDx6aj.s:5835   .debug_str:00000000000012b8 .LASF331
     /tmp/cccDx6aj.s:5375   .debug_str:0000000000000276 .LASF330
     /tmp/cccDx6aj.s:5367   .debug_str:000000000000021c .LASF332
     /tmp/cccDx6aj.s:5981   .debug_str:0000000000001878 .LASF333
     /tmp/cccDx6aj.s:5387   .debug_str:00000000000002e1 .LASF334
     /tmp/cccDx6aj.s:5957   .debug_str:00000000000017d2 .LASF335
     /tmp/cccDx6aj.s:5415   .debug_str:00000000000003cc .LASF336
     /tmp/cccDx6aj.s:5409   .debug_str:00000000000003ae .LASF337
     /tmp/cccDx6aj.s:5527   .debug_str:0000000000000780 .LASF338
     /tmp/cccDx6aj.s:5345   .debug_str:000000000000017b .LASF339
     /tmp/cccDx6aj.s:5653   .debug_str:0000000000000c61 .LASF340
     /tmp/cccDx6aj.s:5977   .debug_str:0000000000001861 .LASF341
     /tmp/cccDx6aj.s:5623   .debug_str:0000000000000b93 .LASF342
     /tmp/cccDx6aj.s:616    .text:00000000000003c4 .LVL60
     /tmp/cccDx6aj.s:660    .text:0000000000000424 .LVL63
     /tmp/cccDx6aj.s:667    .text:0000000000000438 .LVL64
     /tmp/cccDx6aj.s:851    .text:00000000000005d0 .LVL100
     /tmp/cccDx6aj.s:671    .text:0000000000000444 .LVL66
     /tmp/cccDx6aj.s:765    .text:0000000000000528 .LVL85
     /tmp/cccDx6aj.s:767    .text:000000000000052c .LVL86
     /tmp/cccDx6aj.s:787    .text:0000000000000554 .LVL92
     /tmp/cccDx6aj.s:698    .text:0000000000000484 .LVL72
     /tmp/cccDx6aj.s:702    .text:0000000000000488 .LVL73
     /tmp/cccDx6aj.s:854    .text:00000000000005d4 .LVL101
     /tmp/cccDx6aj.s:739    .text:00000000000004ec .LVL80
     /tmp/cccDx6aj.s:774    .text:0000000000000534 .LVL87
     /tmp/cccDx6aj.s:757    .text:000000000000051c .LVL83
     /tmp/cccDx6aj.s:778    .text:0000000000000540 .LVL89
     /tmp/cccDx6aj.s:783    .text:0000000000000548 .LVL90
     /tmp/cccDx6aj.s:848    .text:00000000000005cc .LVL99
     /tmp/cccDx6aj.s:522    .text:0000000000000350 .LVL55
     /tmp/cccDx6aj.s:551    .text:000000000000038c .LVL58
     /tmp/cccDx6aj.s:413    .text:0000000000000298 .LVL45
     /tmp/cccDx6aj.s:438    .text:00000000000002c8 .LVL47
     /tmp/cccDx6aj.s:484    .text:0000000000000310 .LVL53
     /tmp/cccDx6aj.s:479    .text:0000000000000308 .LVL52
     /tmp/cccDx6aj.s:434    .text:00000000000002c4 .LVL46
     /tmp/cccDx6aj.s:463    .text:00000000000002f4 .LVL49
     /tmp/cccDx6aj.s:465    .text:00000000000002f8 .LVL50
     /tmp/cccDx6aj.s:476    .text:0000000000000304 .LVL51
     /tmp/cccDx6aj.s:158    .text:00000000000000a8 .LVL14
     /tmp/cccDx6aj.s:213    .text:0000000000000120 .LVL18
     /tmp/cccDx6aj.s:194    .text:00000000000000f4 .LVL15
     /tmp/cccDx6aj.s:234    .text:000000000000014c .LVL23
     /tmp/cccDx6aj.s:260    .text:000000000000017c .LVL26
GAS LISTING /tmp/cccDx6aj.s 			page 38


     /tmp/cccDx6aj.s:263    .text:0000000000000180 .LVL27
     /tmp/cccDx6aj.s:385    .text:0000000000000278 .LVL42
     /tmp/cccDx6aj.s:200    .text:00000000000000fc .LVL16
     /tmp/cccDx6aj.s:205    .text:0000000000000108 .LVL17
     /tmp/cccDx6aj.s:377    .text:000000000000026c .LVL40
     /tmp/cccDx6aj.s:401    .text:0000000000000294 .LVL44
     /tmp/cccDx6aj.s:217    .text:000000000000012c .LVL20
     /tmp/cccDx6aj.s:223    .text:0000000000000134 .LVL21
     /tmp/cccDx6aj.s:388    .text:000000000000027c .LVL43
     /tmp/cccDx6aj.s:317    .text:00000000000001f4 .LVL33
     /tmp/cccDx6aj.s:382    .text:0000000000000274 .LVL41
     /tmp/cccDx6aj.s:93     .text:0000000000000060 .LVL7
     /tmp/cccDx6aj.s:110    .text:0000000000000078 .LVL9
     /tmp/cccDx6aj.s:102    .text:0000000000000070 .LVL8
     /tmp/cccDx6aj.s:112    .text:000000000000007c .LVL10
     /tmp/cccDx6aj.s:130    .text:0000000000000098 .LVL12
     /tmp/cccDx6aj.s:132    .text:000000000000009c .LVL13
     /tmp/cccDx6aj.s:59     .text:0000000000000030 .LVL5
     /tmp/cccDx6aj.s:22     .text:000000000000000c .LVL1
     /tmp/cccDx6aj.s:26     .text:0000000000000010 .LVL2
     /tmp/cccDx6aj.s:37     .text:0000000000000020 .LVL3
     /tmp/cccDx6aj.s:39     .text:0000000000000024 .LVL4
     /tmp/cccDx6aj.s:911    .debug_info:0000000000000000 .Ldebug_info0
     /tmp/cccDx6aj.s:104    .text:0000000000000070 .LBB3
     /tmp/cccDx6aj.s:107    .text:0000000000000074 .LBE3
     /tmp/cccDx6aj.s:114    .text:000000000000007c .LBB4
     /tmp/cccDx6aj.s:134    .text:000000000000009c .LBE4
     /tmp/cccDx6aj.s:227    .text:0000000000000140 .LBB5
     /tmp/cccDx6aj.s:230    .text:0000000000000144 .LBE5
     /tmp/cccDx6aj.s:236    .text:000000000000014c .LBB6
     /tmp/cccDx6aj.s:302    .text:00000000000001d4 .LBE6
     /tmp/cccDx6aj.s:642    .text:00000000000003f0 .LBB11
     /tmp/cccDx6aj.s:761    .text:0000000000000524 .LBE11
     /tmp/cccDx6aj.s:770    .text:000000000000052c .LBB13
     /tmp/cccDx6aj.s:838    .text:00000000000005c0 .LBE13

UNDEFINED SYMBOLS
_Z17kmem_cache_createPKcmPFvPvES3_
_Z7kmallocm
_Z16kmem_cache_allocP5Cache
_ZN11ConsoleUtil11printStringEPKc
_Z15kmem_cache_infoP5Cache
_Z15kmem_cache_freeP5CachePv
_Z5kfreePKv
_Z18kmem_cache_destroyP5Cache
_ZN5RiscV10initializeEv
_ZN13SlabAllocator9printSlabEP4Slab
_ZN11ConsoleUtil5printEPKciS1_i
_ZN13SlabAllocator5sizeNE
_Z15userMainWrapperPv
_ZN5RiscV16threadCreateUtilEPP3TCBPFvPvES3_
_ZN5RiscV18threadDispatchUtilEv
_ZN5RiscV8finalizeEv
