GAS LISTING /tmp/ccWT3rWo.s 			page 1


   1              		.file	"system.cpp"
   2              		.option pic
   3              		.option norelax
   4              		.text
   5              	.Ltext0:
   6              		.align	2
   7              		.globl	_Z6memsetPKvii
   9              	_Z6memsetPKvii:
  10              	.LFB44:
  11              		.file 1 "src/kernel/../../src/kernel/tests/test2.hpp"
   1:src/kernel/../../src/kernel/tests/test2.hpp **** //
   2:src/kernel/../../src/kernel/tests/test2.hpp **** // Created by os on 1/10/23.
   3:src/kernel/../../src/kernel/tests/test2.hpp **** //
   4:src/kernel/../../src/kernel/tests/test2.hpp **** 
   5:src/kernel/../../src/kernel/tests/test2.hpp **** #ifndef KERNEL_FOR_RISCV_ARCHITECURE_TEST2_HPP
   6:src/kernel/../../src/kernel/tests/test2.hpp **** #define KERNEL_FOR_RISCV_ARCHITECURE_TEST2_HPP
   7:src/kernel/../../src/kernel/tests/test2.hpp **** #include "../../../h/kernel/slab.hpp"
   8:src/kernel/../../src/kernel/tests/test2.hpp **** 
   9:src/kernel/../../src/kernel/tests/test2.hpp **** #define RUN_NUM (5)
  10:src/kernel/../../src/kernel/tests/test2.hpp **** #define ITERATIONS (1000)
  11:src/kernel/../../src/kernel/tests/test2.hpp **** 
  12:src/kernel/../../src/kernel/tests/test2.hpp **** #define shared_size (7)
  13:src/kernel/../../src/kernel/tests/test2.hpp **** #define MASK (0xA5)
  14:src/kernel/../../src/kernel/tests/test2.hpp **** 
  15:src/kernel/../../src/kernel/tests/test2.hpp **** struct data_s {
  16:src/kernel/../../src/kernel/tests/test2.hpp ****     int id;
  17:src/kernel/../../src/kernel/tests/test2.hpp ****     kmem_cache_t  *shared;
  18:src/kernel/../../src/kernel/tests/test2.hpp ****     int iterations;
  19:src/kernel/../../src/kernel/tests/test2.hpp **** };
  20:src/kernel/../../src/kernel/tests/test2.hpp **** 
  21:src/kernel/../../src/kernel/tests/test2.hpp **** const char * const CACHE_NAMES[] = {"tc_0",
  22:src/kernel/../../src/kernel/tests/test2.hpp ****                                     "tc_1",
  23:src/kernel/../../src/kernel/tests/test2.hpp ****                                     "tc_2",
  24:src/kernel/../../src/kernel/tests/test2.hpp ****                                     "tc_3",
  25:src/kernel/../../src/kernel/tests/test2.hpp ****                                     "tc_4"};
  26:src/kernel/../../src/kernel/tests/test2.hpp **** 
  27:src/kernel/../../src/kernel/tests/test2.hpp **** void memset(const void *data, int size, int value) {
  12              		.loc 1 27 52
  13              		.cfi_startproc
  14              	.LVL0:
  15 0000 130101FF 		addi	sp,sp,-16
  16              		.cfi_def_cfa_offset 16
  17 0004 23348100 		sd	s0,8(sp)
  18              		.cfi_offset 8, -8
  19 0008 13040101 		addi	s0,sp,16
  20              		.cfi_def_cfa 8, 0
  28:src/kernel/../../src/kernel/tests/test2.hpp ****     for (int j = 0; j < size; j++) {
  21              		.loc 1 28 5
  22              	.LVL1:
  23              	.LBB2:
  24              		.loc 1 28 14 is_stmt 0
  25 000c 93070000 		li	a5,0
  26              	.LVL2:
  27              	.L3:
  28              		.loc 1 28 23 is_stmt 1 discriminator 3
  29 0010 63DAB700 		bge	a5,a1,.L1
  29:src/kernel/../../src/kernel/tests/test2.hpp ****         *((char *)data + j) = value;
GAS LISTING /tmp/ccWT3rWo.s 			page 2


  30              		.loc 1 29 9 discriminator 2
  31              		.loc 1 29 24 is_stmt 0 discriminator 2
  32 0014 3307F500 		add	a4,a0,a5
  33              		.loc 1 29 29 discriminator 2
  34 0018 2300C700 		sb	a2,0(a4)
  28:src/kernel/../../src/kernel/tests/test2.hpp ****     for (int j = 0; j < size; j++) {
  35              		.loc 1 28 5 is_stmt 1 discriminator 2
  36 001c 9B871700 		addiw	a5,a5,1
  37              	.LVL3:
  38 0020 6FF01FFF 		j	.L3
  39              	.LVL4:
  40              	.L1:
  41              	.LBE2:
  30:src/kernel/../../src/kernel/tests/test2.hpp ****     }
  31:src/kernel/../../src/kernel/tests/test2.hpp **** }
  42              		.loc 1 31 1 is_stmt 0
  43 0024 03348100 		ld	s0,8(sp)
  44              		.cfi_restore 8
  45              		.cfi_def_cfa 2, 16
  46 0028 13010101 		addi	sp,sp,16
  47              		.cfi_def_cfa_offset 0
  48 002c 67800000 		jr	ra
  49              		.cfi_endproc
  50              	.LFE44:
  52              		.align	2
  53              		.globl	_Z9constructPv
  55              	_Z9constructPv:
  56              	.LFB45:
  32:src/kernel/../../src/kernel/tests/test2.hpp **** 
  33:src/kernel/../../src/kernel/tests/test2.hpp **** void construct(void *data) {
  57              		.loc 1 33 28 is_stmt 1
  58              		.cfi_startproc
  59              	.LVL5:
  60 0030 130101FF 		addi	sp,sp,-16
  61              		.cfi_def_cfa_offset 16
  62 0034 23341100 		sd	ra,8(sp)
  63 0038 23308100 		sd	s0,0(sp)
  64              		.cfi_offset 1, -8
  65              		.cfi_offset 8, -16
  66 003c 13040101 		addi	s0,sp,16
  67              		.cfi_def_cfa 8, 0
  34:src/kernel/../../src/kernel/tests/test2.hpp **** //    static int i = 1;
  35:src/kernel/../../src/kernel/tests/test2.hpp **** //    printf("%d Shared object constructed.\n", i++);
  36:src/kernel/../../src/kernel/tests/test2.hpp ****     memset(data, shared_size, MASK);
  68              		.loc 1 36 5
  69              		.loc 1 36 11 is_stmt 0
  70 0040 1306500A 		li	a2,165
  71 0044 93057000 		li	a1,7
  72 0048 97000000 		call	_Z6memsetPKvii
  72      E7800000 
  73              	.LVL6:
  37:src/kernel/../../src/kernel/tests/test2.hpp **** }
  74              		.loc 1 37 1
  75 0050 83308100 		ld	ra,8(sp)
  76              		.cfi_restore 1
  77 0054 03340100 		ld	s0,0(sp)
  78              		.cfi_restore 8
GAS LISTING /tmp/ccWT3rWo.s 			page 3


  79              		.cfi_def_cfa 2, 16
  80 0058 13010101 		addi	sp,sp,16
  81              		.cfi_def_cfa_offset 0
  82 005c 67800000 		jr	ra
  83              		.cfi_endproc
  84              	.LFE45:
  86              		.align	2
  87              		.globl	_Z5checkPvm
  89              	_Z5checkPvm:
  90              	.LFB46:
  38:src/kernel/../../src/kernel/tests/test2.hpp **** 
  39:src/kernel/../../src/kernel/tests/test2.hpp **** int check(void *data, size_t size) {
  91              		.loc 1 39 36 is_stmt 1
  92              		.cfi_startproc
  93              	.LVL7:
  94 0060 130101FF 		addi	sp,sp,-16
  95              		.cfi_def_cfa_offset 16
  96 0064 23348100 		sd	s0,8(sp)
  97              		.cfi_offset 8, -8
  98 0068 13040101 		addi	s0,sp,16
  99              		.cfi_def_cfa 8, 0
 100 006c 13060500 		mv	a2,a0
  40:src/kernel/../../src/kernel/tests/test2.hpp ****     int ret = 1;
 101              		.loc 1 40 5
 102              	.LVL8:
  41:src/kernel/../../src/kernel/tests/test2.hpp ****     for (uint64 i = 0; i < size; i++) {
 103              		.loc 1 41 5
 104              	.LBB3:
 105              		.loc 1 41 17 is_stmt 0
 106 0070 93070000 		li	a5,0
 107              	.LBE3:
  40:src/kernel/../../src/kernel/tests/test2.hpp ****     int ret = 1;
 108              		.loc 1 40 9
 109 0074 13051000 		li	a0,1
 110              	.LVL9:
 111 0078 6F008000 		j	.L10
 112              	.LVL10:
 113              	.L9:
 114              	.LBB4:
 115              		.loc 1 41 5 is_stmt 1 discriminator 2
 116 007c 93871700 		addi	a5,a5,1
 117              	.LVL11:
 118              	.L10:
 119              		.loc 1 41 26 discriminator 1
 120 0080 63FEB700 		bgeu	a5,a1,.L8
  42:src/kernel/../../src/kernel/tests/test2.hpp ****         if (((unsigned char *)data)[i] != MASK) {
 121              		.loc 1 42 9
 122              		.loc 1 42 38 is_stmt 0
 123 0084 3307F600 		add	a4,a2,a5
 124 0088 83460700 		lbu	a3,0(a4)
 125              		.loc 1 42 9
 126 008c 1307500A 		li	a4,165
 127 0090 E386E6FE 		beq	a3,a4,.L9
  43:src/kernel/../../src/kernel/tests/test2.hpp ****             ret = 0;
 128              		.loc 1 43 17
 129 0094 13050000 		li	a0,0
 130              	.LVL12:
GAS LISTING /tmp/ccWT3rWo.s 			page 4


 131 0098 6FF05FFE 		j	.L9
 132              	.LVL13:
 133              	.L8:
 134              	.LBE4:
  44:src/kernel/../../src/kernel/tests/test2.hpp ****         }
  45:src/kernel/../../src/kernel/tests/test2.hpp ****     }
  46:src/kernel/../../src/kernel/tests/test2.hpp **** 
  47:src/kernel/../../src/kernel/tests/test2.hpp ****     return ret;
 135              		.loc 1 47 5 is_stmt 1
  48:src/kernel/../../src/kernel/tests/test2.hpp **** }
 136              		.loc 1 48 1 is_stmt 0
 137 009c 03348100 		ld	s0,8(sp)
 138              		.cfi_restore 8
 139              		.cfi_def_cfa 2, 16
 140 00a0 13010101 		addi	sp,sp,16
 141              		.cfi_def_cfa_offset 0
 142 00a4 67800000 		jr	ra
 143              		.cfi_endproc
 144              	.LFE46:
 146              		.section	.rodata.str1.8,"aMS",@progbits,1
 147              		.align	3
 148              	.LC0:
 149 0000 56616C75 		.string	"Value not correct!"
 149      65206E6F 
 149      7420636F 
 149      72726563 
 149      742100
 150              		.text
 151              		.align	2
 152              		.globl	_Z4workPv
 154              	_Z4workPv:
 155              	.LFB47:
  49:src/kernel/../../src/kernel/tests/test2.hpp **** 
  50:src/kernel/../../src/kernel/tests/test2.hpp **** struct objects_s {
  51:src/kernel/../../src/kernel/tests/test2.hpp ****     kmem_cache_t *cache;
  52:src/kernel/../../src/kernel/tests/test2.hpp ****     void *data;
  53:src/kernel/../../src/kernel/tests/test2.hpp **** };
  54:src/kernel/../../src/kernel/tests/test2.hpp **** 
  55:src/kernel/../../src/kernel/tests/test2.hpp **** void work(void* pdata) {
 156              		.loc 1 55 24 is_stmt 1
 157              		.cfi_startproc
 158              	.LVL14:
 159 00a8 130101F8 		addi	sp,sp,-128
 160              		.cfi_def_cfa_offset 128
 161 00ac 233C1106 		sd	ra,120(sp)
 162 00b0 23388106 		sd	s0,112(sp)
 163 00b4 23349106 		sd	s1,104(sp)
 164 00b8 23302107 		sd	s2,96(sp)
 165 00bc 233C3105 		sd	s3,88(sp)
 166 00c0 23384105 		sd	s4,80(sp)
 167 00c4 23345105 		sd	s5,72(sp)
 168 00c8 23306105 		sd	s6,64(sp)
 169 00cc 233C7103 		sd	s7,56(sp)
 170 00d0 23388103 		sd	s8,48(sp)
 171 00d4 23349103 		sd	s9,40(sp)
 172              		.cfi_offset 1, -8
 173              		.cfi_offset 8, -16
GAS LISTING /tmp/ccWT3rWo.s 			page 5


 174              		.cfi_offset 9, -24
 175              		.cfi_offset 18, -32
 176              		.cfi_offset 19, -40
 177              		.cfi_offset 20, -48
 178              		.cfi_offset 21, -56
 179              		.cfi_offset 22, -64
 180              		.cfi_offset 23, -72
 181              		.cfi_offset 24, -80
 182              		.cfi_offset 25, -88
 183 00d8 13040108 		addi	s0,sp,128
 184              		.cfi_def_cfa 8, 0
  56:src/kernel/../../src/kernel/tests/test2.hpp ****     struct data_s data = *(struct data_s*) pdata;
 185              		.loc 1 56 5
 186              		.loc 1 56 19 is_stmt 0
 187 00dc 033C0500 		ld	s8,0(a0)
 188 00e0 233484F9 		sd	s8,-120(s0)
 189 00e4 83378500 		ld	a5,8(a0)
 190 00e8 2338F4F8 		sd	a5,-112(s0)
 191 00ec 83370501 		ld	a5,16(a0)
 192 00f0 233CF4F8 		sd	a5,-104(s0)
  57:src/kernel/../../src/kernel/tests/test2.hpp ****     int size = 0;
 193              		.loc 1 57 5 is_stmt 1
 194              	.LVL15:
  58:src/kernel/../../src/kernel/tests/test2.hpp ****     int object_size = data.id + 1;
 195              		.loc 1 58 5
 196              		.loc 1 58 28 is_stmt 0
 197 00f4 9B070C00 		sext.w	a5,s8
 198              		.loc 1 58 9
 199 00f8 1B0C1C00 		addiw	s8,s8,1
 200              	.LVL16:
  59:src/kernel/../../src/kernel/tests/test2.hpp ****     kmem_cache_t *cache = kmem_cache_create(CACHE_NAMES[data.id], object_size, 0, 0);
 201              		.loc 1 59 5 is_stmt 1
 202              		.loc 1 59 64 is_stmt 0
 203 00fc 13973700 		slli	a4,a5,3
 204 0100 97070000 		lla	a5,.LANCHOR0
 204      93870700 
 205              	.LVL17:
 206 0108 B387E700 		add	a5,a5,a4
 207              		.loc 1 59 44
 208 010c 130B0C00 		mv	s6,s8
 209 0110 93060000 		li	a3,0
 210 0114 13060000 		li	a2,0
 211 0118 93050C00 		mv	a1,s8
 212 011c 03B50700 		ld	a0,0(a5)
 213              	.LVL18:
 214 0120 97000000 		call	_Z17kmem_cache_createPKcmPFvPvES3_@plt
 214      E7800000 
 215              	.LVL19:
 216 0128 130A0500 		mv	s4,a0
 217              	.LVL20:
  60:src/kernel/../../src/kernel/tests/test2.hpp **** 
  61:src/kernel/../../src/kernel/tests/test2.hpp ****     struct objects_s *objs = (struct objects_s*)(kmalloc(sizeof(struct objects_s) * data.iterations
 218              		.loc 1 61 5 is_stmt 1
 219              		.loc 1 61 90 is_stmt 0
 220 012c 832B84F9 		lw	s7,-104(s0)
 221              		.loc 1 61 57
 222 0130 13954B00 		slli	a0,s7,4
GAS LISTING /tmp/ccWT3rWo.s 			page 6


 223              	.LVL21:
 224 0134 97000000 		call	_Z7kmallocm@plt
 224      E7800000 
 225              	.LVL22:
 226 013c 930A0500 		mv	s5,a0
 227              	.LBB5:
  62:src/kernel/../../src/kernel/tests/test2.hpp **** 
  63:src/kernel/../../src/kernel/tests/test2.hpp ****     for (int i = 0; i < data.iterations; i++) {
 228              		.loc 1 63 14
 229 0140 93040000 		li	s1,0
 230              	.LBE5:
  57:src/kernel/../../src/kernel/tests/test2.hpp ****     int object_size = data.id + 1;
 231              		.loc 1 57 9
 232 0144 93090000 		li	s3,0
 233 0148 6F008003 		j	.L17
 234              	.LVL23:
 235              	.L15:
 236              	.LBB6:
  64:src/kernel/../../src/kernel/tests/test2.hpp ****         if (i % 100 == 0) {
  65:src/kernel/../../src/kernel/tests/test2.hpp ****             objs[size].data = kmem_cache_alloc(data.shared);
  66:src/kernel/../../src/kernel/tests/test2.hpp ****             objs[size].cache = data.shared;
  67:src/kernel/../../src/kernel/tests/test2.hpp ****             if (!check(objs[size].data, shared_size)) {
  68:src/kernel/../../src/kernel/tests/test2.hpp ****                 ConsoleUtil::printString("Value not correct!");
  69:src/kernel/../../src/kernel/tests/test2.hpp ****             }
  70:src/kernel/../../src/kernel/tests/test2.hpp ****         }
  71:src/kernel/../../src/kernel/tests/test2.hpp ****         else {
  72:src/kernel/../../src/kernel/tests/test2.hpp ****             objs[size].data = kmem_cache_alloc(cache);
 237              		.loc 1 72 13 is_stmt 1
 238              		.loc 1 72 22 is_stmt 0
 239 014c 13994900 		slli	s2,s3,4
 240 0150 33892A01 		add	s2,s5,s2
 241              		.loc 1 72 47
 242 0154 13050A00 		mv	a0,s4
 243 0158 97000000 		call	_Z16kmem_cache_allocP5Cache@plt
 243      E7800000 
 244              	.LVL24:
 245              		.loc 1 72 29
 246 0160 2334A900 		sd	a0,8(s2)
  73:src/kernel/../../src/kernel/tests/test2.hpp ****             objs[size].cache = cache;
 247              		.loc 1 73 13 is_stmt 1
 248              		.loc 1 73 30 is_stmt 0
 249 0164 23304901 		sd	s4,0(s2)
  74:src/kernel/../../src/kernel/tests/test2.hpp ****             memset(objs[size].data, object_size, MASK);
 250              		.loc 1 74 13 is_stmt 1
 251              		.loc 1 74 19 is_stmt 0
 252 0168 1306500A 		li	a2,165
 253 016c 93050C00 		mv	a1,s8
 254 0170 97000000 		call	_Z6memsetPKvii
 254      E7800000 
 255              	.LVL25:
 256              	.L16:
  75:src/kernel/../../src/kernel/tests/test2.hpp ****         }
  76:src/kernel/../../src/kernel/tests/test2.hpp ****         size++;
 257              		.loc 1 76 9 is_stmt 1 discriminator 2
 258              		.loc 1 76 13 is_stmt 0 discriminator 2
 259 0178 9B891900 		addiw	s3,s3,1
 260              	.LVL26:
GAS LISTING /tmp/ccWT3rWo.s 			page 7


  63:src/kernel/../../src/kernel/tests/test2.hpp ****         if (i % 100 == 0) {
 261              		.loc 1 63 5 is_stmt 1 discriminator 2
 262 017c 9B841400 		addiw	s1,s1,1
 263              	.LVL27:
 264              	.L17:
  63:src/kernel/../../src/kernel/tests/test2.hpp ****         if (i % 100 == 0) {
 265              		.loc 1 63 23 discriminator 1
 266 0180 63DA7405 		ble	s7,s1,.L14
  64:src/kernel/../../src/kernel/tests/test2.hpp ****             objs[size].data = kmem_cache_alloc(data.shared);
 267              		.loc 1 64 9
  64:src/kernel/../../src/kernel/tests/test2.hpp ****             objs[size].data = kmem_cache_alloc(data.shared);
 268              		.loc 1 64 15 is_stmt 0
 269 0184 93074006 		li	a5,100
 270 0188 BBE7F402 		remw	a5,s1,a5
  64:src/kernel/../../src/kernel/tests/test2.hpp ****             objs[size].data = kmem_cache_alloc(data.shared);
 271              		.loc 1 64 9
 272 018c E39007FC 		bnez	a5,.L15
  65:src/kernel/../../src/kernel/tests/test2.hpp ****             objs[size].cache = data.shared;
 273              		.loc 1 65 13 is_stmt 1
  65:src/kernel/../../src/kernel/tests/test2.hpp ****             objs[size].cache = data.shared;
 274              		.loc 1 65 47 is_stmt 0
 275 0190 833C04F9 		ld	s9,-112(s0)
  65:src/kernel/../../src/kernel/tests/test2.hpp ****             objs[size].cache = data.shared;
 276              		.loc 1 65 22
 277 0194 13994900 		slli	s2,s3,4
 278 0198 33892A01 		add	s2,s5,s2
  65:src/kernel/../../src/kernel/tests/test2.hpp ****             objs[size].cache = data.shared;
 279              		.loc 1 65 47
 280 019c 13850C00 		mv	a0,s9
 281 01a0 97000000 		call	_Z16kmem_cache_allocP5Cache@plt
 281      E7800000 
 282              	.LVL28:
  65:src/kernel/../../src/kernel/tests/test2.hpp ****             objs[size].cache = data.shared;
 283              		.loc 1 65 29
 284 01a8 2334A900 		sd	a0,8(s2)
  66:src/kernel/../../src/kernel/tests/test2.hpp ****             if (!check(objs[size].data, shared_size)) {
 285              		.loc 1 66 13 is_stmt 1
  66:src/kernel/../../src/kernel/tests/test2.hpp ****             if (!check(objs[size].data, shared_size)) {
 286              		.loc 1 66 30 is_stmt 0
 287 01ac 23309901 		sd	s9,0(s2)
  67:src/kernel/../../src/kernel/tests/test2.hpp ****                 ConsoleUtil::printString("Value not correct!");
 288              		.loc 1 67 13 is_stmt 1
  67:src/kernel/../../src/kernel/tests/test2.hpp ****                 ConsoleUtil::printString("Value not correct!");
 289              		.loc 1 67 23 is_stmt 0
 290 01b0 93057000 		li	a1,7
 291 01b4 97000000 		call	_Z5checkPvm
 291      E7800000 
 292              	.LVL29:
  67:src/kernel/../../src/kernel/tests/test2.hpp ****                 ConsoleUtil::printString("Value not correct!");
 293              		.loc 1 67 13
 294 01bc E31E05FA 		bnez	a0,.L16
  68:src/kernel/../../src/kernel/tests/test2.hpp ****             }
 295              		.loc 1 68 17 is_stmt 1
  68:src/kernel/../../src/kernel/tests/test2.hpp ****             }
 296              		.loc 1 68 41 is_stmt 0
 297 01c0 17050000 		lla	a0,.LC0
 297      13050500 
GAS LISTING /tmp/ccWT3rWo.s 			page 8


 298 01c8 97000000 		call	_ZN11ConsoleUtil11printStringEPKc@plt
 298      E7800000 
 299              	.LVL30:
 300 01d0 6FF09FFA 		j	.L16
 301              	.L14:
 302              	.LBE6:
  77:src/kernel/../../src/kernel/tests/test2.hpp ****     }
  78:src/kernel/../../src/kernel/tests/test2.hpp **** 
  79:src/kernel/../../src/kernel/tests/test2.hpp ****     kmem_cache_info(cache);
 303              		.loc 1 79 5 is_stmt 1
 304              		.loc 1 79 20 is_stmt 0
 305 01d4 13050A00 		mv	a0,s4
 306 01d8 97000000 		call	_Z15kmem_cache_infoP5Cache@plt
 306      E7800000 
 307              	.LVL31:
  80:src/kernel/../../src/kernel/tests/test2.hpp ****     kmem_cache_info(data.shared);
 308              		.loc 1 80 5 is_stmt 1
 309              		.loc 1 80 20 is_stmt 0
 310 01e0 033504F9 		ld	a0,-112(s0)
 311 01e4 97000000 		call	_Z15kmem_cache_infoP5Cache@plt
 311      E7800000 
 312              	.LVL32:
 313              	.LBB7:
  81:src/kernel/../../src/kernel/tests/test2.hpp **** 
  82:src/kernel/../../src/kernel/tests/test2.hpp ****     for (int i = 0; i < size; i++) {
 314              		.loc 1 82 14
 315 01ec 13090000 		li	s2,0
 316 01f0 6F000003 		j	.L21
 317              	.LVL33:
 318              	.L22:
  83:src/kernel/../../src/kernel/tests/test2.hpp ****         if (!check(objs[i].data, (cache == objs[i].cache) ? object_size : shared_size)) {
 319              		.loc 1 83 19
 320 01f4 93050B00 		mv	a1,s6
 321 01f8 6F004004 		j	.L19
 322              	.L24:
  84:src/kernel/../../src/kernel/tests/test2.hpp ****             ConsoleUtil::printString("Value not correct!");
 323              		.loc 1 84 13 is_stmt 1
 324              		.loc 1 84 37 is_stmt 0
 325 01fc 17050000 		lla	a0,.LC0
 325      13050500 
 326 0204 97000000 		call	_ZN11ConsoleUtil11printStringEPKc@plt
 326      E7800000 
 327              	.LVL34:
 328              	.L20:
  85:src/kernel/../../src/kernel/tests/test2.hpp ****         }
  86:src/kernel/../../src/kernel/tests/test2.hpp ****         kmem_cache_free(objs[i].cache, objs[i].data);
 329              		.loc 1 86 9 is_stmt 1
 330              		.loc 1 86 24 is_stmt 0
 331 020c 83B58400 		ld	a1,8(s1)
 332 0210 03B50400 		ld	a0,0(s1)
 333 0214 97000000 		call	_Z15kmem_cache_freeP5CachePv@plt
 333      E7800000 
 334              	.LVL35:
  82:src/kernel/../../src/kernel/tests/test2.hpp ****         if (!check(objs[i].data, (cache == objs[i].cache) ? object_size : shared_size)) {
 335              		.loc 1 82 5 is_stmt 1
 336 021c 1B091900 		addiw	s2,s2,1
 337              	.LVL36:
GAS LISTING /tmp/ccWT3rWo.s 			page 9


 338              	.L21:
  82:src/kernel/../../src/kernel/tests/test2.hpp ****         if (!check(objs[i].data, (cache == objs[i].cache) ? object_size : shared_size)) {
 339              		.loc 1 82 23 discriminator 1
 340 0220 63563903 		ble	s3,s2,.L18
  83:src/kernel/../../src/kernel/tests/test2.hpp ****             ConsoleUtil::printString("Value not correct!");
 341              		.loc 1 83 9
  83:src/kernel/../../src/kernel/tests/test2.hpp ****             ConsoleUtil::printString("Value not correct!");
 342              		.loc 1 83 26 is_stmt 0
 343 0224 93144900 		slli	s1,s2,4
 344 0228 B3849A00 		add	s1,s5,s1
  83:src/kernel/../../src/kernel/tests/test2.hpp ****             ConsoleUtil::printString("Value not correct!");
 345              		.loc 1 83 19
 346 022c 03B58400 		ld	a0,8(s1)
  83:src/kernel/../../src/kernel/tests/test2.hpp ****             ConsoleUtil::printString("Value not correct!");
 347              		.loc 1 83 52
 348 0230 83B70400 		ld	a5,0(s1)
  83:src/kernel/../../src/kernel/tests/test2.hpp ****             ConsoleUtil::printString("Value not correct!");
 349              		.loc 1 83 19
 350 0234 E38047FD 		beq	a5,s4,.L22
 351 0238 93057000 		li	a1,7
 352              	.L19:
  83:src/kernel/../../src/kernel/tests/test2.hpp ****             ConsoleUtil::printString("Value not correct!");
 353              		.loc 1 83 19 discriminator 4
 354 023c 97000000 		call	_Z5checkPvm
 354      E7800000 
 355              	.LVL37:
  83:src/kernel/../../src/kernel/tests/test2.hpp ****             ConsoleUtil::printString("Value not correct!");
 356              		.loc 1 83 9 discriminator 4
 357 0244 E31405FC 		bnez	a0,.L20
 358 0248 6FF05FFB 		j	.L24
 359              	.L18:
 360              	.LBE7:
  87:src/kernel/../../src/kernel/tests/test2.hpp ****     }
  88:src/kernel/../../src/kernel/tests/test2.hpp **** 
  89:src/kernel/../../src/kernel/tests/test2.hpp ****     kfree(objs);
 361              		.loc 1 89 5 is_stmt 1
 362              		.loc 1 89 10 is_stmt 0
 363 024c 13850A00 		mv	a0,s5
 364 0250 97000000 		call	_Z5kfreePKv@plt
 364      E7800000 
 365              	.LVL38:
  90:src/kernel/../../src/kernel/tests/test2.hpp ****     kmem_cache_destroy(cache);
 366              		.loc 1 90 5 is_stmt 1
 367              		.loc 1 90 23 is_stmt 0
 368 0258 13050A00 		mv	a0,s4
 369 025c 97000000 		call	_Z18kmem_cache_destroyP5Cache@plt
 369      E7800000 
 370              	.LVL39:
  91:src/kernel/../../src/kernel/tests/test2.hpp **** }
 371              		.loc 1 91 1
 372 0264 83308107 		ld	ra,120(sp)
 373              		.cfi_restore 1
 374 0268 03340107 		ld	s0,112(sp)
 375              		.cfi_restore 8
 376              		.cfi_def_cfa 2, 128
 377              	.LVL40:
 378 026c 83348106 		ld	s1,104(sp)
GAS LISTING /tmp/ccWT3rWo.s 			page 10


 379              		.cfi_restore 9
 380 0270 03390106 		ld	s2,96(sp)
 381              		.cfi_restore 18
 382              	.LVL41:
 383 0274 83398105 		ld	s3,88(sp)
 384              		.cfi_restore 19
 385              	.LVL42:
 386 0278 033A0105 		ld	s4,80(sp)
 387              		.cfi_restore 20
 388              	.LVL43:
 389 027c 833A8104 		ld	s5,72(sp)
 390              		.cfi_restore 21
 391 0280 033B0104 		ld	s6,64(sp)
 392              		.cfi_restore 22
 393 0284 833B8103 		ld	s7,56(sp)
 394              		.cfi_restore 23
 395 0288 033C0103 		ld	s8,48(sp)
 396              		.cfi_restore 24
 397 028c 833C8102 		ld	s9,40(sp)
 398              		.cfi_restore 25
 399 0290 13010108 		addi	sp,sp,128
 400              		.cfi_def_cfa_offset 0
 401              	.LVL44:
 402 0294 67800000 		jr	ra
 403              		.cfi_endproc
 404              	.LFE47:
 406              		.align	2
 407              		.globl	_Z4runsPFvPvEP6data_si
 409              	_Z4runsPFvPvEP6data_si:
 410              	.LFB48:
  92:src/kernel/../../src/kernel/tests/test2.hpp **** 
  93:src/kernel/../../src/kernel/tests/test2.hpp **** 
  94:src/kernel/../../src/kernel/tests/test2.hpp **** 
  95:src/kernel/../../src/kernel/tests/test2.hpp **** void runs(void(*work)(void*), struct data_s* data, int num) {
 411              		.loc 1 95 61 is_stmt 1
 412              		.cfi_startproc
 413              	.LVL45:
 414 0298 130101FB 		addi	sp,sp,-80
 415              		.cfi_def_cfa_offset 80
 416 029c 23341104 		sd	ra,72(sp)
 417 02a0 23308104 		sd	s0,64(sp)
 418 02a4 233C9102 		sd	s1,56(sp)
 419 02a8 23382103 		sd	s2,48(sp)
 420 02ac 23343103 		sd	s3,40(sp)
 421 02b0 23304103 		sd	s4,32(sp)
 422              		.cfi_offset 1, -8
 423              		.cfi_offset 8, -16
 424              		.cfi_offset 9, -24
 425              		.cfi_offset 18, -32
 426              		.cfi_offset 19, -40
 427              		.cfi_offset 20, -48
 428 02b4 13040105 		addi	s0,sp,80
 429              		.cfi_def_cfa 8, 0
 430 02b8 130A0500 		mv	s4,a0
 431 02bc 13890500 		mv	s2,a1
 432 02c0 93090600 		mv	s3,a2
  96:src/kernel/../../src/kernel/tests/test2.hpp ****     for (int i = 0; i < num; i++) {
GAS LISTING /tmp/ccWT3rWo.s 			page 11


 433              		.loc 1 96 5
 434              	.LVL46:
 435              	.LBB8:
 436              		.loc 1 96 14 is_stmt 0
 437 02c4 93040000 		li	s1,0
 438              	.LVL47:
 439              	.L27:
 440              		.loc 1 96 23 is_stmt 1 discriminator 1
 441 02c8 63D83403 		bge	s1,s3,.L25
 442              	.LBB9:
  97:src/kernel/../../src/kernel/tests/test2.hpp ****         struct data_s private_data;
 443              		.loc 1 97 9
  98:src/kernel/../../src/kernel/tests/test2.hpp ****         private_data = *(struct data_s*) data;
 444              		.loc 1 98 9
 445              		.loc 1 98 22 is_stmt 0
 446 02cc 83370900 		ld	a5,0(s2)
 447 02d0 233CF4FA 		sd	a5,-72(s0)
 448 02d4 83378900 		ld	a5,8(s2)
 449 02d8 2330F4FC 		sd	a5,-64(s0)
 450 02dc 83370901 		ld	a5,16(s2)
 451 02e0 2334F4FC 		sd	a5,-56(s0)
  99:src/kernel/../../src/kernel/tests/test2.hpp ****         private_data.id = i;
 452              		.loc 1 99 9 is_stmt 1
 453              		.loc 1 99 25 is_stmt 0
 454 02e4 232C94FA 		sw	s1,-72(s0)
 100:src/kernel/../../src/kernel/tests/test2.hpp ****         work(&private_data);
 455              		.loc 1 100 9 is_stmt 1
 456              		.loc 1 100 13 is_stmt 0
 457 02e8 130584FB 		addi	a0,s0,-72
 458 02ec E7000A00 		jalr	s4
 459              	.LVL48:
 460              	.LBE9:
  96:src/kernel/../../src/kernel/tests/test2.hpp ****         struct data_s private_data;
 461              		.loc 1 96 5 is_stmt 1
 462 02f0 9B841400 		addiw	s1,s1,1
 463              	.LVL49:
 464 02f4 6FF05FFD 		j	.L27
 465              	.LVL50:
 466              	.L25:
 467              	.LBE8:
 101:src/kernel/../../src/kernel/tests/test2.hpp ****     }
 102:src/kernel/../../src/kernel/tests/test2.hpp **** }
 468              		.loc 1 102 1 is_stmt 0
 469 02f8 83308104 		ld	ra,72(sp)
 470              		.cfi_restore 1
 471 02fc 03340104 		ld	s0,64(sp)
 472              		.cfi_restore 8
 473              		.cfi_def_cfa 2, 80
 474 0300 83348103 		ld	s1,56(sp)
 475              		.cfi_restore 9
 476              	.LVL51:
 477 0304 03390103 		ld	s2,48(sp)
 478              		.cfi_restore 18
 479              	.LVL52:
 480 0308 83398102 		ld	s3,40(sp)
 481              		.cfi_restore 19
 482 030c 033A0102 		ld	s4,32(sp)
GAS LISTING /tmp/ccWT3rWo.s 			page 12


 483              		.cfi_restore 20
 484              	.LVL53:
 485 0310 13010105 		addi	sp,sp,80
 486              		.cfi_def_cfa_offset 0
 487 0314 67800000 		jr	ra
 488              		.cfi_endproc
 489              	.LFE48:
 491              		.section	.rodata.str1.8
 492 0013 00000000 		.align	3
 492      00
 493              	.LC1:
 494 0018 73686172 		.string	"shared object"
 494      6564206F 
 494      626A6563 
 494      7400
 495              		.text
 496              		.align	2
 497              		.globl	_Z5test2v
 499              	_Z5test2v:
 500              	.LFB49:
 103:src/kernel/../../src/kernel/tests/test2.hpp **** 
 104:src/kernel/../../src/kernel/tests/test2.hpp **** void test2() {
 501              		.loc 1 104 14 is_stmt 1
 502              		.cfi_startproc
 503 0318 130101FC 		addi	sp,sp,-64
 504              		.cfi_def_cfa_offset 64
 505 031c 233C1102 		sd	ra,56(sp)
 506 0320 23388102 		sd	s0,48(sp)
 507 0324 23349102 		sd	s1,40(sp)
 508              		.cfi_offset 1, -8
 509              		.cfi_offset 8, -16
 510              		.cfi_offset 9, -24
 511 0328 13040104 		addi	s0,sp,64
 512              		.cfi_def_cfa 8, 0
 105:src/kernel/../../src/kernel/tests/test2.hpp ****     kmem_cache_t *shared = kmem_cache_create("shared object", shared_size, construct, nullptr);
 513              		.loc 1 105 5
 514              		.loc 1 105 45 is_stmt 0
 515 032c 93060000 		li	a3,0
 516 0330 17060000 		lla	a2,_Z9constructPv
 516      13060600 
 517 0338 93057000 		li	a1,7
 518 033c 17050000 		lla	a0,.LC1
 518      13050500 
 519 0344 97000000 		call	_Z17kmem_cache_createPKcmPFvPvES3_@plt
 519      E7800000 
 520              	.LVL54:
 521 034c 93040500 		mv	s1,a0
 522              	.LVL55:
 106:src/kernel/../../src/kernel/tests/test2.hpp **** 
 107:src/kernel/../../src/kernel/tests/test2.hpp ****     struct data_s data;
 523              		.loc 1 107 5 is_stmt 1
 108:src/kernel/../../src/kernel/tests/test2.hpp ****     data.shared = shared;
 524              		.loc 1 108 5
 525              		.loc 1 108 17 is_stmt 0
 526 0350 2338A4FC 		sd	a0,-48(s0)
 109:src/kernel/../../src/kernel/tests/test2.hpp ****     data.iterations = ITERATIONS;
 527              		.loc 1 109 5 is_stmt 1
GAS LISTING /tmp/ccWT3rWo.s 			page 13


 528              		.loc 1 109 21 is_stmt 0
 529 0354 9307803E 		li	a5,1000
 530 0358 232CF4FC 		sw	a5,-40(s0)
 110:src/kernel/../../src/kernel/tests/test2.hpp ****     runs(work, &data, RUN_NUM);
 531              		.loc 1 110 5 is_stmt 1
 532              		.loc 1 110 9 is_stmt 0
 533 035c 13065000 		li	a2,5
 534 0360 930584FC 		addi	a1,s0,-56
 535 0364 17050000 		lla	a0,_Z4workPv
 535      13050500 
 536 036c 97000000 		call	_Z4runsPFvPvEP6data_si
 536      E7800000 
 537              	.LVL56:
 111:src/kernel/../../src/kernel/tests/test2.hpp **** 
 112:src/kernel/../../src/kernel/tests/test2.hpp ****     kmem_cache_destroy(shared);
 538              		.loc 1 112 5 is_stmt 1
 539              		.loc 1 112 23 is_stmt 0
 540 0374 13850400 		mv	a0,s1
 541 0378 97000000 		call	_Z18kmem_cache_destroyP5Cache@plt
 541      E7800000 
 542              	.LVL57:
 113:src/kernel/../../src/kernel/tests/test2.hpp **** }
 543              		.loc 1 113 1
 544 0380 83308103 		ld	ra,56(sp)
 545              		.cfi_restore 1
 546 0384 03340103 		ld	s0,48(sp)
 547              		.cfi_restore 8
 548              		.cfi_def_cfa 2, 64
 549 0388 83348102 		ld	s1,40(sp)
 550              		.cfi_restore 9
 551              	.LVL58:
 552 038c 13010104 		addi	sp,sp,64
 553              		.cfi_def_cfa_offset 0
 554 0390 67800000 		jr	ra
 555              		.cfi_endproc
 556              	.LFE49:
 558              		.align	2
 559              		.globl	_Z4ctorPv
 561              	_Z4ctorPv:
 562              	.LFB50:
 563              		.file 2 "src/kernel/system.cpp"
   1:src/kernel/system.cpp **** //
   2:src/kernel/system.cpp **** // Created by os on 5/31/22.
   3:src/kernel/system.cpp **** //
   4:src/kernel/system.cpp **** 
   5:src/kernel/system.cpp **** #include "../../h/kernel/system.hpp"
   6:src/kernel/system.cpp **** #include "../../h/kernel/riscv.hpp"
   7:src/kernel/system.cpp **** #include "../../h/user/syscall_c.h"
   8:src/kernel/system.cpp **** #include "../../src/user/tests/userMain.hpp"
   9:src/kernel/system.cpp **** #include "../../src/kernel/tests/test2.hpp"
  10:src/kernel/system.cpp **** #include "../../h/user/printing.hpp"
  11:src/kernel/system.cpp **** #include "../../h/kernel/tcb.hpp"
  12:src/kernel/system.cpp **** #include "../../h/kernel/scheduler.hpp"
  13:src/kernel/system.cpp **** #include "../../h/user/userWrappers.hpp"
  14:src/kernel/system.cpp **** 
  15:src/kernel/system.cpp **** bool System::initialized = false;
  16:src/kernel/system.cpp **** 
GAS LISTING /tmp/ccWT3rWo.s 			page 14


  17:src/kernel/system.cpp **** struct Test{
  18:src/kernel/system.cpp ****     uint64 a,b,c,d,e,f;
  19:src/kernel/system.cpp **** };
  20:src/kernel/system.cpp **** 
  21:src/kernel/system.cpp **** void ctor(void* tst){
 564              		.loc 2 21 21 is_stmt 1
 565              		.cfi_startproc
 566              	.LVL59:
 567 0394 130101FF 		addi	sp,sp,-16
 568              		.cfi_def_cfa_offset 16
 569 0398 23348100 		sd	s0,8(sp)
 570              		.cfi_offset 8, -8
 571 039c 13040101 		addi	s0,sp,16
 572              		.cfi_def_cfa 8, 0
  22:src/kernel/system.cpp ****     ((Test*)tst)->a = 17;
 573              		.loc 2 22 5
 574              		.loc 2 22 21 is_stmt 0
 575 03a0 93071001 		li	a5,17
 576 03a4 2330F500 		sd	a5,0(a0)
  23:src/kernel/system.cpp ****     ((Test*)tst)->b = 32;
 577              		.loc 2 23 5 is_stmt 1
 578              		.loc 2 23 21 is_stmt 0
 579 03a8 93070002 		li	a5,32
 580 03ac 2334F500 		sd	a5,8(a0)
  24:src/kernel/system.cpp ****     ((Test*)tst)->c = 13;
 581              		.loc 2 24 5 is_stmt 1
 582              		.loc 2 24 21 is_stmt 0
 583 03b0 9307D000 		li	a5,13
 584 03b4 2338F500 		sd	a5,16(a0)
  25:src/kernel/system.cpp **** 
  26:src/kernel/system.cpp **** }
 585              		.loc 2 26 1
 586 03b8 03348100 		ld	s0,8(sp)
 587              		.cfi_restore 8
 588              		.cfi_def_cfa 2, 16
 589 03bc 13010101 		addi	sp,sp,16
 590              		.cfi_def_cfa_offset 0
 591 03c0 67800000 		jr	ra
 592              		.cfi_endproc
 593              	.LFE50:
 595              		.section	.rodata.str1.8
 596 0026 0000     		.align	3
 597              	.LC2:
 598 0028 43616368 		.string	"Cache 1"
 598      65203100 
 599              		.text
 600              		.align	2
 601              		.globl	_ZN6SystemC2Ev
 603              	_ZN6SystemC2Ev:
 604              	.LFB52:
  27:src/kernel/system.cpp **** 
  28:src/kernel/system.cpp **** 
  29:src/kernel/system.cpp **** System::System() {
 605              		.loc 2 29 1 is_stmt 1
 606              		.cfi_startproc
 607              	.LVL60:
  30:src/kernel/system.cpp ****     //check whether system is already running to prevent user malicious access
GAS LISTING /tmp/ccWT3rWo.s 			page 15


  31:src/kernel/system.cpp ****     if (!initialized) {
 608              		.loc 2 31 5
 609              	.LBB10:
 610              		.loc 2 31 9 is_stmt 0
 611 03c4 97070000 		lbu	a5,.LANCHOR1
 611      83C70700 
 612              		.loc 2 31 5
 613 03cc 63840700 		beqz	a5,.L41
 614 03d0 67800000 		ret
 615              	.L41:
 616              	.LBE10:
  29:src/kernel/system.cpp ****     //check whether system is already running to prevent user malicious access
 617              		.loc 2 29 1
 618 03d4 130101FC 		addi	sp,sp,-64
 619              		.cfi_def_cfa_offset 64
 620 03d8 233C1102 		sd	ra,56(sp)
 621 03dc 23388102 		sd	s0,48(sp)
 622 03e0 23349102 		sd	s1,40(sp)
 623 03e4 23302103 		sd	s2,32(sp)
 624 03e8 233C3101 		sd	s3,24(sp)
 625              		.cfi_offset 1, -8
 626              		.cfi_offset 8, -16
 627              		.cfi_offset 9, -24
 628              		.cfi_offset 18, -32
 629              		.cfi_offset 19, -40
 630 03ec 13040104 		addi	s0,sp,64
 631              		.cfi_def_cfa 8, 0
 632              	.LBB12:
 633              	.LBB11:
  32:src/kernel/system.cpp ****         initialized = true;
 634              		.loc 2 32 9 is_stmt 1
 635              		.loc 2 32 21 is_stmt 0
 636 03f0 93071000 		li	a5,1
 637 03f4 17070000 		sb	a5,.LANCHOR1,a4
 637      2300F700 
  33:src/kernel/system.cpp **** 
  34:src/kernel/system.cpp ****         //initialize the machine
  35:src/kernel/system.cpp ****         RiscV::initialize();
 638              		.loc 2 35 9 is_stmt 1
 639              		.loc 2 35 26 is_stmt 0
 640 03fc 97000000 		call	_ZN5RiscV10initializeEv@plt
 640      E7800000 
 641              	.LVL61:
  36:src/kernel/system.cpp **** 
  37:src/kernel/system.cpp ****         kmem_cache_info(SlabAllocator::largeSlabCache);
 642              		.loc 2 37 9 is_stmt 1
 643              		.loc 2 37 24 is_stmt 0
 644 0404 17090000 		la	s2,_ZN13SlabAllocator14largeSlabCacheE
 644      03390900 
 645 040c 03350900 		ld	a0,0(s2)
 646 0410 97000000 		call	_Z15kmem_cache_infoP5Cache@plt
 646      E7800000 
 647              	.LVL62:
  38:src/kernel/system.cpp ****         SlabAllocator::printSlab(SlabAllocator::largeSlabCache->partialHead);
 648              		.loc 2 38 9 is_stmt 1
 649              		.loc 2 38 33 is_stmt 0
 650 0418 83370900 		ld	a5,0(s2)
GAS LISTING /tmp/ccWT3rWo.s 			page 16


 651 041c 03B58706 		ld	a0,104(a5)
 652 0420 97000000 		call	_ZN13SlabAllocator9printSlabEP4Slab@plt
 652      E7800000 
 653              	.LVL63:
  39:src/kernel/system.cpp **** 
  40:src/kernel/system.cpp ****         kmem_cache_t* cache1 = kmem_cache_create("Cache 1", 512, nullptr, nullptr);
 654              		.loc 2 40 9 is_stmt 1
 655              		.loc 2 40 49 is_stmt 0
 656 0428 93060000 		li	a3,0
 657 042c 13060000 		li	a2,0
 658 0430 93050020 		li	a1,512
 659 0434 17050000 		lla	a0,.LC2
 659      13050500 
 660 043c 97000000 		call	_Z17kmem_cache_createPKcmPFvPvES3_@plt
 660      E7800000 
 661              	.LVL64:
 662 0444 93090500 		mv	s3,a0
 663              	.LVL65:
  41:src/kernel/system.cpp ****         kmem_cache_t* cache2 = kmem_cache_create("Cache 1", 1<<15, nullptr, nullptr);
 664              		.loc 2 41 9 is_stmt 1
 665              		.loc 2 41 49 is_stmt 0
 666 0448 93060000 		li	a3,0
 667 044c 13060000 		li	a2,0
 668 0450 B7850000 		li	a1,32768
 669 0454 17050000 		lla	a0,.LC2
 669      13050500 
 670              	.LVL66:
 671 045c 97000000 		call	_Z17kmem_cache_createPKcmPFvPvES3_@plt
 671      E7800000 
 672              	.LVL67:
 673 0464 93040500 		mv	s1,a0
 674              	.LVL68:
  42:src/kernel/system.cpp ****         kmem_cache_alloc(cache1);
 675              		.loc 2 42 9 is_stmt 1
 676              		.loc 2 42 25 is_stmt 0
 677 0468 13850900 		mv	a0,s3
 678 046c 97000000 		call	_Z16kmem_cache_allocP5Cache@plt
 678      E7800000 
 679              	.LVL69:
  43:src/kernel/system.cpp ****         void* ret1 =kmem_cache_alloc(cache2);
 680              		.loc 2 43 9 is_stmt 1
 681              		.loc 2 43 37 is_stmt 0
 682 0474 13850400 		mv	a0,s1
 683 0478 97000000 		call	_Z16kmem_cache_allocP5Cache@plt
 683      E7800000 
 684              	.LVL70:
 685 0480 93090500 		mv	s3,a0
 686              	.LVL71:
  44:src/kernel/system.cpp ****         kmem_cache_alloc(cache2);
 687              		.loc 2 44 9 is_stmt 1
 688              		.loc 2 44 25 is_stmt 0
 689 0484 13850400 		mv	a0,s1
 690              	.LVL72:
 691 0488 97000000 		call	_Z16kmem_cache_allocP5Cache@plt
 691      E7800000 
 692              	.LVL73:
  45:src/kernel/system.cpp ****         kmem_cache_alloc(cache2);
GAS LISTING /tmp/ccWT3rWo.s 			page 17


 693              		.loc 2 45 9 is_stmt 1
 694              		.loc 2 45 25 is_stmt 0
 695 0490 13850400 		mv	a0,s1
 696 0494 97000000 		call	_Z16kmem_cache_allocP5Cache@plt
 696      E7800000 
 697              	.LVL74:
  46:src/kernel/system.cpp ****         kmem_cache_alloc(cache2);
 698              		.loc 2 46 9 is_stmt 1
 699              		.loc 2 46 25 is_stmt 0
 700 049c 13850400 		mv	a0,s1
 701 04a0 97000000 		call	_Z16kmem_cache_allocP5Cache@plt
 701      E7800000 
 702              	.LVL75:
  47:src/kernel/system.cpp ****         kmem_cache_alloc(cache2);
 703              		.loc 2 47 9 is_stmt 1
 704              		.loc 2 47 25 is_stmt 0
 705 04a8 13850400 		mv	a0,s1
 706 04ac 97000000 		call	_Z16kmem_cache_allocP5Cache@plt
 706      E7800000 
 707              	.LVL76:
  48:src/kernel/system.cpp ****         kmem_cache_info(cache2);
 708              		.loc 2 48 9 is_stmt 1
 709              		.loc 2 48 24 is_stmt 0
 710 04b4 13850400 		mv	a0,s1
 711 04b8 97000000 		call	_Z15kmem_cache_infoP5Cache@plt
 711      E7800000 
 712              	.LVL77:
  49:src/kernel/system.cpp ****         kmem_cache_free(cache2,ret1);
 713              		.loc 2 49 9 is_stmt 1
 714              		.loc 2 49 24 is_stmt 0
 715 04c0 93850900 		mv	a1,s3
 716 04c4 13850400 		mv	a0,s1
 717 04c8 97000000 		call	_Z15kmem_cache_freeP5CachePv@plt
 717      E7800000 
 718              	.LVL78:
  50:src/kernel/system.cpp ****         SlabAllocator::printSlab(cache2->partialHead);
 719              		.loc 2 50 9 is_stmt 1
 720              		.loc 2 50 33 is_stmt 0
 721 04d0 03B58406 		ld	a0,104(s1)
 722 04d4 97000000 		call	_ZN13SlabAllocator9printSlabEP4Slab@plt
 722      E7800000 
 723              	.LVL79:
  51:src/kernel/system.cpp ****         SlabAllocator::printSlab(cache2->fullHead);
 724              		.loc 2 51 9 is_stmt 1
 725              		.loc 2 51 33 is_stmt 0
 726 04dc 03B50407 		ld	a0,112(s1)
 727 04e0 97000000 		call	_ZN13SlabAllocator9printSlabEP4Slab@plt
 727      E7800000 
 728              	.LVL80:
  52:src/kernel/system.cpp **** 
  53:src/kernel/system.cpp ****         kmem_cache_info(SlabAllocator::largeSlabCache);
 729              		.loc 2 53 9 is_stmt 1
 730              		.loc 2 53 24 is_stmt 0
 731 04e8 03350900 		ld	a0,0(s2)
 732 04ec 97000000 		call	_Z15kmem_cache_infoP5Cache@plt
 732      E7800000 
 733              	.LVL81:
GAS LISTING /tmp/ccWT3rWo.s 			page 18


  54:src/kernel/system.cpp ****         SlabAllocator::printSlab(SlabAllocator::largeSlabCache->partialHead);
 734              		.loc 2 54 9 is_stmt 1
 735              		.loc 2 54 33 is_stmt 0
 736 04f4 83370900 		ld	a5,0(s2)
 737 04f8 03B58706 		ld	a0,104(a5)
 738 04fc 97000000 		call	_ZN13SlabAllocator9printSlabEP4Slab@plt
 738      E7800000 
 739              	.LVL82:
  55:src/kernel/system.cpp **** 
  56:src/kernel/system.cpp **** //        test2();
  57:src/kernel/system.cpp ****         //creating a thread that will be executing user code
  58:src/kernel/system.cpp ****         //this is done as to separate user code execution from main kernel thread
  59:src/kernel/system.cpp ****         //also it provides kernel with an idle thread that will run itself if user code gets blocke
  60:src/kernel/system.cpp **** 
  61:src/kernel/system.cpp ****         thread_t userMainThread;
 740              		.loc 2 61 9 is_stmt 1
  62:src/kernel/system.cpp ****         RiscV::threadCreateUtil((TCB**)(&userMainThread), userMainWrapper, nullptr);
 741              		.loc 2 62 9
 742              		.loc 2 62 32 is_stmt 0
 743 0504 13060000 		li	a2,0
 744 0508 97050000 		la	a1,_Z15userMainWrapperPv
 744      83B50500 
 745 0510 130584FC 		addi	a0,s0,-56
 746 0514 97000000 		call	_ZN5RiscV16threadCreateUtilEPP3TCBPFvPvES3_@plt
 746      E7800000 
 747              	.LVL83:
 748              	.L36:
  63:src/kernel/system.cpp **** 
  64:src/kernel/system.cpp **** 
  65:src/kernel/system.cpp **** //        //return control to user code until it reaches the end
  66:src/kernel/system.cpp **** //        //exit only if user is finished and machine is ready to exit (in case there is something 
  67:src/kernel/system.cpp ****         while (( (TCB*)userMainThread)->status != TCB::Status::FINISHED) {
 749              		.loc 2 67 9 is_stmt 1
 750              		.loc 2 67 48
 751              		.loc 2 67 18 is_stmt 0
 752 051c 833784FC 		ld	a5,-56(s0)
 753              		.loc 2 67 41
 754 0520 03A70701 		lw	a4,16(a5)
 755              		.loc 2 67 48
 756 0524 93072000 		li	a5,2
 757 0528 6308F700 		beq	a4,a5,.L35
  68:src/kernel/system.cpp ****             RiscV::threadDispatchUtil();
 758              		.loc 2 68 13 is_stmt 1
 759              		.loc 2 68 38 is_stmt 0
 760 052c 97000000 		call	_ZN5RiscV18threadDispatchUtilEv@plt
 760      E7800000 
 761              	.LVL84:
 762 0534 6FF09FFE 		j	.L36
 763              	.L35:
  69:src/kernel/system.cpp ****         }
  70:src/kernel/system.cpp **** 
  71:src/kernel/system.cpp ****         //finalize the machine
  72:src/kernel/system.cpp ****         RiscV::finalize();
 764              		.loc 2 72 9 is_stmt 1
 765              		.loc 2 72 24 is_stmt 0
 766 0538 97000000 		call	_ZN5RiscV8finalizeEv@plt
 766      E7800000 
GAS LISTING /tmp/ccWT3rWo.s 			page 19


 767              	.LVL85:
 768              	.LBE11:
 769              	.LBE12:
  73:src/kernel/system.cpp ****     }
  74:src/kernel/system.cpp **** }...
 770              		.loc 2 74 1
 771 0540 83308103 		ld	ra,56(sp)
 772              		.cfi_restore 1
 773 0544 03340103 		ld	s0,48(sp)
 774              		.cfi_restore 8
 775              		.cfi_def_cfa 2, 64
 776 0548 83348102 		ld	s1,40(sp)
 777              		.cfi_restore 9
 778              	.LVL86:
 779 054c 03390102 		ld	s2,32(sp)
 780              		.cfi_restore 18
 781 0550 83398101 		ld	s3,24(sp)
 782              		.cfi_restore 19
 783              	.LVL87:
 784 0554 13010104 		addi	sp,sp,64
 785              		.cfi_def_cfa_offset 0
 786 0558 67800000 		jr	ra
 787              		.cfi_endproc
 788              	.LFE52:
 790              		.globl	_ZN6SystemC1Ev
 791              		.set	_ZN6SystemC1Ev,_ZN6SystemC2Ev
 792              		.globl	_ZN6System11initializedE
 793              		.section	.rodata.str1.8
 794              		.align	3
 795              	.LC3:
 796 0030 74635F30 		.string	"tc_0"
 796      00
 797 0035 000000   		.align	3
 798              	.LC4:
 799 0038 74635F31 		.string	"tc_1"
 799      00
 800 003d 000000   		.align	3
 801              	.LC5:
 802 0040 74635F32 		.string	"tc_2"
 802      00
 803 0045 000000   		.align	3
 804              	.LC6:
 805 0048 74635F33 		.string	"tc_3"
 805      00
 806 004d 000000   		.align	3
 807              	.LC7:
 808 0050 74635F34 		.string	"tc_4"
 808      00
 809              		.bss
 810              		.set	.LANCHOR1,. + 0
 813              	_ZN6System11initializedE:
 814 0000 00       		.zero	1
 815              		.section	.data.rel.ro.local,"aw"
 816              		.align	3
 817              		.set	.LANCHOR0,. + 0
 820              	_ZL11CACHE_NAMES:
 821 0000 00000000 		.dword	.LC3
GAS LISTING /tmp/ccWT3rWo.s 			page 20


 821      00000000 
 822 0008 00000000 		.dword	.LC4
 822      00000000 
 823 0010 00000000 		.dword	.LC5
 823      00000000 
 824 0018 00000000 		.dword	.LC6
 824      00000000 
 825 0020 00000000 		.dword	.LC7
 825      00000000 
 826              		.text
 827              	.Letext0:
 828              		.file 3 "src/kernel/../../h/kernel/../../lib/hw.h"
 829              		.file 4 "src/kernel/../../h/kernel/utility.hpp"
 830              		.file 5 "src/kernel/../../h/kernel/system.hpp"
 831              		.file 6 "src/kernel/../../h/kernel/riscv.hpp"
 832              		.file 7 "src/kernel/../../h/kernel/tcb.hpp"
 833              		.file 8 "src/kernel/../../h/user/_thread.hpp"
 834              		.file 9 "src/kernel/../../src/kernel/tests/../../../h/kernel/consoleUtil.hpp"
 835              		.file 10 "src/kernel/../../src/kernel/tests/../../../h/kernel/slab_t.hpp"
 836              		.file 11 "src/kernel/../../src/kernel/tests/../../../h/kernel/cache_t.hpp"
 837              		.file 12 "src/kernel/../../src/kernel/tests/../../../h/kernel/slabAllocator.hpp"
 838              		.file 13 "src/kernel/../../src/kernel/tests/../../../h/kernel/slab.hpp"
GAS LISTING /tmp/ccWT3rWo.s 			page 21

