GAS LISTING /tmp/ccgP4cwP.s 			page 1


   1              		.file	"tcb.cpp"
   2              		.option pic
   3              		.option norelax
   4              		.text
   5              	.Ltext0:
   6              		.align	2
   7              		.globl	_ZN3TCB4ctorEPv
   9              	_ZN3TCB4ctorEPv:
  10              	.LFB60:
  11              		.file 1 "src/kernel/tcb.cpp"
   1:src/kernel/tcb.cpp **** //
   2:src/kernel/tcb.cpp **** // Created by os on 5/18/22.
   3:src/kernel/tcb.cpp **** //
   4:src/kernel/tcb.cpp **** 
   5:src/kernel/tcb.cpp **** #include "../../h/kernel/tcb.hpp"
   6:src/kernel/tcb.cpp **** #include "../../h/kernel/memory_allocator.hpp"
   7:src/kernel/tcb.cpp **** #include "../../h/kernel/scheduler.hpp"
   8:src/kernel/tcb.cpp **** #include "../../h/user/syscall_c.h"
   9:src/kernel/tcb.cpp **** #include "../../h/user/printing.hpp"
  10:src/kernel/tcb.cpp **** #include "../../h/kernel/riscv.hpp"
  11:src/kernel/tcb.cpp **** 
  12:src/kernel/tcb.cpp **** TCB* TCB::running = nullptr;
  13:src/kernel/tcb.cpp **** 
  14:src/kernel/tcb.cpp **** TCB* TCB::putcThread = nullptr;
  15:src/kernel/tcb.cpp **** 
  16:src/kernel/tcb.cpp **** uint64 TCB::currentPC = 0;
  17:src/kernel/tcb.cpp **** 
  18:src/kernel/tcb.cpp **** uint64 TCB::currentSP = 0;
  19:src/kernel/tcb.cpp **** 
  20:src/kernel/tcb.cpp **** uint64 TCB::timeSliceCounter = 0;
  21:src/kernel/tcb.cpp **** 
  22:src/kernel/tcb.cpp **** kmem_cache_t* TCB::tcbCache = nullptr;
  23:src/kernel/tcb.cpp **** 
  24:src/kernel/tcb.cpp **** 
  25:src/kernel/tcb.cpp **** //create a thread for kernel main and a separate thread for console output execution
  26:src/kernel/tcb.cpp **** void TCB::initialize() {
  27:src/kernel/tcb.cpp **** 
  28:src/kernel/tcb.cpp ****     TCB::tcbCache = kmem_cache_create("TCB Cache", sizeof(TCB), TCB::ctor, TCB::dtor);
  29:src/kernel/tcb.cpp **** 
  30:src/kernel/tcb.cpp ****     TCB::running = new TCB(nullptr, nullptr, nullptr, DEFAULT_TIME_SLICE);
  31:src/kernel/tcb.cpp **** 
  32:src/kernel/tcb.cpp ****     TCB::running->mode = Mode::SUPERVISOR;
  33:src/kernel/tcb.cpp ****     //stack for thread that will be running console output
  34:src/kernel/tcb.cpp ****     uint64 *putcStack = (uint64*)kmalloc(DEFAULT_STACK_SIZE);
  35:src/kernel/tcb.cpp **** 
  36:src/kernel/tcb.cpp ****     //console output thread
  37:src/kernel/tcb.cpp ****     putcThread = new TCB(RiscV::putcWrapper, nullptr, putcStack, DEFAULT_TIME_SLICE);
  38:src/kernel/tcb.cpp **** 
  39:src/kernel/tcb.cpp ****     putcThread->mode = Mode::SUPERVISOR;
  40:src/kernel/tcb.cpp ****     //putcThread->context.ra = (uint64)RiscV::putcWrapper;
  41:src/kernel/tcb.cpp **** 
  42:src/kernel/tcb.cpp ****     Scheduler::put(putcThread);
  43:src/kernel/tcb.cpp **** }
  44:src/kernel/tcb.cpp **** 
  45:src/kernel/tcb.cpp **** //tcb constructor
  46:src/kernel/tcb.cpp **** TCB::TCB(Body body, void* args, uint64* stack, uint64 timeSlice){
  47:src/kernel/tcb.cpp **** 
GAS LISTING /tmp/ccgP4cwP.s 			page 2


  48:src/kernel/tcb.cpp ****     this->body = body;
  49:src/kernel/tcb.cpp **** 
  50:src/kernel/tcb.cpp ****     this->args = args;
  51:src/kernel/tcb.cpp **** 
  52:src/kernel/tcb.cpp ****     this->timeSlice = timeSlice;
  53:src/kernel/tcb.cpp **** 
  54:src/kernel/tcb.cpp ****     this->stack = (body == nullptr) ? nullptr : stack;
  55:src/kernel/tcb.cpp **** 
  56:src/kernel/tcb.cpp ****     //initial context for thread
  57:src/kernel/tcb.cpp ****     this->context = {(body == nullptr) ? 0 : (uint64)((char*)stack + DEFAULT_STACK_SIZE),
  58:src/kernel/tcb.cpp ****                      (uint64)&wrapper };
  59:src/kernel/tcb.cpp **** }
  60:src/kernel/tcb.cpp **** 
  61:src/kernel/tcb.cpp **** //deallocate memory for thread stack
  62:src/kernel/tcb.cpp **** void TCB::free(){
  63:src/kernel/tcb.cpp ****     kfree(stack);
  64:src/kernel/tcb.cpp **** }
  65:src/kernel/tcb.cpp **** 
  66:src/kernel/tcb.cpp **** TCB::~TCB(){
  67:src/kernel/tcb.cpp ****     free();
  68:src/kernel/tcb.cpp **** }
  69:src/kernel/tcb.cpp **** 
  70:src/kernel/tcb.cpp **** //if currently running thread is not finished, asleep or blocked, put it in scheduler
  71:src/kernel/tcb.cpp **** //get new thread from scheduler and switch context
  72:src/kernel/tcb.cpp **** void TCB::dispatch() {
  73:src/kernel/tcb.cpp ****     TCB* old = running;
  74:src/kernel/tcb.cpp **** 
  75:src/kernel/tcb.cpp ****     if(old->status == Status::READY || old->status == Status::RUNNING) {
  76:src/kernel/tcb.cpp ****         Scheduler::put(old);
  77:src/kernel/tcb.cpp ****     }
  78:src/kernel/tcb.cpp **** 
  79:src/kernel/tcb.cpp ****     running = Scheduler::get();
  80:src/kernel/tcb.cpp **** 
  81:src/kernel/tcb.cpp ****     if(running) {
  82:src/kernel/tcb.cpp ****         running->status = Status::RUNNING;
  83:src/kernel/tcb.cpp ****         RiscV::jumpToDesignatedPrivilegeMode();
  84:src/kernel/tcb.cpp ****         contextSwitch(&old->context, &running->context);
  85:src/kernel/tcb.cpp ****     }
  86:src/kernel/tcb.cpp **** }
  87:src/kernel/tcb.cpp **** 
  88:src/kernel/tcb.cpp **** //wrapper function to run body function
  89:src/kernel/tcb.cpp **** void TCB::wrapper(void *args) {
  90:src/kernel/tcb.cpp ****     if(running->mode == TCB::Mode::SUPERVISOR)
  91:src/kernel/tcb.cpp ****         RiscV::popSppSpieSystem();
  92:src/kernel/tcb.cpp ****     else
  93:src/kernel/tcb.cpp ****         RiscV::popSppSpieUser();
  94:src/kernel/tcb.cpp **** 
  95:src/kernel/tcb.cpp ****     running->body(running->args);
  96:src/kernel/tcb.cpp ****     RiscV::threadExitUtil();
  97:src/kernel/tcb.cpp **** 
  98:src/kernel/tcb.cpp **** }
  99:src/kernel/tcb.cpp **** 
 100:src/kernel/tcb.cpp **** //overload operator new, to not use system call for every kernel object that is being allocated
 101:src/kernel/tcb.cpp **** void* TCB::operator new(size_t size){
 102:src/kernel/tcb.cpp ****     return kmem_cache_alloc(TCB::tcbCache);
 103:src/kernel/tcb.cpp **** }
 104:src/kernel/tcb.cpp **** 
GAS LISTING /tmp/ccgP4cwP.s 			page 3


 105:src/kernel/tcb.cpp **** //overload operator delete, to not use system call for every kernel object that is being deallocate
 106:src/kernel/tcb.cpp **** void TCB::operator delete(void *addr){
 107:src/kernel/tcb.cpp ****     kmem_cache_free(TCB::tcbCache, addr);
 108:src/kernel/tcb.cpp **** }
 109:src/kernel/tcb.cpp **** 
 110:src/kernel/tcb.cpp **** //internal syscall to free space allocated to a thread
 111:src/kernel/tcb.cpp **** int TCB::thread_free(void *addr) {
 112:src/kernel/tcb.cpp ****     uint64 iptr = (uint64)addr;
 113:src/kernel/tcb.cpp **** 
 114:src/kernel/tcb.cpp ****     asm("mv a1, %[iptr]" : : [iptr] "r" (iptr));
 115:src/kernel/tcb.cpp ****     asm("li a0, 0x51");
 116:src/kernel/tcb.cpp ****     asm("ecall");
 117:src/kernel/tcb.cpp **** 
 118:src/kernel/tcb.cpp ****     uint64 status;
 119:src/kernel/tcb.cpp **** 
 120:src/kernel/tcb.cpp ****     asm("mv %[status], a0" : [status] "=r" (status));
 121:src/kernel/tcb.cpp ****     return status;
 122:src/kernel/tcb.cpp **** }
 123:src/kernel/tcb.cpp **** 
 124:src/kernel/tcb.cpp **** void TCB::ctor(void* tcb){
  12              		.loc 1 124 26
  13              		.cfi_startproc
  14              	.LVL0:
  15 0000 130101FF 		addi	sp,sp,-16
  16              		.cfi_def_cfa_offset 16
  17 0004 23348100 		sd	s0,8(sp)
  18              		.cfi_offset 8, -8
  19 0008 13040101 		addi	s0,sp,16
  20              		.cfi_def_cfa 8, 0
 125:src/kernel/tcb.cpp ****     ((TCB*)tcb)->status = Status::READY;
  21              		.loc 1 125 5
  22              		.loc 1 125 25 is_stmt 0
  23 000c 93071000 		li	a5,1
  24 0010 2328F500 		sw	a5,16(a0)
 126:src/kernel/tcb.cpp **** 
 127:src/kernel/tcb.cpp ****     ((TCB*)tcb)->next = nullptr;
  25              		.loc 1 127 5 is_stmt 1
  26              		.loc 1 127 23 is_stmt 0
  27 0014 23340504 		sd	zero,72(a0)
 128:src/kernel/tcb.cpp **** 
 129:src/kernel/tcb.cpp ****     ((TCB*)tcb)->mode = Mode::USER;
  28              		.loc 1 129 5 is_stmt 1
  29              		.loc 1 129 23 is_stmt 0
  30 0018 232A0500 		sw	zero,20(a0)
 130:src/kernel/tcb.cpp **** }
  31              		.loc 1 130 1
  32 001c 03348100 		ld	s0,8(sp)
  33              		.cfi_restore 8
  34              		.cfi_def_cfa 2, 16
  35 0020 13010101 		addi	sp,sp,16
  36              		.cfi_def_cfa_offset 0
  37 0024 67800000 		jr	ra
  38              		.cfi_endproc
  39              	.LFE60:
  41              		.align	2
  42              		.globl	_ZN3TCB4dtorEPv
  44              	_ZN3TCB4dtorEPv:
GAS LISTING /tmp/ccgP4cwP.s 			page 4


  45              	.LFB61:
 131:src/kernel/tcb.cpp **** 
 132:src/kernel/tcb.cpp **** void TCB::dtor(void* tcb){
  46              		.loc 1 132 26 is_stmt 1
  47              		.cfi_startproc
  48              	.LVL1:
  49 0028 130101FF 		addi	sp,sp,-16
  50              		.cfi_def_cfa_offset 16
  51 002c 23348100 		sd	s0,8(sp)
  52              		.cfi_offset 8, -8
  53 0030 13040101 		addi	s0,sp,16
  54              		.cfi_def_cfa 8, 0
 133:src/kernel/tcb.cpp ****     ((TCB*)tcb)->status = Status::READY;
  55              		.loc 1 133 5
  56              		.loc 1 133 25 is_stmt 0
  57 0034 93071000 		li	a5,1
  58 0038 2328F500 		sw	a5,16(a0)
 134:src/kernel/tcb.cpp **** 
 135:src/kernel/tcb.cpp ****     ((TCB*)tcb)->next = nullptr;
  59              		.loc 1 135 5 is_stmt 1
  60              		.loc 1 135 23 is_stmt 0
  61 003c 23340504 		sd	zero,72(a0)
 136:src/kernel/tcb.cpp **** 
 137:src/kernel/tcb.cpp ****     ((TCB*)tcb)->mode = Mode::USER;
  62              		.loc 1 137 5 is_stmt 1
  63              		.loc 1 137 23 is_stmt 0
  64 0040 232A0500 		sw	zero,20(a0)
 138:src/kernel/tcb.cpp **** }...
  65              		.loc 1 138 1
  66 0044 03348100 		ld	s0,8(sp)
  67              		.cfi_restore 8
  68              		.cfi_def_cfa 2, 16
  69 0048 13010101 		addi	sp,sp,16
  70              		.cfi_def_cfa_offset 0
  71 004c 67800000 		jr	ra
  72              		.cfi_endproc
  73              	.LFE61:
  75              		.align	2
  76              		.globl	_ZN3TCB7wrapperEPv
  78              	_ZN3TCB7wrapperEPv:
  79              	.LFB56:
  89:src/kernel/tcb.cpp **** void TCB::wrapper(void *args) {
  80              		.loc 1 89 31 is_stmt 1
  81              		.cfi_startproc
  82              	.LVL2:
  83 0050 130101FF 		addi	sp,sp,-16
  84              		.cfi_def_cfa_offset 16
  85 0054 23341100 		sd	ra,8(sp)
  86 0058 23308100 		sd	s0,0(sp)
  87              		.cfi_offset 1, -8
  88              		.cfi_offset 8, -16
  89 005c 13040101 		addi	s0,sp,16
  90              		.cfi_def_cfa 8, 0
  90:src/kernel/tcb.cpp ****     if(running->mode == TCB::Mode::SUPERVISOR)
  91              		.loc 1 90 5
  90:src/kernel/tcb.cpp ****     if(running->mode == TCB::Mode::SUPERVISOR)
  92              		.loc 1 90 17 is_stmt 0
GAS LISTING /tmp/ccgP4cwP.s 			page 5


  93 0060 97070000 		ld	a5,.LANCHOR0
  93      83B70700 
  94 0068 03A74701 		lw	a4,20(a5)
  90:src/kernel/tcb.cpp ****     if(running->mode == TCB::Mode::SUPERVISOR)
  95              		.loc 1 90 5
  96 006c 93071000 		li	a5,1
  97 0070 630CF702 		beq	a4,a5,.L9
  93:src/kernel/tcb.cpp ****         RiscV::popSppSpieUser();
  98              		.loc 1 93 9 is_stmt 1
  93:src/kernel/tcb.cpp ****         RiscV::popSppSpieUser();
  99              		.loc 1 93 30 is_stmt 0
 100 0074 97000000 		call	_ZN5RiscV14popSppSpieUserEv@plt
 100      E7800000 
 101              	.LVL3:
 102              	.L7:
  95:src/kernel/tcb.cpp ****     running->body(running->args);
 103              		.loc 1 95 5 is_stmt 1
  95:src/kernel/tcb.cpp ****     running->body(running->args);
 104              		.loc 1 95 14 is_stmt 0
 105 007c 97070000 		ld	a5,.LANCHOR0
 105      83B70700 
 106 0084 03B78701 		ld	a4,24(a5)
  95:src/kernel/tcb.cpp ****     running->body(running->args);
 107              		.loc 1 95 18
 108 0088 03B50702 		ld	a0,32(a5)
 109 008c E7000700 		jalr	a4
 110              	.LVL4:
  96:src/kernel/tcb.cpp ****     RiscV::threadExitUtil();
 111              		.loc 1 96 5 is_stmt 1
  96:src/kernel/tcb.cpp ****     RiscV::threadExitUtil();
 112              		.loc 1 96 26 is_stmt 0
 113 0090 97000000 		call	_ZN5RiscV14threadExitUtilEv@plt
 113      E7800000 
 114              	.LVL5:
  98:src/kernel/tcb.cpp **** }
 115              		.loc 1 98 1
 116 0098 83308100 		ld	ra,8(sp)
 117              		.cfi_remember_state
 118              		.cfi_restore 1
 119 009c 03340100 		ld	s0,0(sp)
 120              		.cfi_restore 8
 121              		.cfi_def_cfa 2, 16
 122 00a0 13010101 		addi	sp,sp,16
 123              		.cfi_def_cfa_offset 0
 124 00a4 67800000 		jr	ra
 125              	.LVL6:
 126              	.L9:
 127              		.cfi_restore_state
  91:src/kernel/tcb.cpp ****         RiscV::popSppSpieSystem();
 128              		.loc 1 91 9 is_stmt 1
  91:src/kernel/tcb.cpp ****         RiscV::popSppSpieSystem();
 129              		.loc 1 91 32 is_stmt 0
 130 00a8 97000000 		call	_ZN5RiscV16popSppSpieSystemEv@plt
 130      E7800000 
 131              	.LVL7:
 132 00b0 6FF0DFFC 		j	.L7
 133              		.cfi_endproc
GAS LISTING /tmp/ccgP4cwP.s 			page 6


 134              	.LFE56:
 136              		.align	2
 137              		.globl	_ZN3TCBC2EPFvPvES0_Pmm
 139              	_ZN3TCBC2EPFvPvES0_Pmm:
 140              	.LFB49:
  46:src/kernel/tcb.cpp **** TCB::TCB(Body body, void* args, uint64* stack, uint64 timeSlice){
 141              		.loc 1 46 1 is_stmt 1
 142              		.cfi_startproc
 143              	.LVL8:
 144 00b4 130101FF 		addi	sp,sp,-16
 145              		.cfi_def_cfa_offset 16
 146 00b8 23348100 		sd	s0,8(sp)
 147              		.cfi_offset 8, -8
 148 00bc 13040101 		addi	s0,sp,16
 149              		.cfi_def_cfa 8, 0
 150              	.LBB2:
  46:src/kernel/tcb.cpp **** TCB::TCB(Body body, void* args, uint64* stack, uint64 timeSlice){
 151              		.loc 1 46 64 is_stmt 0
 152 00c0 23380504 		sd	zero,80(a0)
 153 00c4 233C0504 		sd	zero,88(a0)
 154 00c8 23300506 		sd	zero,96(a0)
  48:src/kernel/tcb.cpp ****     this->body = body;
 155              		.loc 1 48 5 is_stmt 1
  48:src/kernel/tcb.cpp ****     this->body = body;
 156              		.loc 1 48 16 is_stmt 0
 157 00cc 233CB500 		sd	a1,24(a0)
  50:src/kernel/tcb.cpp ****     this->args = args;
 158              		.loc 1 50 5 is_stmt 1
  50:src/kernel/tcb.cpp ****     this->args = args;
 159              		.loc 1 50 16 is_stmt 0
 160 00d0 2330C502 		sd	a2,32(a0)
  52:src/kernel/tcb.cpp ****     this->timeSlice = timeSlice;
 161              		.loc 1 52 5 is_stmt 1
  52:src/kernel/tcb.cpp ****     this->timeSlice = timeSlice;
 162              		.loc 1 52 21 is_stmt 0
 163 00d4 2338E502 		sd	a4,48(a0)
  54:src/kernel/tcb.cpp ****     this->stack = (body == nullptr) ? nullptr : stack;
 164              		.loc 1 54 5 is_stmt 1
  54:src/kernel/tcb.cpp ****     this->stack = (body == nullptr) ? nullptr : stack;
 165              		.loc 1 54 37 is_stmt 0
 166 00d8 638A0502 		beqz	a1,.L13
 167 00dc 93870600 		mv	a5,a3
 168              	.L11:
  54:src/kernel/tcb.cpp ****     this->stack = (body == nullptr) ? nullptr : stack;
 169              		.loc 1 54 17 discriminator 4
 170 00e0 2334F502 		sd	a5,40(a0)
  57:src/kernel/tcb.cpp ****     this->context = {(body == nullptr) ? 0 : (uint64)((char*)stack + DEFAULT_STACK_SIZE),
 171              		.loc 1 57 5 is_stmt 1 discriminator 4
  57:src/kernel/tcb.cpp ****     this->context = {(body == nullptr) ? 0 : (uint64)((char*)stack + DEFAULT_STACK_SIZE),
 172              		.loc 1 57 40 is_stmt 0 discriminator 4
 173 00e4 63880502 		beqz	a1,.L14
  57:src/kernel/tcb.cpp ****     this->context = {(body == nullptr) ? 0 : (uint64)((char*)stack + DEFAULT_STACK_SIZE),
 174              		.loc 1 57 68 discriminator 1
 175 00e8 B7170000 		li	a5,4096
 176 00ec B386F600 		add	a3,a3,a5
 177              	.LVL9:
 178              	.L12:
GAS LISTING /tmp/ccgP4cwP.s 			page 7


  57:src/kernel/tcb.cpp ****     this->context = {(body == nullptr) ? 0 : (uint64)((char*)stack + DEFAULT_STACK_SIZE),
 179              		.loc 1 57 19 discriminator 4
 180 00f0 2330D500 		sd	a3,0(a0)
 181 00f4 97070000 		lla	a5,_ZN3TCB7wrapperEPv
 181      93870700 
 182 00fc 2334F500 		sd	a5,8(a0)
 183              	.LBE2:
  59:src/kernel/tcb.cpp **** }
 184              		.loc 1 59 1 discriminator 4
 185 0100 03348100 		ld	s0,8(sp)
 186              		.cfi_remember_state
 187              		.cfi_restore 8
 188              		.cfi_def_cfa 2, 16
 189 0104 13010101 		addi	sp,sp,16
 190              		.cfi_def_cfa_offset 0
 191 0108 67800000 		jr	ra
 192              	.LVL10:
 193              	.L13:
 194              		.cfi_restore_state
 195              	.LBB3:
  54:src/kernel/tcb.cpp ****     this->stack = (body == nullptr) ? nullptr : stack;
 196              		.loc 1 54 37
 197 010c 93070000 		li	a5,0
 198 0110 6FF01FFD 		j	.L11
 199              	.L14:
  57:src/kernel/tcb.cpp ****     this->context = {(body == nullptr) ? 0 : (uint64)((char*)stack + DEFAULT_STACK_SIZE),
 200              		.loc 1 57 40
 201 0114 93060000 		li	a3,0
 202              	.LVL11:
 203 0118 6FF09FFD 		j	.L12
 204              	.LBE3:
 205              		.cfi_endproc
 206              	.LFE49:
 208              		.globl	_ZN3TCBC1EPFvPvES0_Pmm
 209              		.set	_ZN3TCBC1EPFvPvES0_Pmm,_ZN3TCBC2EPFvPvES0_Pmm
 210              		.align	2
 211              		.globl	_ZN3TCB4freeEv
 213              	_ZN3TCB4freeEv:
 214              	.LFB51:
  62:src/kernel/tcb.cpp **** void TCB::free(){
 215              		.loc 1 62 17 is_stmt 1
 216              		.cfi_startproc
 217              	.LVL12:
 218 011c 130101FF 		addi	sp,sp,-16
 219              		.cfi_def_cfa_offset 16
 220 0120 23341100 		sd	ra,8(sp)
 221 0124 23308100 		sd	s0,0(sp)
 222              		.cfi_offset 1, -8
 223              		.cfi_offset 8, -16
 224 0128 13040101 		addi	s0,sp,16
 225              		.cfi_def_cfa 8, 0
  63:src/kernel/tcb.cpp ****     kfree(stack);
 226              		.loc 1 63 5
  63:src/kernel/tcb.cpp ****     kfree(stack);
 227              		.loc 1 63 10 is_stmt 0
 228 012c 03358502 		ld	a0,40(a0)
 229              	.LVL13:
GAS LISTING /tmp/ccgP4cwP.s 			page 8


 230 0130 97000000 		call	_Z5kfreePKv@plt
 230      E7800000 
 231              	.LVL14:
  64:src/kernel/tcb.cpp **** }
 232              		.loc 1 64 1
 233 0138 83308100 		ld	ra,8(sp)
 234              		.cfi_restore 1
 235 013c 03340100 		ld	s0,0(sp)
 236              		.cfi_restore 8
 237              		.cfi_def_cfa 2, 16
 238 0140 13010101 		addi	sp,sp,16
 239              		.cfi_def_cfa_offset 0
 240 0144 67800000 		jr	ra
 241              		.cfi_endproc
 242              	.LFE51:
 244              		.align	2
 245              		.globl	_ZN3TCBD2Ev
 247              	_ZN3TCBD2Ev:
 248              	.LFB53:
  66:src/kernel/tcb.cpp **** TCB::~TCB(){
 249              		.loc 1 66 1 is_stmt 1
 250              		.cfi_startproc
 251              		.cfi_personality 0x9b,DW.ref.__gxx_personality_v0
 252              		.cfi_lsda 0x1b,.LLSDA53
 253              	.LVL15:
 254 0148 130101FF 		addi	sp,sp,-16
 255              		.cfi_def_cfa_offset 16
 256 014c 23341100 		sd	ra,8(sp)
 257 0150 23308100 		sd	s0,0(sp)
 258              		.cfi_offset 1, -8
 259              		.cfi_offset 8, -16
 260 0154 13040101 		addi	s0,sp,16
 261              		.cfi_def_cfa 8, 0
 262              	.LBB4:
  67:src/kernel/tcb.cpp ****     free();
 263              		.loc 1 67 5
  67:src/kernel/tcb.cpp ****     free();
 264              		.loc 1 67 9 is_stmt 0
 265 0158 97000000 		call	_ZN3TCB4freeEv
 265      E7800000 
 266              	.LVL16:
 267              	.LBE4:
  68:src/kernel/tcb.cpp **** }
 268              		.loc 1 68 1
 269 0160 83308100 		ld	ra,8(sp)
 270              		.cfi_restore 1
 271 0164 03340100 		ld	s0,0(sp)
 272              		.cfi_restore 8
 273              		.cfi_def_cfa 2, 16
 274 0168 13010101 		addi	sp,sp,16
 275              		.cfi_def_cfa_offset 0
 276 016c 67800000 		jr	ra
 277              		.cfi_endproc
 278              	.LFE53:
 279              		.globl	__gxx_personality_v0
 280              		.section	.gcc_except_table,"a",@progbits
 281              	.LLSDA53:
GAS LISTING /tmp/ccgP4cwP.s 			page 9


 282 0000 FF       		.byte	0xff
 283 0001 FF       		.byte	0xff
 284 0002 03       		.byte	0x3
 285 0003 00       		.byte	0
 286              		.text
 288              		.globl	_ZN3TCBD1Ev
 289              		.set	_ZN3TCBD1Ev,_ZN3TCBD2Ev
 290              		.align	2
 291              		.globl	_ZN3TCB8dispatchEv
 293              	_ZN3TCB8dispatchEv:
 294              	.LFB55:
  72:src/kernel/tcb.cpp **** void TCB::dispatch() {
 295              		.loc 1 72 22 is_stmt 1
 296              		.cfi_startproc
 297 0170 130101FE 		addi	sp,sp,-32
 298              		.cfi_def_cfa_offset 32
 299 0174 233C1100 		sd	ra,24(sp)
 300 0178 23388100 		sd	s0,16(sp)
 301 017c 23349100 		sd	s1,8(sp)
 302              		.cfi_offset 1, -8
 303              		.cfi_offset 8, -16
 304              		.cfi_offset 9, -24
 305 0180 13040102 		addi	s0,sp,32
 306              		.cfi_def_cfa 8, 0
  73:src/kernel/tcb.cpp ****     TCB* old = running;
 307              		.loc 1 73 5
  73:src/kernel/tcb.cpp ****     TCB* old = running;
 308              		.loc 1 73 10 is_stmt 0
 309 0184 97040000 		ld	s1,.LANCHOR0
 309      83B40400 
 310              	.LVL17:
  75:src/kernel/tcb.cpp ****     if(old->status == Status::READY || old->status == Status::RUNNING) {
 311              		.loc 1 75 5 is_stmt 1
  75:src/kernel/tcb.cpp ****     if(old->status == Status::READY || old->status == Status::RUNNING) {
 312              		.loc 1 75 13 is_stmt 0
 313 018c 03A70401 		lw	a4,16(s1)
  75:src/kernel/tcb.cpp ****     if(old->status == Status::READY || old->status == Status::RUNNING) {
 314              		.loc 1 75 5
 315 0190 93071000 		li	a5,1
 316 0194 63F6E704 		bleu	a4,a5,.L24
 317              	.L21:
  79:src/kernel/tcb.cpp ****     running = Scheduler::get();
 318              		.loc 1 79 5 is_stmt 1
  79:src/kernel/tcb.cpp ****     running = Scheduler::get();
 319              		.loc 1 79 29 is_stmt 0
 320 0198 97000000 		call	_ZN9Scheduler3getEv@plt
 320      E7800000 
 321              	.LVL18:
  79:src/kernel/tcb.cpp ****     running = Scheduler::get();
 322              		.loc 1 79 13
 323 01a0 97070000 		sd	a0,.LANCHOR0,a5
 323      23B0A700 
  81:src/kernel/tcb.cpp ****     if(running) {
 324              		.loc 1 81 5 is_stmt 1
 325 01a8 63020502 		beqz	a0,.L20
  82:src/kernel/tcb.cpp ****         running->status = Status::RUNNING;
 326              		.loc 1 82 9
GAS LISTING /tmp/ccgP4cwP.s 			page 10


  82:src/kernel/tcb.cpp ****         running->status = Status::RUNNING;
 327              		.loc 1 82 25 is_stmt 0
 328 01ac 23280500 		sw	zero,16(a0)
  83:src/kernel/tcb.cpp ****         RiscV::jumpToDesignatedPrivilegeMode();
 329              		.loc 1 83 9 is_stmt 1
  83:src/kernel/tcb.cpp ****         RiscV::jumpToDesignatedPrivilegeMode();
 330              		.loc 1 83 45 is_stmt 0
 331 01b0 97000000 		call	_ZN5RiscV29jumpToDesignatedPrivilegeModeEv@plt
 331      E7800000 
 332              	.LVL19:
  84:src/kernel/tcb.cpp ****         contextSwitch(&old->context, &running->context);
 333              		.loc 1 84 9 is_stmt 1
  84:src/kernel/tcb.cpp ****         contextSwitch(&old->context, &running->context);
 334              		.loc 1 84 22 is_stmt 0
 335 01b8 97050000 		ld	a1,.LANCHOR0
 335      83B50500 
 336 01c0 13850400 		mv	a0,s1
 337 01c4 97000000 		call	_ZN3TCB13contextSwitchEPNS_7ContextES1_@plt
 337      E7800000 
 338              	.LVL20:
 339              	.L20:
  86:src/kernel/tcb.cpp **** }
 340              		.loc 1 86 1
 341 01cc 83308101 		ld	ra,24(sp)
 342              		.cfi_remember_state
 343              		.cfi_restore 1
 344 01d0 03340101 		ld	s0,16(sp)
 345              		.cfi_restore 8
 346              		.cfi_def_cfa 2, 32
 347 01d4 83348100 		ld	s1,8(sp)
 348              		.cfi_restore 9
 349              	.LVL21:
 350 01d8 13010102 		addi	sp,sp,32
 351              		.cfi_def_cfa_offset 0
 352 01dc 67800000 		jr	ra
 353              	.LVL22:
 354              	.L24:
 355              		.cfi_restore_state
  76:src/kernel/tcb.cpp ****         Scheduler::put(old);
 356              		.loc 1 76 9 is_stmt 1
  76:src/kernel/tcb.cpp ****         Scheduler::put(old);
 357              		.loc 1 76 23 is_stmt 0
 358 01e0 13850400 		mv	a0,s1
 359 01e4 97000000 		call	_ZN9Scheduler3putEP3TCB@plt
 359      E7800000 
 360              	.LVL23:
 361 01ec 6FF0DFFA 		j	.L21
 362              		.cfi_endproc
 363              	.LFE55:
 365              		.align	2
 366              		.globl	_ZN3TCBnwEm
 368              	_ZN3TCBnwEm:
 369              	.LFB57:
 101:src/kernel/tcb.cpp **** void* TCB::operator new(size_t size){
 370              		.loc 1 101 37 is_stmt 1
 371              		.cfi_startproc
 372              	.LVL24:
GAS LISTING /tmp/ccgP4cwP.s 			page 11


 373 01f0 130101FF 		addi	sp,sp,-16
 374              		.cfi_def_cfa_offset 16
 375 01f4 23341100 		sd	ra,8(sp)
 376 01f8 23308100 		sd	s0,0(sp)
 377              		.cfi_offset 1, -8
 378              		.cfi_offset 8, -16
 379 01fc 13040101 		addi	s0,sp,16
 380              		.cfi_def_cfa 8, 0
 102:src/kernel/tcb.cpp ****     return kmem_cache_alloc(TCB::tcbCache);
 381              		.loc 1 102 5
 102:src/kernel/tcb.cpp ****     return kmem_cache_alloc(TCB::tcbCache);
 382              		.loc 1 102 28 is_stmt 0
 383 0200 17050000 		ld	a0,.LANCHOR0+8
 383      03350500 
 384              	.LVL25:
 385 0208 97000000 		call	_Z16kmem_cache_allocP5Cache@plt
 385      E7800000 
 386              	.LVL26:
 103:src/kernel/tcb.cpp **** }
 387              		.loc 1 103 1
 388 0210 83308100 		ld	ra,8(sp)
 389              		.cfi_restore 1
 390 0214 03340100 		ld	s0,0(sp)
 391              		.cfi_restore 8
 392              		.cfi_def_cfa 2, 16
 393 0218 13010101 		addi	sp,sp,16
 394              		.cfi_def_cfa_offset 0
 395 021c 67800000 		jr	ra
 396              		.cfi_endproc
 397              	.LFE57:
 399              		.section	.rodata.str1.8,"aMS",@progbits,1
 400              		.align	3
 401              	.LC0:
 402 0000 54434220 		.string	"TCB Cache"
 402      43616368 
 402      6500
 403              		.text
 404              		.align	2
 405              		.globl	_ZN3TCB10initializeEv
 407              	_ZN3TCB10initializeEv:
 408              	.LFB47:
  26:src/kernel/tcb.cpp **** void TCB::initialize() {
 409              		.loc 1 26 24 is_stmt 1
 410              		.cfi_startproc
 411 0220 130101FE 		addi	sp,sp,-32
 412              		.cfi_def_cfa_offset 32
 413 0224 233C1100 		sd	ra,24(sp)
 414 0228 23388100 		sd	s0,16(sp)
 415 022c 23349100 		sd	s1,8(sp)
 416 0230 23302101 		sd	s2,0(sp)
 417              		.cfi_offset 1, -8
 418              		.cfi_offset 8, -16
 419              		.cfi_offset 9, -24
 420              		.cfi_offset 18, -32
 421 0234 13040102 		addi	s0,sp,32
 422              		.cfi_def_cfa 8, 0
  28:src/kernel/tcb.cpp ****     TCB::tcbCache = kmem_cache_create("TCB Cache", sizeof(TCB), TCB::ctor, TCB::dtor);
GAS LISTING /tmp/ccgP4cwP.s 			page 12


 423              		.loc 1 28 5
  28:src/kernel/tcb.cpp ****     TCB::tcbCache = kmem_cache_create("TCB Cache", sizeof(TCB), TCB::ctor, TCB::dtor);
 424              		.loc 1 28 38 is_stmt 0
 425 0238 97060000 		lla	a3,_ZN3TCB4dtorEPv
 425      93860600 
 426 0240 17060000 		lla	a2,_ZN3TCB4ctorEPv
 426      13060600 
 427 0248 93050007 		li	a1,112
 428 024c 17050000 		lla	a0,.LC0
 428      13050500 
 429 0254 97000000 		call	_Z17kmem_cache_createPKcmPFvPvES3_@plt
 429      E7800000 
 430              	.LVL27:
  28:src/kernel/tcb.cpp ****     TCB::tcbCache = kmem_cache_create("TCB Cache", sizeof(TCB), TCB::ctor, TCB::dtor);
 431              		.loc 1 28 19
 432 025c 97070000 		sd	a0,.LANCHOR0+8,a5
 432      23B0A700 
  30:src/kernel/tcb.cpp ****     TCB::running = new TCB(nullptr, nullptr, nullptr, DEFAULT_TIME_SLICE);
 433              		.loc 1 30 5 is_stmt 1
  30:src/kernel/tcb.cpp ****     TCB::running = new TCB(nullptr, nullptr, nullptr, DEFAULT_TIME_SLICE);
 434              		.loc 1 30 73 is_stmt 0
 435 0264 13050007 		li	a0,112
 436 0268 97000000 		call	_ZN3TCBnwEm
 436      E7800000 
 437              	.LVL28:
 438 0270 93040500 		mv	s1,a0
 439 0274 630E0500 		beqz	a0,.L28
  30:src/kernel/tcb.cpp ****     TCB::running = new TCB(nullptr, nullptr, nullptr, DEFAULT_TIME_SLICE);
 440              		.loc 1 30 73 discriminator 1
 441 0278 13072000 		li	a4,2
 442 027c 93060000 		li	a3,0
 443 0280 13060000 		li	a2,0
 444 0284 93050000 		li	a1,0
 445 0288 97000000 		call	_ZN3TCBC1EPFvPvES0_Pmm
 445      E7800000 
 446              	.LVL29:
 447              	.L28:
  30:src/kernel/tcb.cpp ****     TCB::running = new TCB(nullptr, nullptr, nullptr, DEFAULT_TIME_SLICE);
 448              		.loc 1 30 18 discriminator 4
 449 0290 97070000 		sd	s1,.LANCHOR0,a5
 449      23B09700 
  32:src/kernel/tcb.cpp ****     TCB::running->mode = Mode::SUPERVISOR;
 450              		.loc 1 32 5 is_stmt 1 discriminator 4
  32:src/kernel/tcb.cpp ****     TCB::running->mode = Mode::SUPERVISOR;
 451              		.loc 1 32 24 is_stmt 0 discriminator 4
 452 0298 93071000 		li	a5,1
 453 029c 23AAF400 		sw	a5,20(s1)
  34:src/kernel/tcb.cpp ****     uint64 *putcStack = (uint64*)kmalloc(DEFAULT_STACK_SIZE);
 454              		.loc 1 34 5 is_stmt 1 discriminator 4
  34:src/kernel/tcb.cpp ****     uint64 *putcStack = (uint64*)kmalloc(DEFAULT_STACK_SIZE);
 455              		.loc 1 34 41 is_stmt 0 discriminator 4
 456 02a0 37150000 		li	a0,4096
 457 02a4 97000000 		call	_Z7kmallocm@plt
 457      E7800000 
 458              	.LVL30:
 459 02ac 13090500 		mv	s2,a0
 460              	.LVL31:
GAS LISTING /tmp/ccgP4cwP.s 			page 13


  37:src/kernel/tcb.cpp ****     putcThread = new TCB(RiscV::putcWrapper, nullptr, putcStack, DEFAULT_TIME_SLICE);
 461              		.loc 1 37 5 is_stmt 1 discriminator 4
  37:src/kernel/tcb.cpp ****     putcThread = new TCB(RiscV::putcWrapper, nullptr, putcStack, DEFAULT_TIME_SLICE);
 462              		.loc 1 37 84 is_stmt 0 discriminator 4
 463 02b0 13050007 		li	a0,112
 464              	.LVL32:
 465 02b4 97000000 		call	_ZN3TCBnwEm
 465      E7800000 
 466              	.LVL33:
 467 02bc 93040500 		mv	s1,a0
 468 02c0 63000502 		beqz	a0,.L29
  37:src/kernel/tcb.cpp ****     putcThread = new TCB(RiscV::putcWrapper, nullptr, putcStack, DEFAULT_TIME_SLICE);
 469              		.loc 1 37 84 discriminator 1
 470 02c4 13072000 		li	a4,2
 471 02c8 93060900 		mv	a3,s2
 472 02cc 13060000 		li	a2,0
 473 02d0 97050000 		la	a1,_ZN5RiscV11putcWrapperEPv
 473      83B50500 
 474 02d8 97000000 		call	_ZN3TCBC1EPFvPvES0_Pmm
 474      E7800000 
 475              	.LVL34:
 476              	.L29:
  37:src/kernel/tcb.cpp ****     putcThread = new TCB(RiscV::putcWrapper, nullptr, putcStack, DEFAULT_TIME_SLICE);
 477              		.loc 1 37 16 discriminator 4
 478 02e0 97070000 		sd	s1,.LANCHOR0+16,a5
 478      23B09700 
  39:src/kernel/tcb.cpp ****     putcThread->mode = Mode::SUPERVISOR;
 479              		.loc 1 39 5 is_stmt 1 discriminator 4
  39:src/kernel/tcb.cpp ****     putcThread->mode = Mode::SUPERVISOR;
 480              		.loc 1 39 22 is_stmt 0 discriminator 4
 481 02e8 93071000 		li	a5,1
 482 02ec 23AAF400 		sw	a5,20(s1)
  42:src/kernel/tcb.cpp ****     Scheduler::put(putcThread);
 483              		.loc 1 42 5 is_stmt 1 discriminator 4
  42:src/kernel/tcb.cpp ****     Scheduler::put(putcThread);
 484              		.loc 1 42 19 is_stmt 0 discriminator 4
 485 02f0 13850400 		mv	a0,s1
 486 02f4 97000000 		call	_ZN9Scheduler3putEP3TCB@plt
 486      E7800000 
 487              	.LVL35:
  43:src/kernel/tcb.cpp **** }
 488              		.loc 1 43 1 discriminator 4
 489 02fc 83308101 		ld	ra,24(sp)
 490              		.cfi_restore 1
 491 0300 03340101 		ld	s0,16(sp)
 492              		.cfi_restore 8
 493              		.cfi_def_cfa 2, 32
 494 0304 83348100 		ld	s1,8(sp)
 495              		.cfi_restore 9
 496 0308 03390100 		ld	s2,0(sp)
 497              		.cfi_restore 18
 498              	.LVL36:
 499 030c 13010102 		addi	sp,sp,32
 500              		.cfi_def_cfa_offset 0
 501 0310 67800000 		jr	ra
 502              		.cfi_endproc
 503              	.LFE47:
GAS LISTING /tmp/ccgP4cwP.s 			page 14


 505              		.align	2
 506              		.globl	_ZN3TCBdlEPv
 508              	_ZN3TCBdlEPv:
 509              	.LFB58:
 106:src/kernel/tcb.cpp **** void TCB::operator delete(void *addr){
 510              		.loc 1 106 38 is_stmt 1
 511              		.cfi_startproc
 512              	.LVL37:
 513 0314 130101FF 		addi	sp,sp,-16
 514              		.cfi_def_cfa_offset 16
 515 0318 23341100 		sd	ra,8(sp)
 516 031c 23308100 		sd	s0,0(sp)
 517              		.cfi_offset 1, -8
 518              		.cfi_offset 8, -16
 519 0320 13040101 		addi	s0,sp,16
 520              		.cfi_def_cfa 8, 0
 521 0324 93050500 		mv	a1,a0
 107:src/kernel/tcb.cpp ****     kmem_cache_free(TCB::tcbCache, addr);
 522              		.loc 1 107 5
 107:src/kernel/tcb.cpp ****     kmem_cache_free(TCB::tcbCache, addr);
 523              		.loc 1 107 20 is_stmt 0
 524 0328 17050000 		ld	a0,.LANCHOR0+8
 524      03350500 
 525              	.LVL38:
 526 0330 97000000 		call	_Z15kmem_cache_freeP5CachePv@plt
 526      E7800000 
 527              	.LVL39:
 108:src/kernel/tcb.cpp **** }
 528              		.loc 1 108 1
 529 0338 83308100 		ld	ra,8(sp)
 530              		.cfi_restore 1
 531 033c 03340100 		ld	s0,0(sp)
 532              		.cfi_restore 8
 533              		.cfi_def_cfa 2, 16
 534 0340 13010101 		addi	sp,sp,16
 535              		.cfi_def_cfa_offset 0
 536 0344 67800000 		jr	ra
 537              		.cfi_endproc
 538              	.LFE58:
 540              		.align	2
 541              		.globl	_ZN3TCB11thread_freeEPv
 543              	_ZN3TCB11thread_freeEPv:
 544              	.LFB59:
 111:src/kernel/tcb.cpp **** int TCB::thread_free(void *addr) {
 545              		.loc 1 111 34 is_stmt 1
 546              		.cfi_startproc
 547              	.LVL40:
 548 0348 130101FF 		addi	sp,sp,-16
 549              		.cfi_def_cfa_offset 16
 550 034c 23348100 		sd	s0,8(sp)
 551              		.cfi_offset 8, -8
 552 0350 13040101 		addi	s0,sp,16
 553              		.cfi_def_cfa 8, 0
 112:src/kernel/tcb.cpp ****     uint64 iptr = (uint64)addr;
 554              		.loc 1 112 5
 555              	.LVL41:
 114:src/kernel/tcb.cpp ****     asm("mv a1, %[iptr]" : : [iptr] "r" (iptr));
GAS LISTING /tmp/ccgP4cwP.s 			page 15


 556              		.loc 1 114 5
 114:src/kernel/tcb.cpp ****     asm("mv a1, %[iptr]" : : [iptr] "r" (iptr));
 557              		.loc 1 114 48 is_stmt 0
 558              	#APP
 559              	# 114 "src/kernel/tcb.cpp" 1
 115:src/kernel/tcb.cpp ****     asm("li a0, 0x51");
 560              		mv a1, a0
 561              	# 0 "" 2
 562              		.loc 1 115 5 is_stmt 1
 115:src/kernel/tcb.cpp ****     asm("li a0, 0x51");
 563              		.loc 1 115 23 is_stmt 0
 564              	# 115 "src/kernel/tcb.cpp" 1
 116:src/kernel/tcb.cpp ****     asm("ecall");
 565              		li a0, 0x51
 566              	# 0 "" 2
 567              		.loc 1 116 5 is_stmt 1
 116:src/kernel/tcb.cpp ****     asm("ecall");
 568              		.loc 1 116 17 is_stmt 0
 569              	# 116 "src/kernel/tcb.cpp" 1
 118:src/kernel/tcb.cpp ****     uint64 status;
 570              		ecall
 571              	# 0 "" 2
 572              		.loc 1 118 5 is_stmt 1
 120:src/kernel/tcb.cpp ****     asm("mv %[status], a0" : [status] "=r" (status));
 573              		.loc 1 120 5
 120:src/kernel/tcb.cpp ****     asm("mv %[status], a0" : [status] "=r" (status));
 574              		.loc 1 120 53 is_stmt 0
 575              	# 120 "src/kernel/tcb.cpp" 1
 576              		mv a0, a0
 577              	# 0 "" 2
 578              	.LVL42:
 121:src/kernel/tcb.cpp ****     return status;
 579              		.loc 1 121 5 is_stmt 1
 122:src/kernel/tcb.cpp **** }
 580              		.loc 1 122 1 is_stmt 0
 581              	#NO_APP
 582 0364 1B050500 		sext.w	a0,a0
 583              	.LVL43:
 584 0368 03348100 		ld	s0,8(sp)
 585              		.cfi_restore 8
 586              		.cfi_def_cfa 2, 16
 587 036c 13010101 		addi	sp,sp,16
 588              		.cfi_def_cfa_offset 0
 589 0370 67800000 		jr	ra
 590              		.cfi_endproc
 591              	.LFE59:
 593              		.globl	_ZN3TCB8tcbCacheE
 594              		.globl	_ZN3TCB16timeSliceCounterE
 595              		.globl	_ZN3TCB9currentSPE
 596              		.globl	_ZN3TCB9currentPCE
 597              		.globl	_ZN3TCB10putcThreadE
 598              		.globl	_ZN3TCB7runningE
 599              		.bss
 600              		.align	3
 601              		.set	.LANCHOR0,. + 0
 604              	_ZN3TCB7runningE:
 605 0000 00000000 		.zero	8
GAS LISTING /tmp/ccgP4cwP.s 			page 16


 605      00000000 
 608              	_ZN3TCB8tcbCacheE:
 609 0008 00000000 		.zero	8
 609      00000000 
 612              	_ZN3TCB10putcThreadE:
 613 0010 00000000 		.zero	8
 613      00000000 
 616              	_ZN3TCB16timeSliceCounterE:
 617 0018 00000000 		.zero	8
 617      00000000 
 620              	_ZN3TCB9currentSPE:
 621 0020 00000000 		.zero	8
 621      00000000 
 624              	_ZN3TCB9currentPCE:
 625 0028 00000000 		.zero	8
 625      00000000 
 626              		.text
 627              	.Letext0:
 628              		.file 2 "src/kernel/../../h/kernel/../../lib/hw.h"
 629              		.file 3 "src/kernel/../../h/kernel/utility.hpp"
 630              		.file 4 "src/kernel/../../h/kernel/slab_t.hpp"
 631              		.file 5 "src/kernel/../../h/kernel/cache_t.hpp"
 632              		.file 6 "src/kernel/../../h/kernel/tcb.hpp"
 633              		.file 7 "src/kernel/../../h/kernel/scheduler.hpp"
 634              		.file 8 "src/kernel/../../h/kernel/riscv.hpp"
 635              		.file 9 "src/kernel/../../h/kernel/slab.hpp"
 4177              		.align	3
 4180              	DW.ref.__gxx_personality_v0:
 4181 0000 00000000 		.dword	__gxx_personality_v0
 4181      00000000 
 4182              		.ident	"GCC: (Ubuntu 9.4.0-1ubuntu1~20.04) 9.4.0"
 4183              		.section	.note.GNU-stack,"",@progbits
GAS LISTING /tmp/ccgP4cwP.s 			page 17


DEFINED SYMBOLS
                            *ABS*:0000000000000000 tcb.cpp
     /tmp/ccgP4cwP.s:9      .text:0000000000000000 _ZN3TCB4ctorEPv
     /tmp/ccgP4cwP.s:13     .text:0000000000000000 .L0 
     /tmp/ccgP4cwP.s:15     .text:0000000000000000 .L0 
     /tmp/ccgP4cwP.s:16     .text:0000000000000004 .L0 
     /tmp/ccgP4cwP.s:18     .text:0000000000000008 .L0 
     /tmp/ccgP4cwP.s:20     .text:000000000000000c .L0 
     /tmp/ccgP4cwP.s:22     .text:000000000000000c .L0 
     /tmp/ccgP4cwP.s:23     .text:000000000000000c .L0 
     /tmp/ccgP4cwP.s:26     .text:0000000000000014 .L0 
     /tmp/ccgP4cwP.s:27     .text:0000000000000014 .L0 
     /tmp/ccgP4cwP.s:29     .text:0000000000000018 .L0 
     /tmp/ccgP4cwP.s:30     .text:0000000000000018 .L0 
     /tmp/ccgP4cwP.s:32     .text:000000000000001c .L0 
     /tmp/ccgP4cwP.s:33     .text:0000000000000020 .L0 
     /tmp/ccgP4cwP.s:34     .text:0000000000000020 .L0 
     /tmp/ccgP4cwP.s:36     .text:0000000000000024 .L0 
     /tmp/ccgP4cwP.s:38     .text:0000000000000028 .L0 
     /tmp/ccgP4cwP.s:44     .text:0000000000000028 _ZN3TCB4dtorEPv
     /tmp/ccgP4cwP.s:47     .text:0000000000000028 .L0 
     /tmp/ccgP4cwP.s:49     .text:0000000000000028 .L0 
     /tmp/ccgP4cwP.s:50     .text:000000000000002c .L0 
     /tmp/ccgP4cwP.s:52     .text:0000000000000030 .L0 
     /tmp/ccgP4cwP.s:54     .text:0000000000000034 .L0 
     /tmp/ccgP4cwP.s:56     .text:0000000000000034 .L0 
     /tmp/ccgP4cwP.s:57     .text:0000000000000034 .L0 
     /tmp/ccgP4cwP.s:60     .text:000000000000003c .L0 
     /tmp/ccgP4cwP.s:61     .text:000000000000003c .L0 
     /tmp/ccgP4cwP.s:63     .text:0000000000000040 .L0 
     /tmp/ccgP4cwP.s:64     .text:0000000000000040 .L0 
     /tmp/ccgP4cwP.s:66     .text:0000000000000044 .L0 
     /tmp/ccgP4cwP.s:67     .text:0000000000000048 .L0 
     /tmp/ccgP4cwP.s:68     .text:0000000000000048 .L0 
     /tmp/ccgP4cwP.s:70     .text:000000000000004c .L0 
     /tmp/ccgP4cwP.s:72     .text:0000000000000050 .L0 
     /tmp/ccgP4cwP.s:78     .text:0000000000000050 _ZN3TCB7wrapperEPv
     /tmp/ccgP4cwP.s:81     .text:0000000000000050 .L0 
     /tmp/ccgP4cwP.s:83     .text:0000000000000050 .L0 
     /tmp/ccgP4cwP.s:84     .text:0000000000000054 .L0 
     /tmp/ccgP4cwP.s:87     .text:000000000000005c .L0 
     /tmp/ccgP4cwP.s:88     .text:000000000000005c .L0 
     /tmp/ccgP4cwP.s:90     .text:0000000000000060 .L0 
     /tmp/ccgP4cwP.s:92     .text:0000000000000060 .L0 
     /tmp/ccgP4cwP.s:93     .text:0000000000000060 .L0 
     /tmp/ccgP4cwP.s:96     .text:000000000000006c .L0 
     /tmp/ccgP4cwP.s:99     .text:0000000000000074 .L0 
     /tmp/ccgP4cwP.s:100    .text:0000000000000074 .L0 
     /tmp/ccgP4cwP.s:104    .text:000000000000007c .L0 
     /tmp/ccgP4cwP.s:105    .text:000000000000007c .L0 
     /tmp/ccgP4cwP.s:108    .text:0000000000000088 .L0 
     /tmp/ccgP4cwP.s:112    .text:0000000000000090 .L0 
     /tmp/ccgP4cwP.s:113    .text:0000000000000090 .L0 
     /tmp/ccgP4cwP.s:116    .text:0000000000000098 .L0 
     /tmp/ccgP4cwP.s:117    .text:000000000000009c .L0 
     /tmp/ccgP4cwP.s:118    .text:000000000000009c .L0 
     /tmp/ccgP4cwP.s:120    .text:00000000000000a0 .L0 
GAS LISTING /tmp/ccgP4cwP.s 			page 18


     /tmp/ccgP4cwP.s:121    .text:00000000000000a0 .L0 
     /tmp/ccgP4cwP.s:123    .text:00000000000000a4 .L0 
     /tmp/ccgP4cwP.s:127    .text:00000000000000a8 .L0 
     /tmp/ccgP4cwP.s:129    .text:00000000000000a8 .L0 
     /tmp/ccgP4cwP.s:130    .text:00000000000000a8 .L0 
     /tmp/ccgP4cwP.s:133    .text:00000000000000b4 .L0 
     /tmp/ccgP4cwP.s:139    .text:00000000000000b4 _ZN3TCBC2EPFvPvES0_Pmm
     /tmp/ccgP4cwP.s:142    .text:00000000000000b4 .L0 
     /tmp/ccgP4cwP.s:144    .text:00000000000000b4 .L0 
     /tmp/ccgP4cwP.s:145    .text:00000000000000b8 .L0 
     /tmp/ccgP4cwP.s:147    .text:00000000000000bc .L0 
     /tmp/ccgP4cwP.s:149    .text:00000000000000c0 .L0 
     /tmp/ccgP4cwP.s:152    .text:00000000000000c0 .L0 
     /tmp/ccgP4cwP.s:156    .text:00000000000000cc .L0 
     /tmp/ccgP4cwP.s:157    .text:00000000000000cc .L0 
     /tmp/ccgP4cwP.s:159    .text:00000000000000d0 .L0 
     /tmp/ccgP4cwP.s:160    .text:00000000000000d0 .L0 
     /tmp/ccgP4cwP.s:162    .text:00000000000000d4 .L0 
     /tmp/ccgP4cwP.s:163    .text:00000000000000d4 .L0 
     /tmp/ccgP4cwP.s:165    .text:00000000000000d8 .L0 
     /tmp/ccgP4cwP.s:166    .text:00000000000000d8 .L0 
     /tmp/ccgP4cwP.s:170    .text:00000000000000e0 .L0 
     /tmp/ccgP4cwP.s:172    .text:00000000000000e4 .L0 
     /tmp/ccgP4cwP.s:173    .text:00000000000000e4 .L0 
     /tmp/ccgP4cwP.s:175    .text:00000000000000e8 .L0 
     /tmp/ccgP4cwP.s:180    .text:00000000000000f0 .L0 
     /tmp/ccgP4cwP.s:185    .text:0000000000000100 .L0 
     /tmp/ccgP4cwP.s:186    .text:0000000000000104 .L0 
     /tmp/ccgP4cwP.s:187    .text:0000000000000104 .L0 
     /tmp/ccgP4cwP.s:188    .text:0000000000000104 .L0 
     /tmp/ccgP4cwP.s:190    .text:0000000000000108 .L0 
     /tmp/ccgP4cwP.s:194    .text:000000000000010c .L0 
     /tmp/ccgP4cwP.s:197    .text:000000000000010c .L0 
     /tmp/ccgP4cwP.s:201    .text:0000000000000114 .L0 
     /tmp/ccgP4cwP.s:205    .text:000000000000011c .L0 
     /tmp/ccgP4cwP.s:139    .text:00000000000000b4 _ZN3TCBC1EPFvPvES0_Pmm
     /tmp/ccgP4cwP.s:213    .text:000000000000011c _ZN3TCB4freeEv
     /tmp/ccgP4cwP.s:216    .text:000000000000011c .L0 
     /tmp/ccgP4cwP.s:218    .text:000000000000011c .L0 
     /tmp/ccgP4cwP.s:219    .text:0000000000000120 .L0 
     /tmp/ccgP4cwP.s:222    .text:0000000000000128 .L0 
     /tmp/ccgP4cwP.s:223    .text:0000000000000128 .L0 
     /tmp/ccgP4cwP.s:225    .text:000000000000012c .L0 
     /tmp/ccgP4cwP.s:227    .text:000000000000012c .L0 
     /tmp/ccgP4cwP.s:228    .text:000000000000012c .L0 
     /tmp/ccgP4cwP.s:233    .text:0000000000000138 .L0 
     /tmp/ccgP4cwP.s:234    .text:000000000000013c .L0 
     /tmp/ccgP4cwP.s:236    .text:0000000000000140 .L0 
     /tmp/ccgP4cwP.s:237    .text:0000000000000140 .L0 
     /tmp/ccgP4cwP.s:239    .text:0000000000000144 .L0 
     /tmp/ccgP4cwP.s:241    .text:0000000000000148 .L0 
     /tmp/ccgP4cwP.s:247    .text:0000000000000148 _ZN3TCBD2Ev
     /tmp/ccgP4cwP.s:250    .text:0000000000000148 .L0 
     /tmp/ccgP4cwP.s:4180   .data.rel.local.DW.ref.__gxx_personality_v0:0000000000000000 DW.ref.__gxx_personality_v0
     /tmp/ccgP4cwP.s:254    .text:0000000000000148 .L0 
     /tmp/ccgP4cwP.s:255    .text:000000000000014c .L0 
     /tmp/ccgP4cwP.s:258    .text:0000000000000154 .L0 
GAS LISTING /tmp/ccgP4cwP.s 			page 19


     /tmp/ccgP4cwP.s:259    .text:0000000000000154 .L0 
     /tmp/ccgP4cwP.s:261    .text:0000000000000158 .L0 
     /tmp/ccgP4cwP.s:264    .text:0000000000000158 .L0 
     /tmp/ccgP4cwP.s:265    .text:0000000000000158 .L0 
     /tmp/ccgP4cwP.s:269    .text:0000000000000160 .L0 
     /tmp/ccgP4cwP.s:270    .text:0000000000000164 .L0 
     /tmp/ccgP4cwP.s:272    .text:0000000000000168 .L0 
     /tmp/ccgP4cwP.s:273    .text:0000000000000168 .L0 
     /tmp/ccgP4cwP.s:275    .text:000000000000016c .L0 
     /tmp/ccgP4cwP.s:277    .text:0000000000000170 .L0 
     /tmp/ccgP4cwP.s:247    .text:0000000000000148 _ZN3TCBD1Ev
     /tmp/ccgP4cwP.s:293    .text:0000000000000170 _ZN3TCB8dispatchEv
     /tmp/ccgP4cwP.s:296    .text:0000000000000170 .L0 
     /tmp/ccgP4cwP.s:297    .text:0000000000000170 .L0 
     /tmp/ccgP4cwP.s:298    .text:0000000000000174 .L0 
     /tmp/ccgP4cwP.s:302    .text:0000000000000180 .L0 
     /tmp/ccgP4cwP.s:303    .text:0000000000000180 .L0 
     /tmp/ccgP4cwP.s:304    .text:0000000000000180 .L0 
     /tmp/ccgP4cwP.s:306    .text:0000000000000184 .L0 
     /tmp/ccgP4cwP.s:308    .text:0000000000000184 .L0 
     /tmp/ccgP4cwP.s:309    .text:0000000000000184 .L0 
     /tmp/ccgP4cwP.s:312    .text:000000000000018c .L0 
     /tmp/ccgP4cwP.s:313    .text:000000000000018c .L0 
     /tmp/ccgP4cwP.s:315    .text:0000000000000190 .L0 
     /tmp/ccgP4cwP.s:319    .text:0000000000000198 .L0 
     /tmp/ccgP4cwP.s:320    .text:0000000000000198 .L0 
     /tmp/ccgP4cwP.s:323    .text:00000000000001a0 .L0 
     /tmp/ccgP4cwP.s:325    .text:00000000000001a8 .L0 
     /tmp/ccgP4cwP.s:327    .text:00000000000001ac .L0 
     /tmp/ccgP4cwP.s:328    .text:00000000000001ac .L0 
     /tmp/ccgP4cwP.s:330    .text:00000000000001b0 .L0 
     /tmp/ccgP4cwP.s:331    .text:00000000000001b0 .L0 
     /tmp/ccgP4cwP.s:334    .text:00000000000001b8 .L0 
     /tmp/ccgP4cwP.s:335    .text:00000000000001b8 .L0 
     /tmp/ccgP4cwP.s:341    .text:00000000000001cc .L0 
     /tmp/ccgP4cwP.s:342    .text:00000000000001d0 .L0 
     /tmp/ccgP4cwP.s:343    .text:00000000000001d0 .L0 
     /tmp/ccgP4cwP.s:345    .text:00000000000001d4 .L0 
     /tmp/ccgP4cwP.s:346    .text:00000000000001d4 .L0 
     /tmp/ccgP4cwP.s:348    .text:00000000000001d8 .L0 
     /tmp/ccgP4cwP.s:351    .text:00000000000001dc .L0 
     /tmp/ccgP4cwP.s:355    .text:00000000000001e0 .L0 
     /tmp/ccgP4cwP.s:357    .text:00000000000001e0 .L0 
     /tmp/ccgP4cwP.s:358    .text:00000000000001e0 .L0 
     /tmp/ccgP4cwP.s:362    .text:00000000000001f0 .L0 
     /tmp/ccgP4cwP.s:368    .text:00000000000001f0 _ZN3TCBnwEm
     /tmp/ccgP4cwP.s:371    .text:00000000000001f0 .L0 
     /tmp/ccgP4cwP.s:373    .text:00000000000001f0 .L0 
     /tmp/ccgP4cwP.s:374    .text:00000000000001f4 .L0 
     /tmp/ccgP4cwP.s:377    .text:00000000000001fc .L0 
     /tmp/ccgP4cwP.s:378    .text:00000000000001fc .L0 
     /tmp/ccgP4cwP.s:380    .text:0000000000000200 .L0 
     /tmp/ccgP4cwP.s:382    .text:0000000000000200 .L0 
     /tmp/ccgP4cwP.s:383    .text:0000000000000200 .L0 
     /tmp/ccgP4cwP.s:388    .text:0000000000000210 .L0 
     /tmp/ccgP4cwP.s:389    .text:0000000000000214 .L0 
     /tmp/ccgP4cwP.s:391    .text:0000000000000218 .L0 
GAS LISTING /tmp/ccgP4cwP.s 			page 20


     /tmp/ccgP4cwP.s:392    .text:0000000000000218 .L0 
     /tmp/ccgP4cwP.s:394    .text:000000000000021c .L0 
     /tmp/ccgP4cwP.s:396    .text:0000000000000220 .L0 
     /tmp/ccgP4cwP.s:407    .text:0000000000000220 _ZN3TCB10initializeEv
     /tmp/ccgP4cwP.s:410    .text:0000000000000220 .L0 
     /tmp/ccgP4cwP.s:411    .text:0000000000000220 .L0 
     /tmp/ccgP4cwP.s:412    .text:0000000000000224 .L0 
     /tmp/ccgP4cwP.s:417    .text:0000000000000234 .L0 
     /tmp/ccgP4cwP.s:418    .text:0000000000000234 .L0 
     /tmp/ccgP4cwP.s:419    .text:0000000000000234 .L0 
     /tmp/ccgP4cwP.s:420    .text:0000000000000234 .L0 
     /tmp/ccgP4cwP.s:422    .text:0000000000000238 .L0 
     /tmp/ccgP4cwP.s:424    .text:0000000000000238 .L0 
     /tmp/ccgP4cwP.s:425    .text:0000000000000238 .L0 
     /tmp/ccgP4cwP.s:432    .text:000000000000025c .L0 
     /tmp/ccgP4cwP.s:434    .text:0000000000000264 .L0 
     /tmp/ccgP4cwP.s:435    .text:0000000000000264 .L0 
     /tmp/ccgP4cwP.s:441    .text:0000000000000278 .L0 
     /tmp/ccgP4cwP.s:449    .text:0000000000000290 .L0 
     /tmp/ccgP4cwP.s:451    .text:0000000000000298 .L0 
     /tmp/ccgP4cwP.s:452    .text:0000000000000298 .L0 
     /tmp/ccgP4cwP.s:455    .text:00000000000002a0 .L0 
     /tmp/ccgP4cwP.s:456    .text:00000000000002a0 .L0 
     /tmp/ccgP4cwP.s:462    .text:00000000000002b0 .L0 
     /tmp/ccgP4cwP.s:463    .text:00000000000002b0 .L0 
     /tmp/ccgP4cwP.s:470    .text:00000000000002c4 .L0 
     /tmp/ccgP4cwP.s:478    .text:00000000000002e0 .L0 
     /tmp/ccgP4cwP.s:480    .text:00000000000002e8 .L0 
     /tmp/ccgP4cwP.s:481    .text:00000000000002e8 .L0 
     /tmp/ccgP4cwP.s:484    .text:00000000000002f0 .L0 
     /tmp/ccgP4cwP.s:485    .text:00000000000002f0 .L0 
     /tmp/ccgP4cwP.s:489    .text:00000000000002fc .L0 
     /tmp/ccgP4cwP.s:490    .text:0000000000000300 .L0 
     /tmp/ccgP4cwP.s:492    .text:0000000000000304 .L0 
     /tmp/ccgP4cwP.s:493    .text:0000000000000304 .L0 
     /tmp/ccgP4cwP.s:495    .text:0000000000000308 .L0 
     /tmp/ccgP4cwP.s:497    .text:000000000000030c .L0 
     /tmp/ccgP4cwP.s:500    .text:0000000000000310 .L0 
     /tmp/ccgP4cwP.s:502    .text:0000000000000314 .L0 
     /tmp/ccgP4cwP.s:508    .text:0000000000000314 _ZN3TCBdlEPv
     /tmp/ccgP4cwP.s:511    .text:0000000000000314 .L0 
     /tmp/ccgP4cwP.s:513    .text:0000000000000314 .L0 
     /tmp/ccgP4cwP.s:514    .text:0000000000000318 .L0 
     /tmp/ccgP4cwP.s:517    .text:0000000000000320 .L0 
     /tmp/ccgP4cwP.s:518    .text:0000000000000320 .L0 
     /tmp/ccgP4cwP.s:520    .text:0000000000000324 .L0 
     /tmp/ccgP4cwP.s:523    .text:0000000000000328 .L0 
     /tmp/ccgP4cwP.s:524    .text:0000000000000328 .L0 
     /tmp/ccgP4cwP.s:529    .text:0000000000000338 .L0 
     /tmp/ccgP4cwP.s:530    .text:000000000000033c .L0 
     /tmp/ccgP4cwP.s:532    .text:0000000000000340 .L0 
     /tmp/ccgP4cwP.s:533    .text:0000000000000340 .L0 
     /tmp/ccgP4cwP.s:535    .text:0000000000000344 .L0 
     /tmp/ccgP4cwP.s:537    .text:0000000000000348 .L0 
     /tmp/ccgP4cwP.s:543    .text:0000000000000348 _ZN3TCB11thread_freeEPv
     /tmp/ccgP4cwP.s:546    .text:0000000000000348 .L0 
     /tmp/ccgP4cwP.s:548    .text:0000000000000348 .L0 
GAS LISTING /tmp/ccgP4cwP.s 			page 21


     /tmp/ccgP4cwP.s:549    .text:000000000000034c .L0 
     /tmp/ccgP4cwP.s:551    .text:0000000000000350 .L0 
     /tmp/ccgP4cwP.s:553    .text:0000000000000354 .L0 
     /tmp/ccgP4cwP.s:556    .text:0000000000000354 .L0 
     /tmp/ccgP4cwP.s:557    .text:0000000000000354 .L0 
  src/kernel/tcb.cpp:114    .text:0000000000000354 .L0 
     /tmp/ccgP4cwP.s:563    .text:0000000000000358 .L0 
  src/kernel/tcb.cpp:115    .text:0000000000000358 .L0 
     /tmp/ccgP4cwP.s:568    .text:000000000000035c .L0 
  src/kernel/tcb.cpp:116    .text:000000000000035c .L0 
     /tmp/ccgP4cwP.s:573    .text:0000000000000360 .L0 
     /tmp/ccgP4cwP.s:574    .text:0000000000000360 .L0 
  src/kernel/tcb.cpp:120    .text:0000000000000360 .L0 
     /tmp/ccgP4cwP.s:580    .text:0000000000000364 .L0 
     /tmp/ccgP4cwP.s:582    .text:0000000000000364 .L0 
     /tmp/ccgP4cwP.s:585    .text:000000000000036c .L0 
     /tmp/ccgP4cwP.s:586    .text:000000000000036c .L0 
     /tmp/ccgP4cwP.s:588    .text:0000000000000370 .L0 
     /tmp/ccgP4cwP.s:590    .text:0000000000000374 .L0 
     /tmp/ccgP4cwP.s:608    .bss:0000000000000008 _ZN3TCB8tcbCacheE
     /tmp/ccgP4cwP.s:616    .bss:0000000000000018 _ZN3TCB16timeSliceCounterE
     /tmp/ccgP4cwP.s:620    .bss:0000000000000020 _ZN3TCB9currentSPE
     /tmp/ccgP4cwP.s:624    .bss:0000000000000028 _ZN3TCB9currentPCE
     /tmp/ccgP4cwP.s:612    .bss:0000000000000010 _ZN3TCB10putcThreadE
     /tmp/ccgP4cwP.s:604    .bss:0000000000000000 _ZN3TCB7runningE
     /tmp/ccgP4cwP.s:601    .bss:0000000000000000 .LANCHOR0
     /tmp/ccgP4cwP.s:636    .text:0000000000000374 .L0 
     /tmp/ccgP4cwP.s:93     .text:0000000000000060 .L0 
     /tmp/ccgP4cwP.s:105    .text:000000000000007c .L0 
     /tmp/ccgP4cwP.s:181    .text:00000000000000f4 .L0 
     /tmp/ccgP4cwP.s:309    .text:0000000000000184 .L0 
     /tmp/ccgP4cwP.s:323    .text:00000000000001a0 .L0 
     /tmp/ccgP4cwP.s:335    .text:00000000000001b8 .L0 
     /tmp/ccgP4cwP.s:383    .text:0000000000000200 .L0 
     /tmp/ccgP4cwP.s:425    .text:0000000000000238 .L0 
     /tmp/ccgP4cwP.s:426    .text:0000000000000240 .L0 
     /tmp/ccgP4cwP.s:401    .rodata.str1.8:0000000000000000 .LC0
     /tmp/ccgP4cwP.s:428    .text:000000000000024c .L0 
     /tmp/ccgP4cwP.s:432    .text:000000000000025c .L0 
     /tmp/ccgP4cwP.s:449    .text:0000000000000290 .L0 
     /tmp/ccgP4cwP.s:473    .text:00000000000002d0 .L0 
     /tmp/ccgP4cwP.s:478    .text:00000000000002e0 .L0 
     /tmp/ccgP4cwP.s:524    .text:0000000000000328 .L0 
     /tmp/ccgP4cwP.s:126    .text:00000000000000a8 .L9
     /tmp/ccgP4cwP.s:102    .text:000000000000007c .L7
     /tmp/ccgP4cwP.s:193    .text:000000000000010c .L13
     /tmp/ccgP4cwP.s:199    .text:0000000000000114 .L14
     /tmp/ccgP4cwP.s:168    .text:00000000000000e0 .L11
     /tmp/ccgP4cwP.s:178    .text:00000000000000f0 .L12
     /tmp/ccgP4cwP.s:354    .text:00000000000001e0 .L24
     /tmp/ccgP4cwP.s:339    .text:00000000000001cc .L20
     /tmp/ccgP4cwP.s:317    .text:0000000000000198 .L21
     /tmp/ccgP4cwP.s:447    .text:0000000000000290 .L28
     /tmp/ccgP4cwP.s:476    .text:00000000000002e0 .L29
     /tmp/ccgP4cwP.s:2527   .debug_abbrev:0000000000000000 .Ldebug_abbrev0
     /tmp/ccgP4cwP.s:4132   .debug_str:0000000000001157 .LASF261
     /tmp/ccgP4cwP.s:3764   .debug_str:0000000000000463 .LASF262
GAS LISTING /tmp/ccgP4cwP.s 			page 22


     /tmp/ccgP4cwP.s:4068   .debug_str:0000000000000ed1 .LASF263
     /tmp/ccgP4cwP.s:5      .text:0000000000000000 .Ltext0
     /tmp/ccgP4cwP.s:627    .text:0000000000000374 .Letext0
     /tmp/ccgP4cwP.s:3634   .debug_line:0000000000000000 .Ldebug_line0
     /tmp/ccgP4cwP.s:3668   .debug_str:0000000000000130 .LASF0
     /tmp/ccgP4cwP.s:4128   .debug_str:000000000000113c .LASF1
     /tmp/ccgP4cwP.s:4074   .debug_str:0000000000000f2d .LASF2
     /tmp/ccgP4cwP.s:4032   .debug_str:0000000000000d85 .LASF4
     /tmp/ccgP4cwP.s:4042   .debug_str:0000000000000df3 .LASF3
     /tmp/ccgP4cwP.s:3788   .debug_str:0000000000000519 .LASF5
     /tmp/ccgP4cwP.s:3848   .debug_str:0000000000000754 .LASF6
     /tmp/ccgP4cwP.s:3976   .debug_str:0000000000000bcf .LASF7
     /tmp/ccgP4cwP.s:3706   .debug_str:0000000000000268 .LASF8
     /tmp/ccgP4cwP.s:4112   .debug_str:0000000000001079 .LASF9
     /tmp/ccgP4cwP.s:3792   .debug_str:000000000000052b .LASF10
     /tmp/ccgP4cwP.s:3734   .debug_str:0000000000000340 .LASF11
     /tmp/ccgP4cwP.s:3866   .debug_str:00000000000007f2 .LASF12
     /tmp/ccgP4cwP.s:3800   .debug_str:0000000000000574 .LASF13
     /tmp/ccgP4cwP.s:4012   .debug_str:0000000000000d10 .LASF14
     /tmp/ccgP4cwP.s:3804   .debug_str:000000000000058c .LASF15
     /tmp/ccgP4cwP.s:3762   .debug_str:000000000000044d .LASF16
     /tmp/ccgP4cwP.s:3838   .debug_str:00000000000006f4 .LASF17
     /tmp/ccgP4cwP.s:4050   .debug_str:0000000000000e34 .LASF18
     /tmp/ccgP4cwP.s:4158   .debug_str:00000000000012dd .LASF19
     /tmp/ccgP4cwP.s:3742   .debug_str:0000000000000375 .LASF20
     /tmp/ccgP4cwP.s:3642   .debug_str:0000000000000032 .LASF21
     /tmp/ccgP4cwP.s:4156   .debug_str:00000000000012cf .LASF22
     /tmp/ccgP4cwP.s:3900   .debug_str:000000000000094e .LASF23
     /tmp/ccgP4cwP.s:3856   .debug_str:0000000000000792 .LASF24
     /tmp/ccgP4cwP.s:4026   .debug_str:0000000000000d66 .LASF34
     /tmp/ccgP4cwP.s:4020   .debug_str:0000000000000d3f .LASF25
     /tmp/ccgP4cwP.s:3926   .debug_str:0000000000000a28 .LASF26
     /tmp/ccgP4cwP.s:3972   .debug_str:0000000000000bc1 .LASF27
     /tmp/ccgP4cwP.s:3854   .debug_str:000000000000078a .LASF28
     /tmp/ccgP4cwP.s:3680   .debug_str:000000000000018d .LASF29
     /tmp/ccgP4cwP.s:3964   .debug_str:0000000000000b9d .LASF30
     /tmp/ccgP4cwP.s:3714   .debug_str:0000000000000294 .LASF31
     /tmp/ccgP4cwP.s:4168   .debug_str:0000000000001342 .LASF32
     /tmp/ccgP4cwP.s:4008   .debug_str:0000000000000cf3 .LASF33
     /tmp/ccgP4cwP.s:4014   .debug_str:0000000000000d1c .LASF35
     /tmp/ccgP4cwP.s:4148   .debug_str:0000000000001297 .LASF36
     /tmp/ccgP4cwP.s:3998   .debug_str:0000000000000caa .LASF38
     /tmp/ccgP4cwP.s:3988   .debug_str:0000000000000c53 .LASF37
     /tmp/ccgP4cwP.s:4110   .debug_str:0000000000001066 .LASF39
     /tmp/ccgP4cwP.s:3686   .debug_str:00000000000001b1 .LASF40
     /tmp/ccgP4cwP.s:3670   .debug_str:000000000000013d .LASF41
     /tmp/ccgP4cwP.s:3662   .debug_str:00000000000000f8 .LASF42
     /tmp/ccgP4cwP.s:3852   .debug_str:000000000000077a .LASF43
     /tmp/ccgP4cwP.s:3980   .debug_str:0000000000000c00 .LASF44
     /tmp/ccgP4cwP.s:3806   .debug_str:00000000000005a2 .LASF45
     /tmp/ccgP4cwP.s:3968   .debug_str:0000000000000bb2 .LASF46
     /tmp/ccgP4cwP.s:3970   .debug_str:0000000000000bb9 .LASF264
     /tmp/ccgP4cwP.s:3672   .debug_str:0000000000000142 .LASF51
     /tmp/ccgP4cwP.s:3934   .debug_str:0000000000000a77 .LASF47
     /tmp/ccgP4cwP.s:3896   .debug_str:0000000000000928 .LASF48
     /tmp/ccgP4cwP.s:3834   .debug_str:00000000000006cd .LASF49
     /tmp/ccgP4cwP.s:4022   .debug_str:0000000000000d44 .LASF50
GAS LISTING /tmp/ccgP4cwP.s 			page 23


     /tmp/ccgP4cwP.s:3974   .debug_str:0000000000000bca .LASF52
     /tmp/ccgP4cwP.s:3710   .debug_str:000000000000028a .LASF53
     /tmp/ccgP4cwP.s:4052   .debug_str:0000000000000e3c .LASF54
     /tmp/ccgP4cwP.s:3638   .debug_str:0000000000000013 .LASF55
     /tmp/ccgP4cwP.s:3740   .debug_str:000000000000035e .LASF56
     /tmp/ccgP4cwP.s:3810   .debug_str:00000000000005cb .LASF57
     /tmp/ccgP4cwP.s:4136   .debug_str:000000000000124b .LASF58
     /tmp/ccgP4cwP.s:3922   .debug_str:0000000000000a11 .LASF60
     /tmp/ccgP4cwP.s:4082   .debug_str:0000000000000f66 .LASF62
     /tmp/ccgP4cwP.s:3676   .debug_str:000000000000015e .LASF64
     /tmp/ccgP4cwP.s:3942   .debug_str:0000000000000a9f .LASF59
     /tmp/ccgP4cwP.s:3820   .debug_str:000000000000064d .LASF61
     /tmp/ccgP4cwP.s:3938   .debug_str:0000000000000a8a .LASF63
     /tmp/ccgP4cwP.s:3682   .debug_str:0000000000000192 .LASF65
     /tmp/ccgP4cwP.s:3812   .debug_str:00000000000005d0 .LASF66
     /tmp/ccgP4cwP.s:4044   .debug_str:0000000000000e05 .LASF67
     /tmp/ccgP4cwP.s:3878   .debug_str:000000000000085f .LASF68
     /tmp/ccgP4cwP.s:3930   .debug_str:0000000000000a5c .LASF70
     /tmp/ccgP4cwP.s:3790   .debug_str:0000000000000520 .LASF69
     /tmp/ccgP4cwP.s:4060   .debug_str:0000000000000e87 .LASF71
     /tmp/ccgP4cwP.s:3966   .debug_str:0000000000000ba2 .LASF72
     /tmp/ccgP4cwP.s:3746   .debug_str:000000000000038a .LASF73
     /tmp/ccgP4cwP.s:3794   .debug_str:000000000000053a .LASF74
     /tmp/ccgP4cwP.s:3696   .debug_str:0000000000000213 .LASF75
     /tmp/ccgP4cwP.s:4108   .debug_str:0000000000001058 .LASF76
     /tmp/ccgP4cwP.s:3752   .debug_str:00000000000003ca .LASF77
     /tmp/ccgP4cwP.s:3650   .debug_str:000000000000008f .LASF78
     /tmp/ccgP4cwP.s:4002   .debug_str:0000000000000cc5 .LASF79
     /tmp/ccgP4cwP.s:3932   .debug_str:0000000000000a6f .LASF80
     /tmp/ccgP4cwP.s:3862   .debug_str:00000000000007cd .LASF81
     /tmp/ccgP4cwP.s:3712   .debug_str:000000000000028f .LASF82
     /tmp/ccgP4cwP.s:4056   .debug_str:0000000000000e66 .LASF83
     /tmp/ccgP4cwP.s:3940   .debug_str:0000000000000a9a .LASF84
     /tmp/ccgP4cwP.s:4028   .debug_str:0000000000000d6c .LASF85
     /tmp/ccgP4cwP.s:3652   .debug_str:000000000000009b .LASF86
     /tmp/ccgP4cwP.s:3782   .debug_str:00000000000004f9 .LASF87
     /tmp/ccgP4cwP.s:3920   .debug_str:0000000000000a09 .LASF88
     /tmp/ccgP4cwP.s:3666   .debug_str:0000000000000126 .LASF89
     /tmp/ccgP4cwP.s:3990   .debug_str:0000000000000c5b .LASF90
     /tmp/ccgP4cwP.s:4066   .debug_str:0000000000000ec8 .LASF91
     /tmp/ccgP4cwP.s:3936   .debug_str:0000000000000a7f .LASF92
     /tmp/ccgP4cwP.s:4142   .debug_str:0000000000001263 .LASF93
     /tmp/ccgP4cwP.s:3918   .debug_str:00000000000009fe .LASF94
     /tmp/ccgP4cwP.s:4080   .debug_str:0000000000000f55 .LASF95
     /tmp/ccgP4cwP.s:4140   .debug_str:000000000000125a .LASF96
     /tmp/ccgP4cwP.s:3738   .debug_str:0000000000000354 .LASF97
     /tmp/ccgP4cwP.s:4138   .debug_str:0000000000001250 .LASF98
     /tmp/ccgP4cwP.s:4048   .debug_str:0000000000000e2a .LASF99
     /tmp/ccgP4cwP.s:3992   .debug_str:0000000000000c64 .LASF100
     /tmp/ccgP4cwP.s:4062   .debug_str:0000000000000e9d .LASF265
     /tmp/ccgP4cwP.s:3824   .debug_str:0000000000000677 .LASF266
     /tmp/ccgP4cwP.s:4104   .debug_str:0000000000001046 .LASF101
     /tmp/ccgP4cwP.s:3892   .debug_str:00000000000008fd .LASF102
     /tmp/ccgP4cwP.s:3828   .debug_str:00000000000006a0 .LASF103
     /tmp/ccgP4cwP.s:4046   .debug_str:0000000000000e14 .LASF104
     /tmp/ccgP4cwP.s:3678   .debug_str:0000000000000171 .LASF105
     /tmp/ccgP4cwP.s:4006   .debug_str:0000000000000ce5 .LASF106
GAS LISTING /tmp/ccgP4cwP.s 			page 24


     /tmp/ccgP4cwP.s:3766   .debug_str:0000000000000476 .LASF108
     /tmp/ccgP4cwP.s:4088   .debug_str:0000000000000f9c .LASF107
     /tmp/ccgP4cwP.s:3772   .debug_str:00000000000004a6 .LASF109
     /tmp/ccgP4cwP.s:3718   .debug_str:00000000000002aa .LASF110
     /tmp/ccgP4cwP.s:3924   .debug_str:0000000000000a1d .LASF111
     /tmp/ccgP4cwP.s:3722   .debug_str:00000000000002c3 .LASF112
     /tmp/ccgP4cwP.s:4070   .debug_str:0000000000000f02 .LASF113
     /tmp/ccgP4cwP.s:3768   .debug_str:0000000000000495 .LASF114
     /tmp/ccgP4cwP.s:4018   .debug_str:0000000000000d2e .LASF115
     /tmp/ccgP4cwP.s:4040   .debug_str:0000000000000ddc .LASF116
     /tmp/ccgP4cwP.s:3996   .debug_str:0000000000000c86 .LASF117
     /tmp/ccgP4cwP.s:4124   .debug_str:0000000000001114 .LASF118
     /tmp/ccgP4cwP.s:4114   .debug_str:0000000000001087 .LASF119
     /tmp/ccgP4cwP.s:3704   .debug_str:000000000000024d .LASF120
     /tmp/ccgP4cwP.s:3858   .debug_str:000000000000079f .LASF121
     /tmp/ccgP4cwP.s:3748   .debug_str:000000000000039a .LASF122
     /tmp/ccgP4cwP.s:4072   .debug_str:0000000000000f07 .LASF123
     /tmp/ccgP4cwP.s:3880   .debug_str:0000000000000868 .LASF124
     /tmp/ccgP4cwP.s:3958   .debug_str:0000000000000b57 .LASF125
     /tmp/ccgP4cwP.s:3664   .debug_str:0000000000000107 .LASF126
     /tmp/ccgP4cwP.s:3814   .debug_str:00000000000005d5 .LASF127
     /tmp/ccgP4cwP.s:3830   .debug_str:00000000000006a6 .LASF128
     /tmp/ccgP4cwP.s:4086   .debug_str:0000000000000f75 .LASF129
     /tmp/ccgP4cwP.s:3944   .debug_str:0000000000000aac .LASF130
     /tmp/ccgP4cwP.s:3760   .debug_str:000000000000042a .LASF131
     /tmp/ccgP4cwP.s:3750   .debug_str:00000000000003b3 .LASF132
     /tmp/ccgP4cwP.s:4094   .debug_str:0000000000000fd6 .LASF133
     /tmp/ccgP4cwP.s:4118   .debug_str:00000000000010b7 .LASF134
     /tmp/ccgP4cwP.s:3950   .debug_str:0000000000000af8 .LASF135
     /tmp/ccgP4cwP.s:3692   .debug_str:00000000000001f0 .LASF136
     /tmp/ccgP4cwP.s:3948   .debug_str:0000000000000ad3 .LASF137
     /tmp/ccgP4cwP.s:4092   .debug_str:0000000000000fbe .LASF138
     /tmp/ccgP4cwP.s:3818   .debug_str:0000000000000628 .LASF139
     /tmp/ccgP4cwP.s:3720   .debug_str:00000000000002b0 .LASF140
     /tmp/ccgP4cwP.s:3884   .debug_str:0000000000000897 .LASF141
     /tmp/ccgP4cwP.s:3850   .debug_str:0000000000000767 .LASF142
     /tmp/ccgP4cwP.s:3898   .debug_str:000000000000092e .LASF143
     /tmp/ccgP4cwP.s:3646   .debug_str:0000000000000058 .LASF144
     /tmp/ccgP4cwP.s:4120   .debug_str:00000000000010cd .LASF145
     /tmp/ccgP4cwP.s:4146   .debug_str:000000000000127e .LASF146
     /tmp/ccgP4cwP.s:3796   .debug_str:0000000000000544 .LASF147
     /tmp/ccgP4cwP.s:3808   .debug_str:00000000000005af .LASF148
     /tmp/ccgP4cwP.s:3928   .debug_str:0000000000000a33 .LASF149
     /tmp/ccgP4cwP.s:3636   .debug_str:0000000000000000 .LASF150
     /tmp/ccgP4cwP.s:4038   .debug_str:0000000000000dbc .LASF151
     /tmp/ccgP4cwP.s:4106   .debug_str:000000000000104c .LASF152
     /tmp/ccgP4cwP.s:4024   .debug_str:0000000000000d4c .LASF153
     /tmp/ccgP4cwP.s:3986   .debug_str:0000000000000c42 .LASF154
     /tmp/ccgP4cwP.s:3916   .debug_str:00000000000009d2 .LASF155
     /tmp/ccgP4cwP.s:3656   .debug_str:00000000000000b2 .LASF156
     /tmp/ccgP4cwP.s:3982   .debug_str:0000000000000c0a .LASF157
     /tmp/ccgP4cwP.s:4064   .debug_str:0000000000000eb5 .LASF158
     /tmp/ccgP4cwP.s:3648   .debug_str:000000000000006f .LASF159
     /tmp/ccgP4cwP.s:4150   .debug_str:000000000000129e .LASF160
     /tmp/ccgP4cwP.s:3994   .debug_str:0000000000000c71 .LASF161
     /tmp/ccgP4cwP.s:4000   .debug_str:0000000000000cbc .LASF162
     /tmp/ccgP4cwP.s:4090   .debug_str:0000000000000fa9 .LASF163
GAS LISTING /tmp/ccgP4cwP.s 			page 25


     /tmp/ccgP4cwP.s:3744   .debug_str:0000000000000383 .LASF164
     /tmp/ccgP4cwP.s:4030   .debug_str:0000000000000d72 .LASF165
     /tmp/ccgP4cwP.s:3784   .debug_str:00000000000004fe .LASF166
     /tmp/ccgP4cwP.s:3902   .debug_str:0000000000000953 .LASF167
     /tmp/ccgP4cwP.s:4130   .debug_str:000000000000114f .LASF168
     /tmp/ccgP4cwP.s:3786   .debug_str:0000000000000505 .LASF169
     /tmp/ccgP4cwP.s:4004   .debug_str:0000000000000cdd .LASF170
     /tmp/ccgP4cwP.s:4010   .debug_str:0000000000000cfc .LASF171
     /tmp/ccgP4cwP.s:3798   .debug_str:000000000000056a .LASF172
     /tmp/ccgP4cwP.s:3914   .debug_str:00000000000009bc .LASF173
     /tmp/ccgP4cwP.s:3774   .debug_str:00000000000004c4 .LASF174
     /tmp/ccgP4cwP.s:3960   .debug_str:0000000000000b81 .LASF175
     /tmp/ccgP4cwP.s:3910   .debug_str:0000000000000997 .LASF176
     /tmp/ccgP4cwP.s:4166   .debug_str:000000000000132a .LASF177
     /tmp/ccgP4cwP.s:3694   .debug_str:0000000000000208 .LASF178
     /tmp/ccgP4cwP.s:4036   .debug_str:0000000000000da4 .LASF179
     /tmp/ccgP4cwP.s:4084   .debug_str:0000000000000f6e .LASF180
     /tmp/ccgP4cwP.s:3756   .debug_str:0000000000000408 .LASF181
     /tmp/ccgP4cwP.s:3776   .debug_str:00000000000004ce .LASF182
     /tmp/ccgP4cwP.s:3874   .debug_str:000000000000082d .LASF183
     /tmp/ccgP4cwP.s:4076   .debug_str:0000000000000f3b .LASF184
     /tmp/ccgP4cwP.s:3702   .debug_str:000000000000023a .LASF185
     /tmp/ccgP4cwP.s:3840   .debug_str:00000000000006f9 .LASF186
     /tmp/ccgP4cwP.s:4162   .debug_str:00000000000012fe .LASF187
     /tmp/ccgP4cwP.s:4116   .debug_str:00000000000010aa .LASF188
     /tmp/ccgP4cwP.s:3912   .debug_str:00000000000009a2 .LASF189
     /tmp/ccgP4cwP.s:3654   .debug_str:00000000000000a5 .LASF190
     /tmp/ccgP4cwP.s:3732   .debug_str:0000000000000326 .LASF191
     /tmp/ccgP4cwP.s:3728   .debug_str:0000000000000302 .LASF192
     /tmp/ccgP4cwP.s:3778   .debug_str:00000000000004d5 .LASF193
     /tmp/ccgP4cwP.s:4078   .debug_str:0000000000000f42 .LASF194
     /tmp/ccgP4cwP.s:4170   .debug_str:000000000000134e .LASF195
     /tmp/ccgP4cwP.s:3882   .debug_str:0000000000000885 .LASF196
     /tmp/ccgP4cwP.s:3876   .debug_str:0000000000000840 .LASF197
     /tmp/ccgP4cwP.s:3894   .debug_str:0000000000000917 .LASF198
     /tmp/ccgP4cwP.s:3836   .debug_str:00000000000006d6 .LASF199
     /tmp/ccgP4cwP.s:3822   .debug_str:0000000000000659 .LASF200
     /tmp/ccgP4cwP.s:3726   .debug_str:00000000000002d7 .LASF201
     /tmp/ccgP4cwP.s:3954   .debug_str:0000000000000b20 .LASF202
     /tmp/ccgP4cwP.s:3864   .debug_str:00000000000007d4 .LASF203
     /tmp/ccgP4cwP.s:3724   .debug_str:00000000000002c8 .LASF204
     /tmp/ccgP4cwP.s:4058   .debug_str:0000000000000e6b .LASF205
     /tmp/ccgP4cwP.s:3962   .debug_str:0000000000000b97 .LASF206
     /tmp/ccgP4cwP.s:3908   .debug_str:0000000000000985 .LASF207
     /tmp/ccgP4cwP.s:3758   .debug_str:000000000000041b .LASF208
     /tmp/ccgP4cwP.s:3842   .debug_str:0000000000000700 .LASF209
     /tmp/ccgP4cwP.s:3674   .debug_str:0000000000000149 .LASF210
     /tmp/ccgP4cwP.s:3890   .debug_str:00000000000008db .LASF211
     /tmp/ccgP4cwP.s:4172   .debug_str:000000000000136f .LASF212
     /tmp/ccgP4cwP.s:4100   .debug_str:0000000000001023 .LASF213
     /tmp/ccgP4cwP.s:3708   .debug_str:0000000000000278 .LASF214
     /tmp/ccgP4cwP.s:4054   .debug_str:0000000000000e47 .LASF215
     /tmp/ccgP4cwP.s:4164   .debug_str:0000000000001311 .LASF216
     /tmp/ccgP4cwP.s:3956   .debug_str:0000000000000b31 .LASF217
     /tmp/ccgP4cwP.s:3644   .debug_str:000000000000003e .LASF218
     /tmp/ccgP4cwP.s:3816   .debug_str:0000000000000601 .LASF219
     /tmp/ccgP4cwP.s:3754   .debug_str:00000000000003f2 .LASF220
GAS LISTING /tmp/ccgP4cwP.s 			page 26


     /tmp/ccgP4cwP.s:4122   .debug_str:00000000000010f1 .LASF221
     /tmp/ccgP4cwP.s:3688   .debug_str:00000000000001b6 .LASF222
     /tmp/ccgP4cwP.s:4134   .debug_str:0000000000001227 .LASF223
     /tmp/ccgP4cwP.s:3868   .debug_str:0000000000000802 .LASF224
     /tmp/ccgP4cwP.s:4096   .debug_str:0000000000000ffa .LASF225
     /tmp/ccgP4cwP.s:4034   .debug_str:0000000000000d8c .LASF226
     /tmp/ccgP4cwP.s:4098   .debug_str:000000000000101a .LASF227
     /tmp/ccgP4cwP.s:3826   .debug_str:000000000000068b .LASF228
     /tmp/ccgP4cwP.s:3870   .debug_str:0000000000000812 .LASF229
     /tmp/ccgP4cwP.s:4144   .debug_str:000000000000126b .LASF230
     /tmp/ccgP4cwP.s:3832   .debug_str:00000000000006c0 .LASF231
     /tmp/ccgP4cwP.s:3978   .debug_str:0000000000000be2 .LASF232
     /tmp/ccgP4cwP.s:3904   .debug_str:0000000000000966 .LASF233
     /tmp/ccgP4cwP.s:3984   .debug_str:0000000000000c26 .LASF234
     /tmp/ccgP4cwP.s:4016   .debug_str:0000000000000d21 .LASF235
     /tmp/ccgP4cwP.s:3888   .debug_str:00000000000008c1 .LASF236
     /tmp/ccgP4cwP.s:3872   .debug_str:0000000000000819 .LASF267
     /tmp/ccgP4cwP.s:3658   .debug_str:00000000000000c1 .LASF268
     /tmp/ccgP4cwP.s:3946   .debug_str:0000000000000ac2 .LASF237
     /tmp/ccgP4cwP.s:3660   .debug_str:00000000000000e3 .LASF238
     /tmp/ccgP4cwP.s:4160   .debug_str:00000000000012eb .LASF239
     /tmp/ccgP4cwP.s:3640   .debug_str:000000000000001f .LASF240
     /tmp/ccgP4cwP.s:3846   .debug_str:0000000000000739 .LASF241
     /tmp/ccgP4cwP.s:4126   .debug_str:000000000000112a .LASF242
     /tmp/ccgP4cwP.s:45     .text:0000000000000028 .LFB61
     /tmp/ccgP4cwP.s:73     .text:0000000000000050 .LFE61
     /tmp/ccgP4cwP.s:10     .text:0000000000000000 .LFB60
     /tmp/ccgP4cwP.s:39     .text:0000000000000028 .LFE60
     /tmp/ccgP4cwP.s:544    .text:0000000000000348 .LFB59
     /tmp/ccgP4cwP.s:591    .text:0000000000000374 .LFE59
     /tmp/ccgP4cwP.s:4102   .debug_str:0000000000001041 .LASF243
     /tmp/ccgP4cwP.s:3454   .debug_loc:0000000000000000 .LLST8
     /tmp/ccgP4cwP.s:3770   .debug_str:00000000000004a1 .LASF244
     /tmp/ccgP4cwP.s:3468   .debug_loc:0000000000000039 .LLST9
     /tmp/ccgP4cwP.s:3482   .debug_loc:0000000000000072 .LLST10
     /tmp/ccgP4cwP.s:509    .text:0000000000000314 .LFB58
     /tmp/ccgP4cwP.s:538    .text:0000000000000348 .LFE58
     /tmp/ccgP4cwP.s:3489   .debug_loc:0000000000000095 .LLST7
     /tmp/ccgP4cwP.s:527    .text:0000000000000338 .LVL39
     /tmp/ccgP4cwP.s:369    .text:00000000000001f0 .LFB57
     /tmp/ccgP4cwP.s:397    .text:0000000000000220 .LFE57
     /tmp/ccgP4cwP.s:3736   .debug_str:000000000000034f .LASF245
     /tmp/ccgP4cwP.s:3507   .debug_loc:00000000000000e1 .LLST5
     /tmp/ccgP4cwP.s:386    .text:0000000000000210 .LVL26
     /tmp/ccgP4cwP.s:79     .text:0000000000000050 .LFB56
     /tmp/ccgP4cwP.s:134    .text:00000000000000b4 .LFE56
     /tmp/ccgP4cwP.s:3521   .debug_loc:000000000000011a .LLST0
     /tmp/ccgP4cwP.s:101    .text:000000000000007c .LVL3
     /tmp/ccgP4cwP.s:114    .text:0000000000000098 .LVL5
     /tmp/ccgP4cwP.s:131    .text:00000000000000b0 .LVL7
     /tmp/ccgP4cwP.s:294    .text:0000000000000170 .LFB55
     /tmp/ccgP4cwP.s:363    .text:00000000000001f0 .LFE55
     /tmp/ccgP4cwP.s:3546   .debug_loc:000000000000017c .LLST4
     /tmp/ccgP4cwP.s:321    .text:00000000000001a0 .LVL18
     /tmp/ccgP4cwP.s:332    .text:00000000000001b8 .LVL19
     /tmp/ccgP4cwP.s:338    .text:00000000000001cc .LVL20
     /tmp/ccgP4cwP.s:360    .text:00000000000001ec .LVL23
GAS LISTING /tmp/ccgP4cwP.s 			page 27


     /tmp/ccgP4cwP.s:3952   .debug_str:0000000000000b1b .LASF246
     /tmp/ccgP4cwP.s:3886   .debug_str:00000000000008b7 .LASF247
     /tmp/ccgP4cwP.s:3700   .debug_str:000000000000022e .LASF248
     /tmp/ccgP4cwP.s:248    .text:0000000000000148 .LFB53
     /tmp/ccgP4cwP.s:278    .text:0000000000000170 .LFE53
     /tmp/ccgP4cwP.s:3557   .debug_loc:00000000000001b2 .LLST3
     /tmp/ccgP4cwP.s:266    .text:0000000000000160 .LVL16
     /tmp/ccgP4cwP.s:214    .text:000000000000011c .LFB51
     /tmp/ccgP4cwP.s:242    .text:0000000000000148 .LFE51
     /tmp/ccgP4cwP.s:3571   .debug_loc:00000000000001eb .LLST2
     /tmp/ccgP4cwP.s:231    .text:0000000000000138 .LVL14
     /tmp/ccgP4cwP.s:3730   .debug_str:000000000000030f .LASF249
     /tmp/ccgP4cwP.s:140    .text:00000000000000b4 .LFB49
     /tmp/ccgP4cwP.s:206    .text:000000000000011c .LFE49
     /tmp/ccgP4cwP.s:3585   .debug_loc:0000000000000224 .LLST1
     /tmp/ccgP4cwP.s:408    .text:0000000000000220 .LFB47
     /tmp/ccgP4cwP.s:503    .text:0000000000000314 .LFE47
     /tmp/ccgP4cwP.s:3780   .debug_str:00000000000004ef .LASF250
     /tmp/ccgP4cwP.s:3610   .debug_loc:0000000000000286 .LLST6
     /tmp/ccgP4cwP.s:430    .text:000000000000025c .LVL27
     /tmp/ccgP4cwP.s:437    .text:0000000000000270 .LVL28
     /tmp/ccgP4cwP.s:446    .text:0000000000000290 .LVL29
     /tmp/ccgP4cwP.s:458    .text:00000000000002ac .LVL30
     /tmp/ccgP4cwP.s:466    .text:00000000000002bc .LVL33
     /tmp/ccgP4cwP.s:475    .text:00000000000002e0 .LVL34
     /tmp/ccgP4cwP.s:487    .text:00000000000002fc .LVL35
     /tmp/ccgP4cwP.s:3844   .debug_str:000000000000071c .LASF251
     /tmp/ccgP4cwP.s:3906   .debug_str:0000000000000975 .LASF253
     /tmp/ccgP4cwP.s:4154   .debug_str:00000000000012b3 .LASF252
     /tmp/ccgP4cwP.s:3698   .debug_str:000000000000021d .LASF254
     /tmp/ccgP4cwP.s:4152   .debug_str:00000000000012a7 .LASF255
     /tmp/ccgP4cwP.s:3860   .debug_str:00000000000007c7 .LASF256
     /tmp/ccgP4cwP.s:3690   .debug_str:00000000000001cd .LASF257
     /tmp/ccgP4cwP.s:3684   .debug_str:000000000000019f .LASF258
     /tmp/ccgP4cwP.s:3716   .debug_str:000000000000029e .LASF259
     /tmp/ccgP4cwP.s:3802   .debug_str:0000000000000584 .LASF260
     /tmp/ccgP4cwP.s:547    .text:0000000000000348 .LVL40
     /tmp/ccgP4cwP.s:578    .text:0000000000000364 .LVL42
     /tmp/ccgP4cwP.s:555    .text:0000000000000354 .LVL41
     /tmp/ccgP4cwP.s:583    .text:0000000000000368 .LVL43
     /tmp/ccgP4cwP.s:512    .text:0000000000000314 .LVL37
     /tmp/ccgP4cwP.s:525    .text:0000000000000330 .LVL38
     /tmp/ccgP4cwP.s:372    .text:00000000000001f0 .LVL24
     /tmp/ccgP4cwP.s:384    .text:0000000000000208 .LVL25
     /tmp/ccgP4cwP.s:82     .text:0000000000000050 .LVL2
     /tmp/ccgP4cwP.s:125    .text:00000000000000a8 .LVL6
     /tmp/ccgP4cwP.s:310    .text:000000000000018c .LVL17
     /tmp/ccgP4cwP.s:349    .text:00000000000001d8 .LVL21
     /tmp/ccgP4cwP.s:353    .text:00000000000001e0 .LVL22
     /tmp/ccgP4cwP.s:253    .text:0000000000000148 .LVL15
     /tmp/ccgP4cwP.s:217    .text:000000000000011c .LVL12
     /tmp/ccgP4cwP.s:229    .text:0000000000000130 .LVL13
     /tmp/ccgP4cwP.s:143    .text:00000000000000b4 .LVL8
     /tmp/ccgP4cwP.s:177    .text:00000000000000f0 .LVL9
     /tmp/ccgP4cwP.s:192    .text:000000000000010c .LVL10
     /tmp/ccgP4cwP.s:202    .text:0000000000000118 .LVL11
     /tmp/ccgP4cwP.s:460    .text:00000000000002b0 .LVL31
GAS LISTING /tmp/ccgP4cwP.s 			page 28


     /tmp/ccgP4cwP.s:464    .text:00000000000002b4 .LVL32
     /tmp/ccgP4cwP.s:498    .text:000000000000030c .LVL36
     /tmp/ccgP4cwP.s:637    .debug_info:0000000000000000 .Ldebug_info0
     /tmp/ccgP4cwP.s:281    .gcc_except_table:0000000000000000 .LLSDA53

UNDEFINED SYMBOLS
_ZN5RiscV14popSppSpieUserEv
_ZN5RiscV14threadExitUtilEv
_ZN5RiscV16popSppSpieSystemEv
_Z5kfreePKv
__gxx_personality_v0
_ZN9Scheduler3getEv
_ZN5RiscV29jumpToDesignatedPrivilegeModeEv
_ZN3TCB13contextSwitchEPNS_7ContextES1_
_ZN9Scheduler3putEP3TCB
_Z16kmem_cache_allocP5Cache
_Z17kmem_cache_createPKcmPFvPvES3_
_Z7kmallocm
_ZN5RiscV11putcWrapperEPv
_Z15kmem_cache_freeP5CachePv
