GAS LISTING /tmp/cc9e2H1N.s 			page 1


   1              		.file	"tcb.cpp"
   2              		.option pic
   3              		.option norelax
   4              		.text
   5              	.Ltext0:
   6              		.align	2
   7              		.globl	_ZN3TCB4ctorEPv
   9              	_ZN3TCB4ctorEPv:
  10              	.LFB55:
  11              		.file 1 "src/kernel/tcb.cpp"
   1:src/kernel/tcb.cpp **** //
   2:src/kernel/tcb.cpp **** // Created by os on 5/18/22.
   3:src/kernel/tcb.cpp **** //
   4:src/kernel/tcb.cpp **** 
   5:src/kernel/tcb.cpp **** #include "../../h/tcb.hpp"
   6:src/kernel/tcb.cpp **** #include "../../h/memoryAllocator.hpp"
   7:src/kernel/tcb.cpp **** #include "../../h/scheduler.hpp"
   8:src/kernel/tcb.cpp **** #include "../../h/syscall_c.h"
   9:src/kernel/tcb.cpp **** #include "../../h/printing.hpp"
  10:src/kernel/tcb.cpp **** #include "../../h/riscv.hpp"
  11:src/kernel/tcb.cpp **** #include "../../h/tcbWrapperUtil.hpp"
  12:src/kernel/tcb.cpp **** 
  13:src/kernel/tcb.cpp **** TCB* TCB::running = nullptr;
  14:src/kernel/tcb.cpp **** 
  15:src/kernel/tcb.cpp **** TCB* TCB::putcThread = nullptr;
  16:src/kernel/tcb.cpp **** 
  17:src/kernel/tcb.cpp **** uint64 TCB::currentPC = 0;
  18:src/kernel/tcb.cpp **** 
  19:src/kernel/tcb.cpp **** uint64 TCB::currentSP = 0;
  20:src/kernel/tcb.cpp **** 
  21:src/kernel/tcb.cpp **** uint64 TCB::timeSliceCounter = 0;
  22:src/kernel/tcb.cpp **** 
  23:src/kernel/tcb.cpp **** kmem_cache_t* TCB::tcbCache = nullptr;
  24:src/kernel/tcb.cpp **** 
  25:src/kernel/tcb.cpp **** 
  26:src/kernel/tcb.cpp **** //create a thread for kernel main and a separate thread for console output execution
  27:src/kernel/tcb.cpp **** void TCB::initialize() {
  28:src/kernel/tcb.cpp **** 
  29:src/kernel/tcb.cpp ****     TCB::tcbCache = kmem_cache_create("TCB Cache", sizeof(TCB), TCB::ctor, TCB::dtor);
  30:src/kernel/tcb.cpp **** 
  31:src/kernel/tcb.cpp ****     TCB::running = new TCB(nullptr, nullptr, nullptr, DEFAULT_TIME_SLICE);
  32:src/kernel/tcb.cpp **** 
  33:src/kernel/tcb.cpp ****     TCB::running->mode = Mode::SUPERVISOR;
  34:src/kernel/tcb.cpp ****     //stack for thread that will be running console output
  35:src/kernel/tcb.cpp ****     uint64 *putcStack = (uint64*)kmalloc(DEFAULT_STACK_SIZE);
  36:src/kernel/tcb.cpp **** 
  37:src/kernel/tcb.cpp ****     //console output thread
  38:src/kernel/tcb.cpp ****     putcThread = new TCB(RiscV::putcWrapper, nullptr, putcStack, DEFAULT_TIME_SLICE);
  39:src/kernel/tcb.cpp **** 
  40:src/kernel/tcb.cpp ****     putcThread->mode = Mode::SUPERVISOR;
  41:src/kernel/tcb.cpp ****     //putcThread->context.ra = (uint64)RiscV::putcWrapper;
  42:src/kernel/tcb.cpp **** 
  43:src/kernel/tcb.cpp ****     Scheduler::put(putcThread);
  44:src/kernel/tcb.cpp **** }
  45:src/kernel/tcb.cpp **** 
  46:src/kernel/tcb.cpp **** //tcb constructor
  47:src/kernel/tcb.cpp **** TCB::TCB(Body body, void* args, uint64* stack, uint64 timeSlice){
GAS LISTING /tmp/cc9e2H1N.s 			page 2


  48:src/kernel/tcb.cpp **** 
  49:src/kernel/tcb.cpp ****     this->body = body;
  50:src/kernel/tcb.cpp **** 
  51:src/kernel/tcb.cpp ****     this->args = args;
  52:src/kernel/tcb.cpp **** 
  53:src/kernel/tcb.cpp ****     this->timeSlice = timeSlice;
  54:src/kernel/tcb.cpp **** 
  55:src/kernel/tcb.cpp ****     this->stack = (body == nullptr) ? nullptr : stack;
  56:src/kernel/tcb.cpp **** 
  57:src/kernel/tcb.cpp ****     //initial context for thread
  58:src/kernel/tcb.cpp ****     this->context = {(body == nullptr) ? 0 : (uint64)((char*)stack + DEFAULT_STACK_SIZE),
  59:src/kernel/tcb.cpp ****                      (uint64)&wrapper };
  60:src/kernel/tcb.cpp **** }
  61:src/kernel/tcb.cpp **** 
  62:src/kernel/tcb.cpp **** //deallocate memory for thread stack
  63:src/kernel/tcb.cpp **** void TCB::free(){
  64:src/kernel/tcb.cpp ****     kfree(stack);
  65:src/kernel/tcb.cpp **** }
  66:src/kernel/tcb.cpp **** 
  67:src/kernel/tcb.cpp **** TCB::~TCB(){
  68:src/kernel/tcb.cpp ****     free();
  69:src/kernel/tcb.cpp **** }
  70:src/kernel/tcb.cpp **** 
  71:src/kernel/tcb.cpp **** //if currently running thread is not finished, asleep or blocked, put it in scheduler
  72:src/kernel/tcb.cpp **** //get new thread from scheduler and switch context
  73:src/kernel/tcb.cpp **** void TCB::dispatch() {
  74:src/kernel/tcb.cpp ****     TCB* old = running;
  75:src/kernel/tcb.cpp **** 
  76:src/kernel/tcb.cpp ****     if(old->status == Status::READY || old->status == Status::RUNNING) {
  77:src/kernel/tcb.cpp ****         Scheduler::put(old);
  78:src/kernel/tcb.cpp ****     }
  79:src/kernel/tcb.cpp **** 
  80:src/kernel/tcb.cpp ****     running = Scheduler::get();
  81:src/kernel/tcb.cpp **** 
  82:src/kernel/tcb.cpp ****     if(running) {
  83:src/kernel/tcb.cpp ****         running->status = Status::RUNNING;
  84:src/kernel/tcb.cpp ****         RiscV::jumpToDesignatedPrivilegeMode();
  85:src/kernel/tcb.cpp ****         contextSwitch(&old->context, &running->context);
  86:src/kernel/tcb.cpp ****     }
  87:src/kernel/tcb.cpp **** }
  88:src/kernel/tcb.cpp **** 
  89:src/kernel/tcb.cpp **** //wrapper function to run body function
  90:src/kernel/tcb.cpp **** void TCB::wrapper(void *args) {
  91:src/kernel/tcb.cpp ****     RiscV::popSppSpie();
  92:src/kernel/tcb.cpp **** 
  93:src/kernel/tcb.cpp ****     running->body(running->args);
  94:src/kernel/tcb.cpp ****     RiscV::threadExitUtil();
  95:src/kernel/tcb.cpp **** 
  96:src/kernel/tcb.cpp **** }
  97:src/kernel/tcb.cpp **** 
  98:src/kernel/tcb.cpp **** //overload operator new, to not use system call for every kernel object that is being allocated
  99:src/kernel/tcb.cpp **** void* TCB::operator new(size_t size){
 100:src/kernel/tcb.cpp ****     return kmem_cache_alloc(TCB::tcbCache);
 101:src/kernel/tcb.cpp **** }
 102:src/kernel/tcb.cpp **** 
 103:src/kernel/tcb.cpp **** //overload operator delete, to not use system call for every kernel object that is being deallocate
 104:src/kernel/tcb.cpp **** void TCB::operator delete(void *addr){
GAS LISTING /tmp/cc9e2H1N.s 			page 3


 105:src/kernel/tcb.cpp ****     kmem_cache_free(TCB::tcbCache, addr);
 106:src/kernel/tcb.cpp **** }
 107:src/kernel/tcb.cpp **** 
 108:src/kernel/tcb.cpp **** //internal syscall to free space allocated to a thread
 109:src/kernel/tcb.cpp **** int TCB::thread_free(void *addr) {
 110:src/kernel/tcb.cpp ****     uint64 iptr = (uint64)addr;
 111:src/kernel/tcb.cpp **** 
 112:src/kernel/tcb.cpp ****     asm("mv a1, %[iptr]" : : [iptr] "r" (iptr));
 113:src/kernel/tcb.cpp ****     asm("li a0, 0x51");
 114:src/kernel/tcb.cpp ****     asm("ecall");
 115:src/kernel/tcb.cpp **** 
 116:src/kernel/tcb.cpp ****     uint64 status;
 117:src/kernel/tcb.cpp **** 
 118:src/kernel/tcb.cpp ****     asm("mv %[status], a0" : [status] "=r" (status));
 119:src/kernel/tcb.cpp ****     return status;
 120:src/kernel/tcb.cpp **** }
 121:src/kernel/tcb.cpp **** 
 122:src/kernel/tcb.cpp **** void TCB::ctor(void* tcb){
  12              		.loc 1 122 26
  13              		.cfi_startproc
  14              	.LVL0:
  15 0000 130101FF 		addi	sp,sp,-16
  16              		.cfi_def_cfa_offset 16
  17 0004 23348100 		sd	s0,8(sp)
  18              		.cfi_offset 8, -8
  19 0008 13040101 		addi	s0,sp,16
  20              		.cfi_def_cfa 8, 0
 123:src/kernel/tcb.cpp ****     ((TCB*)tcb)->status = Status::READY;
  21              		.loc 1 123 5
  22              		.loc 1 123 25 is_stmt 0
  23 000c 93071000 		li	a5,1
  24 0010 2328F500 		sw	a5,16(a0)
 124:src/kernel/tcb.cpp **** 
 125:src/kernel/tcb.cpp ****     ((TCB*)tcb)->next = nullptr;
  25              		.loc 1 125 5 is_stmt 1
  26              		.loc 1 125 23 is_stmt 0
  27 0014 23340504 		sd	zero,72(a0)
 126:src/kernel/tcb.cpp **** 
 127:src/kernel/tcb.cpp ****     ((TCB*)tcb)->mode = Mode::USER;
  28              		.loc 1 127 5 is_stmt 1
  29              		.loc 1 127 23 is_stmt 0
  30 0018 232A0500 		sw	zero,20(a0)
 128:src/kernel/tcb.cpp **** }
  31              		.loc 1 128 1
  32 001c 03348100 		ld	s0,8(sp)
  33              		.cfi_restore 8
  34              		.cfi_def_cfa 2, 16
  35 0020 13010101 		addi	sp,sp,16
  36              		.cfi_def_cfa_offset 0
  37 0024 67800000 		jr	ra
  38              		.cfi_endproc
  39              	.LFE55:
  41              		.align	2
  42              		.globl	_ZN3TCB4dtorEPv
  44              	_ZN3TCB4dtorEPv:
  45              	.LFB56:
 129:src/kernel/tcb.cpp **** 
GAS LISTING /tmp/cc9e2H1N.s 			page 4


 130:src/kernel/tcb.cpp **** void TCB::dtor(void* tcb){
  46              		.loc 1 130 26 is_stmt 1
  47              		.cfi_startproc
  48              	.LVL1:
  49 0028 130101FF 		addi	sp,sp,-16
  50              		.cfi_def_cfa_offset 16
  51 002c 23348100 		sd	s0,8(sp)
  52              		.cfi_offset 8, -8
  53 0030 13040101 		addi	s0,sp,16
  54              		.cfi_def_cfa 8, 0
 131:src/kernel/tcb.cpp ****     ((TCB*)tcb)->status = Status::READY;
  55              		.loc 1 131 5
  56              		.loc 1 131 25 is_stmt 0
  57 0034 93071000 		li	a5,1
  58 0038 2328F500 		sw	a5,16(a0)
 132:src/kernel/tcb.cpp **** 
 133:src/kernel/tcb.cpp ****     ((TCB*)tcb)->next = nullptr;
  59              		.loc 1 133 5 is_stmt 1
  60              		.loc 1 133 23 is_stmt 0
  61 003c 23340504 		sd	zero,72(a0)
 134:src/kernel/tcb.cpp **** 
 135:src/kernel/tcb.cpp ****     ((TCB*)tcb)->mode = Mode::USER;
  62              		.loc 1 135 5 is_stmt 1
  63              		.loc 1 135 23 is_stmt 0
  64 0040 232A0500 		sw	zero,20(a0)
 136:src/kernel/tcb.cpp **** }...
  65              		.loc 1 136 1
  66 0044 03348100 		ld	s0,8(sp)
  67              		.cfi_restore 8
  68              		.cfi_def_cfa 2, 16
  69 0048 13010101 		addi	sp,sp,16
  70              		.cfi_def_cfa_offset 0
  71 004c 67800000 		jr	ra
  72              		.cfi_endproc
  73              	.LFE56:
  75              		.align	2
  76              		.globl	_ZN3TCB7wrapperEPv
  78              	_ZN3TCB7wrapperEPv:
  79              	.LFB51:
  90:src/kernel/tcb.cpp **** void TCB::wrapper(void *args) {
  80              		.loc 1 90 31 is_stmt 1
  81              		.cfi_startproc
  82              	.LVL2:
  83 0050 130101FF 		addi	sp,sp,-16
  84              		.cfi_def_cfa_offset 16
  85 0054 23341100 		sd	ra,8(sp)
  86 0058 23308100 		sd	s0,0(sp)
  87              		.cfi_offset 1, -8
  88              		.cfi_offset 8, -16
  89 005c 13040101 		addi	s0,sp,16
  90              		.cfi_def_cfa 8, 0
  91:src/kernel/tcb.cpp ****     RiscV::popSppSpie();
  91              		.loc 1 91 5
  91:src/kernel/tcb.cpp ****     RiscV::popSppSpie();
  92              		.loc 1 91 22 is_stmt 0
  93 0060 97000000 		call	_ZN5RiscV10popSppSpieEv@plt
  93      E7800000 
GAS LISTING /tmp/cc9e2H1N.s 			page 5


  94              	.LVL3:
  93:src/kernel/tcb.cpp ****     running->body(running->args);
  95              		.loc 1 93 5 is_stmt 1
  93:src/kernel/tcb.cpp ****     running->body(running->args);
  96              		.loc 1 93 14 is_stmt 0
  97 0068 97070000 		ld	a5,.LANCHOR0
  97      83B70700 
  98 0070 03B78701 		ld	a4,24(a5)
  93:src/kernel/tcb.cpp ****     running->body(running->args);
  99              		.loc 1 93 18
 100 0074 03B50702 		ld	a0,32(a5)
 101 0078 E7000700 		jalr	a4
 102              	.LVL4:
  94:src/kernel/tcb.cpp ****     RiscV::threadExitUtil();
 103              		.loc 1 94 5 is_stmt 1
  94:src/kernel/tcb.cpp ****     RiscV::threadExitUtil();
 104              		.loc 1 94 26 is_stmt 0
 105 007c 97000000 		call	_ZN5RiscV14threadExitUtilEv@plt
 105      E7800000 
 106              	.LVL5:
  96:src/kernel/tcb.cpp **** }
 107              		.loc 1 96 1
 108 0084 83308100 		ld	ra,8(sp)
 109              		.cfi_restore 1
 110 0088 03340100 		ld	s0,0(sp)
 111              		.cfi_restore 8
 112              		.cfi_def_cfa 2, 16
 113 008c 13010101 		addi	sp,sp,16
 114              		.cfi_def_cfa_offset 0
 115 0090 67800000 		jr	ra
 116              		.cfi_endproc
 117              	.LFE51:
 119              		.align	2
 120              		.globl	_ZN3TCBC2EPFvPvES0_Pmm
 122              	_ZN3TCBC2EPFvPvES0_Pmm:
 123              	.LFB44:
  47:src/kernel/tcb.cpp **** TCB::TCB(Body body, void* args, uint64* stack, uint64 timeSlice){
 124              		.loc 1 47 1 is_stmt 1
 125              		.cfi_startproc
 126              	.LVL6:
 127 0094 130101FF 		addi	sp,sp,-16
 128              		.cfi_def_cfa_offset 16
 129 0098 23348100 		sd	s0,8(sp)
 130              		.cfi_offset 8, -8
 131 009c 13040101 		addi	s0,sp,16
 132              		.cfi_def_cfa 8, 0
 133              	.LBB2:
  47:src/kernel/tcb.cpp **** TCB::TCB(Body body, void* args, uint64* stack, uint64 timeSlice){
 134              		.loc 1 47 64 is_stmt 0
 135 00a0 23380504 		sd	zero,80(a0)
 136 00a4 233C0504 		sd	zero,88(a0)
 137 00a8 23300506 		sd	zero,96(a0)
  49:src/kernel/tcb.cpp ****     this->body = body;
 138              		.loc 1 49 5 is_stmt 1
  49:src/kernel/tcb.cpp ****     this->body = body;
 139              		.loc 1 49 16 is_stmt 0
 140 00ac 233CB500 		sd	a1,24(a0)
GAS LISTING /tmp/cc9e2H1N.s 			page 6


  51:src/kernel/tcb.cpp ****     this->args = args;
 141              		.loc 1 51 5 is_stmt 1
  51:src/kernel/tcb.cpp ****     this->args = args;
 142              		.loc 1 51 16 is_stmt 0
 143 00b0 2330C502 		sd	a2,32(a0)
  53:src/kernel/tcb.cpp ****     this->timeSlice = timeSlice;
 144              		.loc 1 53 5 is_stmt 1
  53:src/kernel/tcb.cpp ****     this->timeSlice = timeSlice;
 145              		.loc 1 53 21 is_stmt 0
 146 00b4 2338E502 		sd	a4,48(a0)
  55:src/kernel/tcb.cpp ****     this->stack = (body == nullptr) ? nullptr : stack;
 147              		.loc 1 55 5 is_stmt 1
  55:src/kernel/tcb.cpp ****     this->stack = (body == nullptr) ? nullptr : stack;
 148              		.loc 1 55 37 is_stmt 0
 149 00b8 638A0502 		beqz	a1,.L10
 150 00bc 93870600 		mv	a5,a3
 151              	.L8:
  55:src/kernel/tcb.cpp ****     this->stack = (body == nullptr) ? nullptr : stack;
 152              		.loc 1 55 17 discriminator 4
 153 00c0 2334F502 		sd	a5,40(a0)
  58:src/kernel/tcb.cpp ****     this->context = {(body == nullptr) ? 0 : (uint64)((char*)stack + DEFAULT_STACK_SIZE),
 154              		.loc 1 58 5 is_stmt 1 discriminator 4
  58:src/kernel/tcb.cpp ****     this->context = {(body == nullptr) ? 0 : (uint64)((char*)stack + DEFAULT_STACK_SIZE),
 155              		.loc 1 58 40 is_stmt 0 discriminator 4
 156 00c4 63880502 		beqz	a1,.L11
  58:src/kernel/tcb.cpp ****     this->context = {(body == nullptr) ? 0 : (uint64)((char*)stack + DEFAULT_STACK_SIZE),
 157              		.loc 1 58 68 discriminator 1
 158 00c8 B7170000 		li	a5,4096
 159 00cc B386F600 		add	a3,a3,a5
 160              	.LVL7:
 161              	.L9:
  58:src/kernel/tcb.cpp ****     this->context = {(body == nullptr) ? 0 : (uint64)((char*)stack + DEFAULT_STACK_SIZE),
 162              		.loc 1 58 19 discriminator 4
 163 00d0 2330D500 		sd	a3,0(a0)
 164 00d4 97070000 		lla	a5,_ZN3TCB7wrapperEPv
 164      93870700 
 165 00dc 2334F500 		sd	a5,8(a0)
 166              	.LBE2:
  60:src/kernel/tcb.cpp **** }
 167              		.loc 1 60 1 discriminator 4
 168 00e0 03348100 		ld	s0,8(sp)
 169              		.cfi_remember_state
 170              		.cfi_restore 8
 171              		.cfi_def_cfa 2, 16
 172 00e4 13010101 		addi	sp,sp,16
 173              		.cfi_def_cfa_offset 0
 174 00e8 67800000 		jr	ra
 175              	.LVL8:
 176              	.L10:
 177              		.cfi_restore_state
 178              	.LBB3:
  55:src/kernel/tcb.cpp ****     this->stack = (body == nullptr) ? nullptr : stack;
 179              		.loc 1 55 37
 180 00ec 93070000 		li	a5,0
 181 00f0 6FF01FFD 		j	.L8
 182              	.L11:
  58:src/kernel/tcb.cpp ****     this->context = {(body == nullptr) ? 0 : (uint64)((char*)stack + DEFAULT_STACK_SIZE),
GAS LISTING /tmp/cc9e2H1N.s 			page 7


 183              		.loc 1 58 40
 184 00f4 93060000 		li	a3,0
 185              	.LVL9:
 186 00f8 6FF09FFD 		j	.L9
 187              	.LBE3:
 188              		.cfi_endproc
 189              	.LFE44:
 191              		.globl	_ZN3TCBC1EPFvPvES0_Pmm
 192              		.set	_ZN3TCBC1EPFvPvES0_Pmm,_ZN3TCBC2EPFvPvES0_Pmm
 193              		.align	2
 194              		.globl	_ZN3TCB4freeEv
 196              	_ZN3TCB4freeEv:
 197              	.LFB46:
  63:src/kernel/tcb.cpp **** void TCB::free(){
 198              		.loc 1 63 17 is_stmt 1
 199              		.cfi_startproc
 200              	.LVL10:
 201 00fc 130101FF 		addi	sp,sp,-16
 202              		.cfi_def_cfa_offset 16
 203 0100 23341100 		sd	ra,8(sp)
 204 0104 23308100 		sd	s0,0(sp)
 205              		.cfi_offset 1, -8
 206              		.cfi_offset 8, -16
 207 0108 13040101 		addi	s0,sp,16
 208              		.cfi_def_cfa 8, 0
  64:src/kernel/tcb.cpp ****     kfree(stack);
 209              		.loc 1 64 5
  64:src/kernel/tcb.cpp ****     kfree(stack);
 210              		.loc 1 64 10 is_stmt 0
 211 010c 03358502 		ld	a0,40(a0)
 212              	.LVL11:
 213 0110 97000000 		call	_Z5kfreePKv@plt
 213      E7800000 
 214              	.LVL12:
  65:src/kernel/tcb.cpp **** }
 215              		.loc 1 65 1
 216 0118 83308100 		ld	ra,8(sp)
 217              		.cfi_restore 1
 218 011c 03340100 		ld	s0,0(sp)
 219              		.cfi_restore 8
 220              		.cfi_def_cfa 2, 16
 221 0120 13010101 		addi	sp,sp,16
 222              		.cfi_def_cfa_offset 0
 223 0124 67800000 		jr	ra
 224              		.cfi_endproc
 225              	.LFE46:
 227              		.align	2
 228              		.globl	_ZN3TCBD2Ev
 230              	_ZN3TCBD2Ev:
 231              	.LFB48:
  67:src/kernel/tcb.cpp **** TCB::~TCB(){
 232              		.loc 1 67 1 is_stmt 1
 233              		.cfi_startproc
 234              		.cfi_personality 0x9b,DW.ref.__gxx_personality_v0
 235              		.cfi_lsda 0x1b,.LLSDA48
 236              	.LVL13:
 237 0128 130101FF 		addi	sp,sp,-16
GAS LISTING /tmp/cc9e2H1N.s 			page 8


 238              		.cfi_def_cfa_offset 16
 239 012c 23341100 		sd	ra,8(sp)
 240 0130 23308100 		sd	s0,0(sp)
 241              		.cfi_offset 1, -8
 242              		.cfi_offset 8, -16
 243 0134 13040101 		addi	s0,sp,16
 244              		.cfi_def_cfa 8, 0
 245              	.LBB4:
  68:src/kernel/tcb.cpp ****     free();
 246              		.loc 1 68 5
  68:src/kernel/tcb.cpp ****     free();
 247              		.loc 1 68 9 is_stmt 0
 248 0138 97000000 		call	_ZN3TCB4freeEv
 248      E7800000 
 249              	.LVL14:
 250              	.LBE4:
  69:src/kernel/tcb.cpp **** }
 251              		.loc 1 69 1
 252 0140 83308100 		ld	ra,8(sp)
 253              		.cfi_restore 1
 254 0144 03340100 		ld	s0,0(sp)
 255              		.cfi_restore 8
 256              		.cfi_def_cfa 2, 16
 257 0148 13010101 		addi	sp,sp,16
 258              		.cfi_def_cfa_offset 0
 259 014c 67800000 		jr	ra
 260              		.cfi_endproc
 261              	.LFE48:
 262              		.globl	__gxx_personality_v0
 263              		.section	.gcc_except_table,"a",@progbits
 264              	.LLSDA48:
 265 0000 FF       		.byte	0xff
 266 0001 FF       		.byte	0xff
 267 0002 03       		.byte	0x3
 268 0003 00       		.byte	0
 269              		.text
 271              		.globl	_ZN3TCBD1Ev
 272              		.set	_ZN3TCBD1Ev,_ZN3TCBD2Ev
 273              		.align	2
 274              		.globl	_ZN3TCB8dispatchEv
 276              	_ZN3TCB8dispatchEv:
 277              	.LFB50:
  73:src/kernel/tcb.cpp **** void TCB::dispatch() {
 278              		.loc 1 73 22 is_stmt 1
 279              		.cfi_startproc
 280 0150 130101FE 		addi	sp,sp,-32
 281              		.cfi_def_cfa_offset 32
 282 0154 233C1100 		sd	ra,24(sp)
 283 0158 23388100 		sd	s0,16(sp)
 284 015c 23349100 		sd	s1,8(sp)
 285              		.cfi_offset 1, -8
 286              		.cfi_offset 8, -16
 287              		.cfi_offset 9, -24
 288 0160 13040102 		addi	s0,sp,32
 289              		.cfi_def_cfa 8, 0
  74:src/kernel/tcb.cpp ****     TCB* old = running;
 290              		.loc 1 74 5
GAS LISTING /tmp/cc9e2H1N.s 			page 9


  74:src/kernel/tcb.cpp ****     TCB* old = running;
 291              		.loc 1 74 10 is_stmt 0
 292 0164 97040000 		ld	s1,.LANCHOR0
 292      83B40400 
 293              	.LVL15:
  76:src/kernel/tcb.cpp ****     if(old->status == Status::READY || old->status == Status::RUNNING) {
 294              		.loc 1 76 5 is_stmt 1
  76:src/kernel/tcb.cpp ****     if(old->status == Status::READY || old->status == Status::RUNNING) {
 295              		.loc 1 76 13 is_stmt 0
 296 016c 03A70401 		lw	a4,16(s1)
  76:src/kernel/tcb.cpp ****     if(old->status == Status::READY || old->status == Status::RUNNING) {
 297              		.loc 1 76 5
 298 0170 93071000 		li	a5,1
 299 0174 63F6E704 		bleu	a4,a5,.L21
 300              	.L18:
  80:src/kernel/tcb.cpp ****     running = Scheduler::get();
 301              		.loc 1 80 5 is_stmt 1
  80:src/kernel/tcb.cpp ****     running = Scheduler::get();
 302              		.loc 1 80 29 is_stmt 0
 303 0178 97000000 		call	_ZN9Scheduler3getEv@plt
 303      E7800000 
 304              	.LVL16:
  80:src/kernel/tcb.cpp ****     running = Scheduler::get();
 305              		.loc 1 80 13
 306 0180 97070000 		sd	a0,.LANCHOR0,a5
 306      23B0A700 
  82:src/kernel/tcb.cpp ****     if(running) {
 307              		.loc 1 82 5 is_stmt 1
 308 0188 63020502 		beqz	a0,.L17
  83:src/kernel/tcb.cpp ****         running->status = Status::RUNNING;
 309              		.loc 1 83 9
  83:src/kernel/tcb.cpp ****         running->status = Status::RUNNING;
 310              		.loc 1 83 25 is_stmt 0
 311 018c 23280500 		sw	zero,16(a0)
  84:src/kernel/tcb.cpp ****         RiscV::jumpToDesignatedPrivilegeMode();
 312              		.loc 1 84 9 is_stmt 1
  84:src/kernel/tcb.cpp ****         RiscV::jumpToDesignatedPrivilegeMode();
 313              		.loc 1 84 45 is_stmt 0
 314 0190 97000000 		call	_ZN5RiscV29jumpToDesignatedPrivilegeModeEv@plt
 314      E7800000 
 315              	.LVL17:
  85:src/kernel/tcb.cpp ****         contextSwitch(&old->context, &running->context);
 316              		.loc 1 85 9 is_stmt 1
  85:src/kernel/tcb.cpp ****         contextSwitch(&old->context, &running->context);
 317              		.loc 1 85 22 is_stmt 0
 318 0198 97050000 		ld	a1,.LANCHOR0
 318      83B50500 
 319 01a0 13850400 		mv	a0,s1
 320 01a4 97000000 		call	_ZN3TCB13contextSwitchEPNS_7ContextES1_@plt
 320      E7800000 
 321              	.LVL18:
 322              	.L17:
  87:src/kernel/tcb.cpp **** }
 323              		.loc 1 87 1
 324 01ac 83308101 		ld	ra,24(sp)
 325              		.cfi_remember_state
 326              		.cfi_restore 1
GAS LISTING /tmp/cc9e2H1N.s 			page 10


 327 01b0 03340101 		ld	s0,16(sp)
 328              		.cfi_restore 8
 329              		.cfi_def_cfa 2, 32
 330 01b4 83348100 		ld	s1,8(sp)
 331              		.cfi_restore 9
 332              	.LVL19:
 333 01b8 13010102 		addi	sp,sp,32
 334              		.cfi_def_cfa_offset 0
 335 01bc 67800000 		jr	ra
 336              	.LVL20:
 337              	.L21:
 338              		.cfi_restore_state
  77:src/kernel/tcb.cpp ****         Scheduler::put(old);
 339              		.loc 1 77 9 is_stmt 1
  77:src/kernel/tcb.cpp ****         Scheduler::put(old);
 340              		.loc 1 77 23 is_stmt 0
 341 01c0 13850400 		mv	a0,s1
 342 01c4 97000000 		call	_ZN9Scheduler3putEP3TCB@plt
 342      E7800000 
 343              	.LVL21:
 344 01cc 6FF0DFFA 		j	.L18
 345              		.cfi_endproc
 346              	.LFE50:
 348              		.align	2
 349              		.globl	_ZN3TCBnwEm
 351              	_ZN3TCBnwEm:
 352              	.LFB52:
  99:src/kernel/tcb.cpp **** void* TCB::operator new(size_t size){
 353              		.loc 1 99 37 is_stmt 1
 354              		.cfi_startproc
 355              	.LVL22:
 356 01d0 130101FF 		addi	sp,sp,-16
 357              		.cfi_def_cfa_offset 16
 358 01d4 23341100 		sd	ra,8(sp)
 359 01d8 23308100 		sd	s0,0(sp)
 360              		.cfi_offset 1, -8
 361              		.cfi_offset 8, -16
 362 01dc 13040101 		addi	s0,sp,16
 363              		.cfi_def_cfa 8, 0
 100:src/kernel/tcb.cpp ****     return kmem_cache_alloc(TCB::tcbCache);
 364              		.loc 1 100 5
 100:src/kernel/tcb.cpp ****     return kmem_cache_alloc(TCB::tcbCache);
 365              		.loc 1 100 28 is_stmt 0
 366 01e0 17050000 		ld	a0,.LANCHOR0+8
 366      03350500 
 367              	.LVL23:
 368 01e8 97000000 		call	_Z16kmem_cache_allocP5Cache@plt
 368      E7800000 
 369              	.LVL24:
 101:src/kernel/tcb.cpp **** }
 370              		.loc 1 101 1
 371 01f0 83308100 		ld	ra,8(sp)
 372              		.cfi_restore 1
 373 01f4 03340100 		ld	s0,0(sp)
 374              		.cfi_restore 8
 375              		.cfi_def_cfa 2, 16
 376 01f8 13010101 		addi	sp,sp,16
GAS LISTING /tmp/cc9e2H1N.s 			page 11


 377              		.cfi_def_cfa_offset 0
 378 01fc 67800000 		jr	ra
 379              		.cfi_endproc
 380              	.LFE52:
 382              		.section	.rodata.str1.8,"aMS",@progbits,1
 383              		.align	3
 384              	.LC0:
 385 0000 54434220 		.string	"TCB Cache"
 385      43616368 
 385      6500
 386              		.text
 387              		.align	2
 388              		.globl	_ZN3TCB10initializeEv
 390              	_ZN3TCB10initializeEv:
 391              	.LFB42:
  27:src/kernel/tcb.cpp **** void TCB::initialize() {
 392              		.loc 1 27 24 is_stmt 1
 393              		.cfi_startproc
 394 0200 130101FE 		addi	sp,sp,-32
 395              		.cfi_def_cfa_offset 32
 396 0204 233C1100 		sd	ra,24(sp)
 397 0208 23388100 		sd	s0,16(sp)
 398 020c 23349100 		sd	s1,8(sp)
 399 0210 23302101 		sd	s2,0(sp)
 400              		.cfi_offset 1, -8
 401              		.cfi_offset 8, -16
 402              		.cfi_offset 9, -24
 403              		.cfi_offset 18, -32
 404 0214 13040102 		addi	s0,sp,32
 405              		.cfi_def_cfa 8, 0
  29:src/kernel/tcb.cpp ****     TCB::tcbCache = kmem_cache_create("TCB Cache", sizeof(TCB), TCB::ctor, TCB::dtor);
 406              		.loc 1 29 5
  29:src/kernel/tcb.cpp ****     TCB::tcbCache = kmem_cache_create("TCB Cache", sizeof(TCB), TCB::ctor, TCB::dtor);
 407              		.loc 1 29 38 is_stmt 0
 408 0218 97060000 		lla	a3,_ZN3TCB4dtorEPv
 408      93860600 
 409 0220 17060000 		lla	a2,_ZN3TCB4ctorEPv
 409      13060600 
 410 0228 93050007 		li	a1,112
 411 022c 17050000 		lla	a0,.LC0
 411      13050500 
 412 0234 97000000 		call	_Z17kmem_cache_createPKcmPFvPvES3_@plt
 412      E7800000 
 413              	.LVL25:
  29:src/kernel/tcb.cpp ****     TCB::tcbCache = kmem_cache_create("TCB Cache", sizeof(TCB), TCB::ctor, TCB::dtor);
 414              		.loc 1 29 19
 415 023c 97070000 		sd	a0,.LANCHOR0+8,a5
 415      23B0A700 
  31:src/kernel/tcb.cpp ****     TCB::running = new TCB(nullptr, nullptr, nullptr, DEFAULT_TIME_SLICE);
 416              		.loc 1 31 5 is_stmt 1
  31:src/kernel/tcb.cpp ****     TCB::running = new TCB(nullptr, nullptr, nullptr, DEFAULT_TIME_SLICE);
 417              		.loc 1 31 73 is_stmt 0
 418 0244 13050007 		li	a0,112
 419 0248 97000000 		call	_ZN3TCBnwEm
 419      E7800000 
 420              	.LVL26:
 421 0250 93040500 		mv	s1,a0
GAS LISTING /tmp/cc9e2H1N.s 			page 12


 422 0254 630E0500 		beqz	a0,.L25
  31:src/kernel/tcb.cpp ****     TCB::running = new TCB(nullptr, nullptr, nullptr, DEFAULT_TIME_SLICE);
 423              		.loc 1 31 73 discriminator 1
 424 0258 13072000 		li	a4,2
 425 025c 93060000 		li	a3,0
 426 0260 13060000 		li	a2,0
 427 0264 93050000 		li	a1,0
 428 0268 97000000 		call	_ZN3TCBC1EPFvPvES0_Pmm
 428      E7800000 
 429              	.LVL27:
 430              	.L25:
  31:src/kernel/tcb.cpp ****     TCB::running = new TCB(nullptr, nullptr, nullptr, DEFAULT_TIME_SLICE);
 431              		.loc 1 31 18 discriminator 4
 432 0270 97070000 		sd	s1,.LANCHOR0,a5
 432      23B09700 
  33:src/kernel/tcb.cpp ****     TCB::running->mode = Mode::SUPERVISOR;
 433              		.loc 1 33 5 is_stmt 1 discriminator 4
  33:src/kernel/tcb.cpp ****     TCB::running->mode = Mode::SUPERVISOR;
 434              		.loc 1 33 24 is_stmt 0 discriminator 4
 435 0278 93071000 		li	a5,1
 436 027c 23AAF400 		sw	a5,20(s1)
  35:src/kernel/tcb.cpp ****     uint64 *putcStack = (uint64*)kmalloc(DEFAULT_STACK_SIZE);
 437              		.loc 1 35 5 is_stmt 1 discriminator 4
  35:src/kernel/tcb.cpp ****     uint64 *putcStack = (uint64*)kmalloc(DEFAULT_STACK_SIZE);
 438              		.loc 1 35 41 is_stmt 0 discriminator 4
 439 0280 37150000 		li	a0,4096
 440 0284 97000000 		call	_Z7kmallocm@plt
 440      E7800000 
 441              	.LVL28:
 442 028c 13090500 		mv	s2,a0
 443              	.LVL29:
  38:src/kernel/tcb.cpp ****     putcThread = new TCB(RiscV::putcWrapper, nullptr, putcStack, DEFAULT_TIME_SLICE);
 444              		.loc 1 38 5 is_stmt 1 discriminator 4
  38:src/kernel/tcb.cpp ****     putcThread = new TCB(RiscV::putcWrapper, nullptr, putcStack, DEFAULT_TIME_SLICE);
 445              		.loc 1 38 84 is_stmt 0 discriminator 4
 446 0290 13050007 		li	a0,112
 447              	.LVL30:
 448 0294 97000000 		call	_ZN3TCBnwEm
 448      E7800000 
 449              	.LVL31:
 450 029c 93040500 		mv	s1,a0
 451 02a0 63000502 		beqz	a0,.L26
  38:src/kernel/tcb.cpp ****     putcThread = new TCB(RiscV::putcWrapper, nullptr, putcStack, DEFAULT_TIME_SLICE);
 452              		.loc 1 38 84 discriminator 1
 453 02a4 13072000 		li	a4,2
 454 02a8 93060900 		mv	a3,s2
 455 02ac 13060000 		li	a2,0
 456 02b0 97050000 		la	a1,_ZN5RiscV11putcWrapperEPv
 456      83B50500 
 457 02b8 97000000 		call	_ZN3TCBC1EPFvPvES0_Pmm
 457      E7800000 
 458              	.LVL32:
 459              	.L26:
  38:src/kernel/tcb.cpp ****     putcThread = new TCB(RiscV::putcWrapper, nullptr, putcStack, DEFAULT_TIME_SLICE);
 460              		.loc 1 38 16 discriminator 4
 461 02c0 97070000 		sd	s1,.LANCHOR0+16,a5
 461      23B09700 
GAS LISTING /tmp/cc9e2H1N.s 			page 13


  40:src/kernel/tcb.cpp ****     putcThread->mode = Mode::SUPERVISOR;
 462              		.loc 1 40 5 is_stmt 1 discriminator 4
  40:src/kernel/tcb.cpp ****     putcThread->mode = Mode::SUPERVISOR;
 463              		.loc 1 40 22 is_stmt 0 discriminator 4
 464 02c8 93071000 		li	a5,1
 465 02cc 23AAF400 		sw	a5,20(s1)
  43:src/kernel/tcb.cpp ****     Scheduler::put(putcThread);
 466              		.loc 1 43 5 is_stmt 1 discriminator 4
  43:src/kernel/tcb.cpp ****     Scheduler::put(putcThread);
 467              		.loc 1 43 19 is_stmt 0 discriminator 4
 468 02d0 13850400 		mv	a0,s1
 469 02d4 97000000 		call	_ZN9Scheduler3putEP3TCB@plt
 469      E7800000 
 470              	.LVL33:
  44:src/kernel/tcb.cpp **** }
 471              		.loc 1 44 1 discriminator 4
 472 02dc 83308101 		ld	ra,24(sp)
 473              		.cfi_restore 1
 474 02e0 03340101 		ld	s0,16(sp)
 475              		.cfi_restore 8
 476              		.cfi_def_cfa 2, 32
 477 02e4 83348100 		ld	s1,8(sp)
 478              		.cfi_restore 9
 479 02e8 03390100 		ld	s2,0(sp)
 480              		.cfi_restore 18
 481              	.LVL34:
 482 02ec 13010102 		addi	sp,sp,32
 483              		.cfi_def_cfa_offset 0
 484 02f0 67800000 		jr	ra
 485              		.cfi_endproc
 486              	.LFE42:
 488              		.align	2
 489              		.globl	_ZN3TCBdlEPv
 491              	_ZN3TCBdlEPv:
 492              	.LFB53:
 104:src/kernel/tcb.cpp **** void TCB::operator delete(void *addr){
 493              		.loc 1 104 38 is_stmt 1
 494              		.cfi_startproc
 495              	.LVL35:
 496 02f4 130101FF 		addi	sp,sp,-16
 497              		.cfi_def_cfa_offset 16
 498 02f8 23341100 		sd	ra,8(sp)
 499 02fc 23308100 		sd	s0,0(sp)
 500              		.cfi_offset 1, -8
 501              		.cfi_offset 8, -16
 502 0300 13040101 		addi	s0,sp,16
 503              		.cfi_def_cfa 8, 0
 504 0304 93050500 		mv	a1,a0
 105:src/kernel/tcb.cpp ****     kmem_cache_free(TCB::tcbCache, addr);
 505              		.loc 1 105 5
 105:src/kernel/tcb.cpp ****     kmem_cache_free(TCB::tcbCache, addr);
 506              		.loc 1 105 20 is_stmt 0
 507 0308 17050000 		ld	a0,.LANCHOR0+8
 507      03350500 
 508              	.LVL36:
 509 0310 97000000 		call	_Z15kmem_cache_freeP5CachePv@plt
 509      E7800000 
GAS LISTING /tmp/cc9e2H1N.s 			page 14


 510              	.LVL37:
 106:src/kernel/tcb.cpp **** }
 511              		.loc 1 106 1
 512 0318 83308100 		ld	ra,8(sp)
 513              		.cfi_restore 1
 514 031c 03340100 		ld	s0,0(sp)
 515              		.cfi_restore 8
 516              		.cfi_def_cfa 2, 16
 517 0320 13010101 		addi	sp,sp,16
 518              		.cfi_def_cfa_offset 0
 519 0324 67800000 		jr	ra
 520              		.cfi_endproc
 521              	.LFE53:
 523              		.align	2
 524              		.globl	_ZN3TCB11thread_freeEPv
 526              	_ZN3TCB11thread_freeEPv:
 527              	.LFB54:
 109:src/kernel/tcb.cpp **** int TCB::thread_free(void *addr) {
 528              		.loc 1 109 34 is_stmt 1
 529              		.cfi_startproc
 530              	.LVL38:
 531 0328 130101FF 		addi	sp,sp,-16
 532              		.cfi_def_cfa_offset 16
 533 032c 23348100 		sd	s0,8(sp)
 534              		.cfi_offset 8, -8
 535 0330 13040101 		addi	s0,sp,16
 536              		.cfi_def_cfa 8, 0
 110:src/kernel/tcb.cpp ****     uint64 iptr = (uint64)addr;
 537              		.loc 1 110 5
 538              	.LVL39:
 112:src/kernel/tcb.cpp ****     asm("mv a1, %[iptr]" : : [iptr] "r" (iptr));
 539              		.loc 1 112 5
 112:src/kernel/tcb.cpp ****     asm("mv a1, %[iptr]" : : [iptr] "r" (iptr));
 540              		.loc 1 112 48 is_stmt 0
 541              	#APP
 542              	# 112 "src/kernel/tcb.cpp" 1
 113:src/kernel/tcb.cpp ****     asm("li a0, 0x51");
 543              		mv a1, a0
 544              	# 0 "" 2
 545              		.loc 1 113 5 is_stmt 1
 113:src/kernel/tcb.cpp ****     asm("li a0, 0x51");
 546              		.loc 1 113 23 is_stmt 0
 547              	# 113 "src/kernel/tcb.cpp" 1
 114:src/kernel/tcb.cpp ****     asm("ecall");
 548              		li a0, 0x51
 549              	# 0 "" 2
 550              		.loc 1 114 5 is_stmt 1
 114:src/kernel/tcb.cpp ****     asm("ecall");
 551              		.loc 1 114 17 is_stmt 0
 552              	# 114 "src/kernel/tcb.cpp" 1
 116:src/kernel/tcb.cpp ****     uint64 status;
 553              		ecall
 554              	# 0 "" 2
 555              		.loc 1 116 5 is_stmt 1
 118:src/kernel/tcb.cpp ****     asm("mv %[status], a0" : [status] "=r" (status));
 556              		.loc 1 118 5
 118:src/kernel/tcb.cpp ****     asm("mv %[status], a0" : [status] "=r" (status));
GAS LISTING /tmp/cc9e2H1N.s 			page 15


 557              		.loc 1 118 53 is_stmt 0
 558              	# 118 "src/kernel/tcb.cpp" 1
 559              		mv a0, a0
 560              	# 0 "" 2
 561              	.LVL40:
 119:src/kernel/tcb.cpp ****     return status;
 562              		.loc 1 119 5 is_stmt 1
 120:src/kernel/tcb.cpp **** }
 563              		.loc 1 120 1 is_stmt 0
 564              	#NO_APP
 565 0344 1B050500 		sext.w	a0,a0
 566              	.LVL41:
 567 0348 03348100 		ld	s0,8(sp)
 568              		.cfi_restore 8
 569              		.cfi_def_cfa 2, 16
 570 034c 13010101 		addi	sp,sp,16
 571              		.cfi_def_cfa_offset 0
 572 0350 67800000 		jr	ra
 573              		.cfi_endproc
 574              	.LFE54:
 576              		.globl	_ZN3TCB8tcbCacheE
 577              		.globl	_ZN3TCB16timeSliceCounterE
 578              		.globl	_ZN3TCB9currentSPE
 579              		.globl	_ZN3TCB9currentPCE
 580              		.globl	_ZN3TCB10putcThreadE
 581              		.globl	_ZN3TCB7runningE
 582              		.bss
 583              		.align	3
 584              		.set	.LANCHOR0,. + 0
 587              	_ZN3TCB7runningE:
 588 0000 00000000 		.zero	8
 588      00000000 
 591              	_ZN3TCB8tcbCacheE:
 592 0008 00000000 		.zero	8
 592      00000000 
 595              	_ZN3TCB10putcThreadE:
 596 0010 00000000 		.zero	8
 596      00000000 
 599              	_ZN3TCB16timeSliceCounterE:
 600 0018 00000000 		.zero	8
 600      00000000 
 603              	_ZN3TCB9currentSPE:
 604 0020 00000000 		.zero	8
 604      00000000 
 607              	_ZN3TCB9currentPCE:
 608 0028 00000000 		.zero	8
 608      00000000 
 609              		.text
 610              	.Letext0:
 611              		.file 2 "src/kernel/../../h/../lib/hw.h"
 612              		.file 3 "src/kernel/../../h/../h/../h/../h/utility.hpp"
 613              		.file 4 "src/kernel/../../h/../h/../h/../h/../h/slab_t.hpp"
 614              		.file 5 "src/kernel/../../h/../h/../h/../h/cache_t.hpp"
 615              		.file 6 "src/kernel/../../h/tcb.hpp"
 616              		.file 7 "src/kernel/../../h/scheduler.hpp"
 617              		.file 8 "src/kernel/../../h/riscv.hpp"
 618              		.file 9 "src/kernel/../../h/../h/slab.hpp"
GAS LISTING /tmp/cc9e2H1N.s 			page 16


 3938              		.align	3
 3941              	DW.ref.__gxx_personality_v0:
 3942 0000 00000000 		.dword	__gxx_personality_v0
 3942      00000000 
 3943              		.ident	"GCC: (Ubuntu 9.4.0-1ubuntu1~20.04) 9.4.0"
 3944              		.section	.note.GNU-stack,"",@progbits
GAS LISTING /tmp/cc9e2H1N.s 			page 17


DEFINED SYMBOLS
                            *ABS*:0000000000000000 tcb.cpp
     /tmp/cc9e2H1N.s:9      .text:0000000000000000 _ZN3TCB4ctorEPv
     /tmp/cc9e2H1N.s:13     .text:0000000000000000 .L0 
     /tmp/cc9e2H1N.s:15     .text:0000000000000000 .L0 
     /tmp/cc9e2H1N.s:16     .text:0000000000000004 .L0 
     /tmp/cc9e2H1N.s:18     .text:0000000000000008 .L0 
     /tmp/cc9e2H1N.s:20     .text:000000000000000c .L0 
     /tmp/cc9e2H1N.s:22     .text:000000000000000c .L0 
     /tmp/cc9e2H1N.s:23     .text:000000000000000c .L0 
     /tmp/cc9e2H1N.s:26     .text:0000000000000014 .L0 
     /tmp/cc9e2H1N.s:27     .text:0000000000000014 .L0 
     /tmp/cc9e2H1N.s:29     .text:0000000000000018 .L0 
     /tmp/cc9e2H1N.s:30     .text:0000000000000018 .L0 
     /tmp/cc9e2H1N.s:32     .text:000000000000001c .L0 
     /tmp/cc9e2H1N.s:33     .text:0000000000000020 .L0 
     /tmp/cc9e2H1N.s:34     .text:0000000000000020 .L0 
     /tmp/cc9e2H1N.s:36     .text:0000000000000024 .L0 
     /tmp/cc9e2H1N.s:38     .text:0000000000000028 .L0 
     /tmp/cc9e2H1N.s:44     .text:0000000000000028 _ZN3TCB4dtorEPv
     /tmp/cc9e2H1N.s:47     .text:0000000000000028 .L0 
     /tmp/cc9e2H1N.s:49     .text:0000000000000028 .L0 
     /tmp/cc9e2H1N.s:50     .text:000000000000002c .L0 
     /tmp/cc9e2H1N.s:52     .text:0000000000000030 .L0 
     /tmp/cc9e2H1N.s:54     .text:0000000000000034 .L0 
     /tmp/cc9e2H1N.s:56     .text:0000000000000034 .L0 
     /tmp/cc9e2H1N.s:57     .text:0000000000000034 .L0 
     /tmp/cc9e2H1N.s:60     .text:000000000000003c .L0 
     /tmp/cc9e2H1N.s:61     .text:000000000000003c .L0 
     /tmp/cc9e2H1N.s:63     .text:0000000000000040 .L0 
     /tmp/cc9e2H1N.s:64     .text:0000000000000040 .L0 
     /tmp/cc9e2H1N.s:66     .text:0000000000000044 .L0 
     /tmp/cc9e2H1N.s:67     .text:0000000000000048 .L0 
     /tmp/cc9e2H1N.s:68     .text:0000000000000048 .L0 
     /tmp/cc9e2H1N.s:70     .text:000000000000004c .L0 
     /tmp/cc9e2H1N.s:72     .text:0000000000000050 .L0 
     /tmp/cc9e2H1N.s:78     .text:0000000000000050 _ZN3TCB7wrapperEPv
     /tmp/cc9e2H1N.s:81     .text:0000000000000050 .L0 
     /tmp/cc9e2H1N.s:83     .text:0000000000000050 .L0 
     /tmp/cc9e2H1N.s:84     .text:0000000000000054 .L0 
     /tmp/cc9e2H1N.s:87     .text:000000000000005c .L0 
     /tmp/cc9e2H1N.s:88     .text:000000000000005c .L0 
     /tmp/cc9e2H1N.s:90     .text:0000000000000060 .L0 
     /tmp/cc9e2H1N.s:92     .text:0000000000000060 .L0 
     /tmp/cc9e2H1N.s:93     .text:0000000000000060 .L0 
     /tmp/cc9e2H1N.s:96     .text:0000000000000068 .L0 
     /tmp/cc9e2H1N.s:97     .text:0000000000000068 .L0 
     /tmp/cc9e2H1N.s:100    .text:0000000000000074 .L0 
     /tmp/cc9e2H1N.s:104    .text:000000000000007c .L0 
     /tmp/cc9e2H1N.s:105    .text:000000000000007c .L0 
     /tmp/cc9e2H1N.s:108    .text:0000000000000084 .L0 
     /tmp/cc9e2H1N.s:109    .text:0000000000000088 .L0 
     /tmp/cc9e2H1N.s:111    .text:000000000000008c .L0 
     /tmp/cc9e2H1N.s:112    .text:000000000000008c .L0 
     /tmp/cc9e2H1N.s:114    .text:0000000000000090 .L0 
     /tmp/cc9e2H1N.s:116    .text:0000000000000094 .L0 
     /tmp/cc9e2H1N.s:122    .text:0000000000000094 _ZN3TCBC2EPFvPvES0_Pmm
GAS LISTING /tmp/cc9e2H1N.s 			page 18


     /tmp/cc9e2H1N.s:125    .text:0000000000000094 .L0 
     /tmp/cc9e2H1N.s:127    .text:0000000000000094 .L0 
     /tmp/cc9e2H1N.s:128    .text:0000000000000098 .L0 
     /tmp/cc9e2H1N.s:130    .text:000000000000009c .L0 
     /tmp/cc9e2H1N.s:132    .text:00000000000000a0 .L0 
     /tmp/cc9e2H1N.s:135    .text:00000000000000a0 .L0 
     /tmp/cc9e2H1N.s:139    .text:00000000000000ac .L0 
     /tmp/cc9e2H1N.s:140    .text:00000000000000ac .L0 
     /tmp/cc9e2H1N.s:142    .text:00000000000000b0 .L0 
     /tmp/cc9e2H1N.s:143    .text:00000000000000b0 .L0 
     /tmp/cc9e2H1N.s:145    .text:00000000000000b4 .L0 
     /tmp/cc9e2H1N.s:146    .text:00000000000000b4 .L0 
     /tmp/cc9e2H1N.s:148    .text:00000000000000b8 .L0 
     /tmp/cc9e2H1N.s:149    .text:00000000000000b8 .L0 
     /tmp/cc9e2H1N.s:153    .text:00000000000000c0 .L0 
     /tmp/cc9e2H1N.s:155    .text:00000000000000c4 .L0 
     /tmp/cc9e2H1N.s:156    .text:00000000000000c4 .L0 
     /tmp/cc9e2H1N.s:158    .text:00000000000000c8 .L0 
     /tmp/cc9e2H1N.s:163    .text:00000000000000d0 .L0 
     /tmp/cc9e2H1N.s:168    .text:00000000000000e0 .L0 
     /tmp/cc9e2H1N.s:169    .text:00000000000000e4 .L0 
     /tmp/cc9e2H1N.s:170    .text:00000000000000e4 .L0 
     /tmp/cc9e2H1N.s:171    .text:00000000000000e4 .L0 
     /tmp/cc9e2H1N.s:173    .text:00000000000000e8 .L0 
     /tmp/cc9e2H1N.s:177    .text:00000000000000ec .L0 
     /tmp/cc9e2H1N.s:180    .text:00000000000000ec .L0 
     /tmp/cc9e2H1N.s:184    .text:00000000000000f4 .L0 
     /tmp/cc9e2H1N.s:188    .text:00000000000000fc .L0 
     /tmp/cc9e2H1N.s:122    .text:0000000000000094 _ZN3TCBC1EPFvPvES0_Pmm
     /tmp/cc9e2H1N.s:196    .text:00000000000000fc _ZN3TCB4freeEv
     /tmp/cc9e2H1N.s:199    .text:00000000000000fc .L0 
     /tmp/cc9e2H1N.s:201    .text:00000000000000fc .L0 
     /tmp/cc9e2H1N.s:202    .text:0000000000000100 .L0 
     /tmp/cc9e2H1N.s:205    .text:0000000000000108 .L0 
     /tmp/cc9e2H1N.s:206    .text:0000000000000108 .L0 
     /tmp/cc9e2H1N.s:208    .text:000000000000010c .L0 
     /tmp/cc9e2H1N.s:210    .text:000000000000010c .L0 
     /tmp/cc9e2H1N.s:211    .text:000000000000010c .L0 
     /tmp/cc9e2H1N.s:216    .text:0000000000000118 .L0 
     /tmp/cc9e2H1N.s:217    .text:000000000000011c .L0 
     /tmp/cc9e2H1N.s:219    .text:0000000000000120 .L0 
     /tmp/cc9e2H1N.s:220    .text:0000000000000120 .L0 
     /tmp/cc9e2H1N.s:222    .text:0000000000000124 .L0 
     /tmp/cc9e2H1N.s:224    .text:0000000000000128 .L0 
     /tmp/cc9e2H1N.s:230    .text:0000000000000128 _ZN3TCBD2Ev
     /tmp/cc9e2H1N.s:233    .text:0000000000000128 .L0 
     /tmp/cc9e2H1N.s:3941   .data.rel.local.DW.ref.__gxx_personality_v0:0000000000000000 DW.ref.__gxx_personality_v0
     /tmp/cc9e2H1N.s:237    .text:0000000000000128 .L0 
     /tmp/cc9e2H1N.s:238    .text:000000000000012c .L0 
     /tmp/cc9e2H1N.s:241    .text:0000000000000134 .L0 
     /tmp/cc9e2H1N.s:242    .text:0000000000000134 .L0 
     /tmp/cc9e2H1N.s:244    .text:0000000000000138 .L0 
     /tmp/cc9e2H1N.s:247    .text:0000000000000138 .L0 
     /tmp/cc9e2H1N.s:248    .text:0000000000000138 .L0 
     /tmp/cc9e2H1N.s:252    .text:0000000000000140 .L0 
     /tmp/cc9e2H1N.s:253    .text:0000000000000144 .L0 
     /tmp/cc9e2H1N.s:255    .text:0000000000000148 .L0 
GAS LISTING /tmp/cc9e2H1N.s 			page 19


     /tmp/cc9e2H1N.s:256    .text:0000000000000148 .L0 
     /tmp/cc9e2H1N.s:258    .text:000000000000014c .L0 
     /tmp/cc9e2H1N.s:260    .text:0000000000000150 .L0 
     /tmp/cc9e2H1N.s:230    .text:0000000000000128 _ZN3TCBD1Ev
     /tmp/cc9e2H1N.s:276    .text:0000000000000150 _ZN3TCB8dispatchEv
     /tmp/cc9e2H1N.s:279    .text:0000000000000150 .L0 
     /tmp/cc9e2H1N.s:280    .text:0000000000000150 .L0 
     /tmp/cc9e2H1N.s:281    .text:0000000000000154 .L0 
     /tmp/cc9e2H1N.s:285    .text:0000000000000160 .L0 
     /tmp/cc9e2H1N.s:286    .text:0000000000000160 .L0 
     /tmp/cc9e2H1N.s:287    .text:0000000000000160 .L0 
     /tmp/cc9e2H1N.s:289    .text:0000000000000164 .L0 
     /tmp/cc9e2H1N.s:291    .text:0000000000000164 .L0 
     /tmp/cc9e2H1N.s:292    .text:0000000000000164 .L0 
     /tmp/cc9e2H1N.s:295    .text:000000000000016c .L0 
     /tmp/cc9e2H1N.s:296    .text:000000000000016c .L0 
     /tmp/cc9e2H1N.s:298    .text:0000000000000170 .L0 
     /tmp/cc9e2H1N.s:302    .text:0000000000000178 .L0 
     /tmp/cc9e2H1N.s:303    .text:0000000000000178 .L0 
     /tmp/cc9e2H1N.s:306    .text:0000000000000180 .L0 
     /tmp/cc9e2H1N.s:308    .text:0000000000000188 .L0 
     /tmp/cc9e2H1N.s:310    .text:000000000000018c .L0 
     /tmp/cc9e2H1N.s:311    .text:000000000000018c .L0 
     /tmp/cc9e2H1N.s:313    .text:0000000000000190 .L0 
     /tmp/cc9e2H1N.s:314    .text:0000000000000190 .L0 
     /tmp/cc9e2H1N.s:317    .text:0000000000000198 .L0 
     /tmp/cc9e2H1N.s:318    .text:0000000000000198 .L0 
     /tmp/cc9e2H1N.s:324    .text:00000000000001ac .L0 
     /tmp/cc9e2H1N.s:325    .text:00000000000001b0 .L0 
     /tmp/cc9e2H1N.s:326    .text:00000000000001b0 .L0 
     /tmp/cc9e2H1N.s:328    .text:00000000000001b4 .L0 
     /tmp/cc9e2H1N.s:329    .text:00000000000001b4 .L0 
     /tmp/cc9e2H1N.s:331    .text:00000000000001b8 .L0 
     /tmp/cc9e2H1N.s:334    .text:00000000000001bc .L0 
     /tmp/cc9e2H1N.s:338    .text:00000000000001c0 .L0 
     /tmp/cc9e2H1N.s:340    .text:00000000000001c0 .L0 
     /tmp/cc9e2H1N.s:341    .text:00000000000001c0 .L0 
     /tmp/cc9e2H1N.s:345    .text:00000000000001d0 .L0 
     /tmp/cc9e2H1N.s:351    .text:00000000000001d0 _ZN3TCBnwEm
     /tmp/cc9e2H1N.s:354    .text:00000000000001d0 .L0 
     /tmp/cc9e2H1N.s:356    .text:00000000000001d0 .L0 
     /tmp/cc9e2H1N.s:357    .text:00000000000001d4 .L0 
     /tmp/cc9e2H1N.s:360    .text:00000000000001dc .L0 
     /tmp/cc9e2H1N.s:361    .text:00000000000001dc .L0 
     /tmp/cc9e2H1N.s:363    .text:00000000000001e0 .L0 
     /tmp/cc9e2H1N.s:365    .text:00000000000001e0 .L0 
     /tmp/cc9e2H1N.s:366    .text:00000000000001e0 .L0 
     /tmp/cc9e2H1N.s:371    .text:00000000000001f0 .L0 
     /tmp/cc9e2H1N.s:372    .text:00000000000001f4 .L0 
     /tmp/cc9e2H1N.s:374    .text:00000000000001f8 .L0 
     /tmp/cc9e2H1N.s:375    .text:00000000000001f8 .L0 
     /tmp/cc9e2H1N.s:377    .text:00000000000001fc .L0 
     /tmp/cc9e2H1N.s:379    .text:0000000000000200 .L0 
     /tmp/cc9e2H1N.s:390    .text:0000000000000200 _ZN3TCB10initializeEv
     /tmp/cc9e2H1N.s:393    .text:0000000000000200 .L0 
     /tmp/cc9e2H1N.s:394    .text:0000000000000200 .L0 
     /tmp/cc9e2H1N.s:395    .text:0000000000000204 .L0 
GAS LISTING /tmp/cc9e2H1N.s 			page 20


     /tmp/cc9e2H1N.s:400    .text:0000000000000214 .L0 
     /tmp/cc9e2H1N.s:401    .text:0000000000000214 .L0 
     /tmp/cc9e2H1N.s:402    .text:0000000000000214 .L0 
     /tmp/cc9e2H1N.s:403    .text:0000000000000214 .L0 
     /tmp/cc9e2H1N.s:405    .text:0000000000000218 .L0 
     /tmp/cc9e2H1N.s:407    .text:0000000000000218 .L0 
     /tmp/cc9e2H1N.s:408    .text:0000000000000218 .L0 
     /tmp/cc9e2H1N.s:415    .text:000000000000023c .L0 
     /tmp/cc9e2H1N.s:417    .text:0000000000000244 .L0 
     /tmp/cc9e2H1N.s:418    .text:0000000000000244 .L0 
     /tmp/cc9e2H1N.s:424    .text:0000000000000258 .L0 
     /tmp/cc9e2H1N.s:432    .text:0000000000000270 .L0 
     /tmp/cc9e2H1N.s:434    .text:0000000000000278 .L0 
     /tmp/cc9e2H1N.s:435    .text:0000000000000278 .L0 
     /tmp/cc9e2H1N.s:438    .text:0000000000000280 .L0 
     /tmp/cc9e2H1N.s:439    .text:0000000000000280 .L0 
     /tmp/cc9e2H1N.s:445    .text:0000000000000290 .L0 
     /tmp/cc9e2H1N.s:446    .text:0000000000000290 .L0 
     /tmp/cc9e2H1N.s:453    .text:00000000000002a4 .L0 
     /tmp/cc9e2H1N.s:461    .text:00000000000002c0 .L0 
     /tmp/cc9e2H1N.s:463    .text:00000000000002c8 .L0 
     /tmp/cc9e2H1N.s:464    .text:00000000000002c8 .L0 
     /tmp/cc9e2H1N.s:467    .text:00000000000002d0 .L0 
     /tmp/cc9e2H1N.s:468    .text:00000000000002d0 .L0 
     /tmp/cc9e2H1N.s:472    .text:00000000000002dc .L0 
     /tmp/cc9e2H1N.s:473    .text:00000000000002e0 .L0 
     /tmp/cc9e2H1N.s:475    .text:00000000000002e4 .L0 
     /tmp/cc9e2H1N.s:476    .text:00000000000002e4 .L0 
     /tmp/cc9e2H1N.s:478    .text:00000000000002e8 .L0 
     /tmp/cc9e2H1N.s:480    .text:00000000000002ec .L0 
     /tmp/cc9e2H1N.s:483    .text:00000000000002f0 .L0 
     /tmp/cc9e2H1N.s:485    .text:00000000000002f4 .L0 
     /tmp/cc9e2H1N.s:491    .text:00000000000002f4 _ZN3TCBdlEPv
     /tmp/cc9e2H1N.s:494    .text:00000000000002f4 .L0 
     /tmp/cc9e2H1N.s:496    .text:00000000000002f4 .L0 
     /tmp/cc9e2H1N.s:497    .text:00000000000002f8 .L0 
     /tmp/cc9e2H1N.s:500    .text:0000000000000300 .L0 
     /tmp/cc9e2H1N.s:501    .text:0000000000000300 .L0 
     /tmp/cc9e2H1N.s:503    .text:0000000000000304 .L0 
     /tmp/cc9e2H1N.s:506    .text:0000000000000308 .L0 
     /tmp/cc9e2H1N.s:507    .text:0000000000000308 .L0 
     /tmp/cc9e2H1N.s:512    .text:0000000000000318 .L0 
     /tmp/cc9e2H1N.s:513    .text:000000000000031c .L0 
     /tmp/cc9e2H1N.s:515    .text:0000000000000320 .L0 
     /tmp/cc9e2H1N.s:516    .text:0000000000000320 .L0 
     /tmp/cc9e2H1N.s:518    .text:0000000000000324 .L0 
     /tmp/cc9e2H1N.s:520    .text:0000000000000328 .L0 
     /tmp/cc9e2H1N.s:526    .text:0000000000000328 _ZN3TCB11thread_freeEPv
     /tmp/cc9e2H1N.s:529    .text:0000000000000328 .L0 
     /tmp/cc9e2H1N.s:531    .text:0000000000000328 .L0 
     /tmp/cc9e2H1N.s:532    .text:000000000000032c .L0 
     /tmp/cc9e2H1N.s:534    .text:0000000000000330 .L0 
     /tmp/cc9e2H1N.s:536    .text:0000000000000334 .L0 
     /tmp/cc9e2H1N.s:539    .text:0000000000000334 .L0 
     /tmp/cc9e2H1N.s:540    .text:0000000000000334 .L0 
  src/kernel/tcb.cpp:112    .text:0000000000000334 .L0 
     /tmp/cc9e2H1N.s:546    .text:0000000000000338 .L0 
GAS LISTING /tmp/cc9e2H1N.s 			page 21


  src/kernel/tcb.cpp:113    .text:0000000000000338 .L0 
     /tmp/cc9e2H1N.s:551    .text:000000000000033c .L0 
  src/kernel/tcb.cpp:114    .text:000000000000033c .L0 
     /tmp/cc9e2H1N.s:556    .text:0000000000000340 .L0 
     /tmp/cc9e2H1N.s:557    .text:0000000000000340 .L0 
  src/kernel/tcb.cpp:118    .text:0000000000000340 .L0 
     /tmp/cc9e2H1N.s:563    .text:0000000000000344 .L0 
     /tmp/cc9e2H1N.s:565    .text:0000000000000344 .L0 
     /tmp/cc9e2H1N.s:568    .text:000000000000034c .L0 
     /tmp/cc9e2H1N.s:569    .text:000000000000034c .L0 
     /tmp/cc9e2H1N.s:571    .text:0000000000000350 .L0 
     /tmp/cc9e2H1N.s:573    .text:0000000000000354 .L0 
     /tmp/cc9e2H1N.s:591    .bss:0000000000000008 _ZN3TCB8tcbCacheE
     /tmp/cc9e2H1N.s:599    .bss:0000000000000018 _ZN3TCB16timeSliceCounterE
     /tmp/cc9e2H1N.s:603    .bss:0000000000000020 _ZN3TCB9currentSPE
     /tmp/cc9e2H1N.s:607    .bss:0000000000000028 _ZN3TCB9currentPCE
     /tmp/cc9e2H1N.s:595    .bss:0000000000000010 _ZN3TCB10putcThreadE
     /tmp/cc9e2H1N.s:587    .bss:0000000000000000 _ZN3TCB7runningE
     /tmp/cc9e2H1N.s:584    .bss:0000000000000000 .LANCHOR0
     /tmp/cc9e2H1N.s:619    .text:0000000000000354 .L0 
     /tmp/cc9e2H1N.s:97     .text:0000000000000068 .L0 
     /tmp/cc9e2H1N.s:164    .text:00000000000000d4 .L0 
     /tmp/cc9e2H1N.s:292    .text:0000000000000164 .L0 
     /tmp/cc9e2H1N.s:306    .text:0000000000000180 .L0 
     /tmp/cc9e2H1N.s:318    .text:0000000000000198 .L0 
     /tmp/cc9e2H1N.s:366    .text:00000000000001e0 .L0 
     /tmp/cc9e2H1N.s:408    .text:0000000000000218 .L0 
     /tmp/cc9e2H1N.s:409    .text:0000000000000220 .L0 
     /tmp/cc9e2H1N.s:384    .rodata.str1.8:0000000000000000 .LC0
     /tmp/cc9e2H1N.s:411    .text:000000000000022c .L0 
     /tmp/cc9e2H1N.s:415    .text:000000000000023c .L0 
     /tmp/cc9e2H1N.s:432    .text:0000000000000270 .L0 
     /tmp/cc9e2H1N.s:456    .text:00000000000002b0 .L0 
     /tmp/cc9e2H1N.s:461    .text:00000000000002c0 .L0 
     /tmp/cc9e2H1N.s:507    .text:0000000000000308 .L0 
     /tmp/cc9e2H1N.s:176    .text:00000000000000ec .L10
     /tmp/cc9e2H1N.s:182    .text:00000000000000f4 .L11
     /tmp/cc9e2H1N.s:151    .text:00000000000000c0 .L8
     /tmp/cc9e2H1N.s:161    .text:00000000000000d0 .L9
     /tmp/cc9e2H1N.s:337    .text:00000000000001c0 .L21
     /tmp/cc9e2H1N.s:322    .text:00000000000001ac .L17
     /tmp/cc9e2H1N.s:300    .text:0000000000000178 .L18
     /tmp/cc9e2H1N.s:430    .text:0000000000000270 .L25
     /tmp/cc9e2H1N.s:459    .text:00000000000002c0 .L26
     /tmp/cc9e2H1N.s:2370   .debug_abbrev:0000000000000000 .Ldebug_abbrev0
     /tmp/cc9e2H1N.s:3899   .debug_str:0000000000000f78 .LASF237
     /tmp/cc9e2H1N.s:3557   .debug_str:000000000000038d .LASF238
     /tmp/cc9e2H1N.s:3837   .debug_str:0000000000000d0a .LASF239
     /tmp/cc9e2H1N.s:5      .text:0000000000000000 .Ltext0
     /tmp/cc9e2H1N.s:610    .text:0000000000000354 .Letext0
     /tmp/cc9e2H1N.s:3447   .debug_line:0000000000000000 .Ldebug_line0
     /tmp/cc9e2H1N.s:3473   .debug_str:00000000000000d5 .LASF0
     /tmp/cc9e2H1N.s:3895   .debug_str:0000000000000f5d .LASF1
     /tmp/cc9e2H1N.s:3843   .debug_str:0000000000000d66 .LASF2
     /tmp/cc9e2H1N.s:3805   .debug_str:0000000000000bed .LASF4
     /tmp/cc9e2H1N.s:3815   .debug_str:0000000000000c5b .LASF3
     /tmp/cc9e2H1N.s:3579   .debug_str:0000000000000448 .LASF5
GAS LISTING /tmp/cc9e2H1N.s 			page 22


     /tmp/cc9e2H1N.s:3639   .debug_str:000000000000068b .LASF6
     /tmp/cc9e2H1N.s:3751   .debug_str:0000000000000a5b .LASF7
     /tmp/cc9e2H1N.s:3509   .debug_str:0000000000000201 .LASF8
     /tmp/cc9e2H1N.s:3881   .debug_str:0000000000000ea7 .LASF9
     /tmp/cc9e2H1N.s:3583   .debug_str:000000000000045a .LASF10
     /tmp/cc9e2H1N.s:3529   .debug_str:0000000000000278 .LASF11
     /tmp/cc9e2H1N.s:3655   .debug_str:000000000000070f .LASF12
     /tmp/cc9e2H1N.s:3593   .debug_str:00000000000004af .LASF13
     /tmp/cc9e2H1N.s:3787   .debug_str:0000000000000b85 .LASF14
     /tmp/cc9e2H1N.s:3595   .debug_str:00000000000004bf .LASF15
     /tmp/cc9e2H1N.s:3555   .debug_str:0000000000000377 .LASF16
     /tmp/cc9e2H1N.s:3629   .debug_str:000000000000062b .LASF17
     /tmp/cc9e2H1N.s:3823   .debug_str:0000000000000c9c .LASF18
     /tmp/cc9e2H1N.s:3681   .debug_str:000000000000080c .LASF19
     /tmp/cc9e2H1N.s:3645   .debug_str:00000000000006c1 .LASF20
     /tmp/cc9e2H1N.s:3799   .debug_str:0000000000000bce .LASF29
     /tmp/cc9e2H1N.s:3793   .debug_str:0000000000000ba7 .LASF21
     /tmp/cc9e2H1N.s:3703   .debug_str:00000000000008bd .LASF22
     /tmp/cc9e2H1N.s:3747   .debug_str:0000000000000a4d .LASF23
     /tmp/cc9e2H1N.s:3485   .debug_str:0000000000000132 .LASF24
     /tmp/cc9e2H1N.s:3739   .debug_str:0000000000000a29 .LASF25
     /tmp/cc9e2H1N.s:3517   .debug_str:000000000000022d .LASF26
     /tmp/cc9e2H1N.s:3931   .debug_str:0000000000001147 .LASF27
     /tmp/cc9e2H1N.s:3783   .debug_str:0000000000000b68 .LASF28
     /tmp/cc9e2H1N.s:3789   .debug_str:0000000000000b91 .LASF30
     /tmp/cc9e2H1N.s:3915   .debug_str:00000000000010b8 .LASF31
     /tmp/cc9e2H1N.s:3773   .debug_str:0000000000000b1f .LASF33
     /tmp/cc9e2H1N.s:3761   .debug_str:0000000000000ab0 .LASF32
     /tmp/cc9e2H1N.s:3879   .debug_str:0000000000000e94 .LASF34
     /tmp/cc9e2H1N.s:3491   .debug_str:0000000000000156 .LASF35
     /tmp/cc9e2H1N.s:3475   .debug_str:00000000000000e2 .LASF36
     /tmp/cc9e2H1N.s:3467   .debug_str:000000000000009d .LASF37
     /tmp/cc9e2H1N.s:3643   .debug_str:00000000000006b1 .LASF38
     /tmp/cc9e2H1N.s:3755   .debug_str:0000000000000a79 .LASF39
     /tmp/cc9e2H1N.s:3597   .debug_str:00000000000004d5 .LASF40
     /tmp/cc9e2H1N.s:3743   .debug_str:0000000000000a3e .LASF41
     /tmp/cc9e2H1N.s:3745   .debug_str:0000000000000a45 .LASF240
     /tmp/cc9e2H1N.s:3477   .debug_str:00000000000000e7 .LASF46
     /tmp/cc9e2H1N.s:3711   .debug_str:000000000000090c .LASF42
     /tmp/cc9e2H1N.s:3677   .debug_str:00000000000007e6 .LASF43
     /tmp/cc9e2H1N.s:3625   .debug_str:0000000000000604 .LASF44
     /tmp/cc9e2H1N.s:3795   .debug_str:0000000000000bac .LASF45
     /tmp/cc9e2H1N.s:3749   .debug_str:0000000000000a56 .LASF47
     /tmp/cc9e2H1N.s:3513   .debug_str:0000000000000223 .LASF48
     /tmp/cc9e2H1N.s:3825   .debug_str:0000000000000ca4 .LASF49
     /tmp/cc9e2H1N.s:3451   .debug_str:0000000000000013 .LASF50
     /tmp/cc9e2H1N.s:3535   .debug_str:0000000000000296 .LASF51
     /tmp/cc9e2H1N.s:3601   .debug_str:00000000000004fe .LASF52
     /tmp/cc9e2H1N.s:3903   .debug_str:000000000000106c .LASF53
     /tmp/cc9e2H1N.s:3699   .debug_str:00000000000008a6 .LASF55
     /tmp/cc9e2H1N.s:3851   .debug_str:0000000000000d94 .LASF57
     /tmp/cc9e2H1N.s:3481   .debug_str:0000000000000103 .LASF59
     /tmp/cc9e2H1N.s:3719   .debug_str:0000000000000934 .LASF54
     /tmp/cc9e2H1N.s:3611   .debug_str:0000000000000580 .LASF56
     /tmp/cc9e2H1N.s:3715   .debug_str:000000000000091f .LASF58
     /tmp/cc9e2H1N.s:3487   .debug_str:0000000000000137 .LASF60
     /tmp/cc9e2H1N.s:3603   .debug_str:0000000000000503 .LASF61
GAS LISTING /tmp/cc9e2H1N.s 			page 23


     /tmp/cc9e2H1N.s:3817   .debug_str:0000000000000c6d .LASF62
     /tmp/cc9e2H1N.s:3663   .debug_str:0000000000000749 .LASF63
     /tmp/cc9e2H1N.s:3707   .debug_str:00000000000008f1 .LASF65
     /tmp/cc9e2H1N.s:3581   .debug_str:000000000000044f .LASF64
     /tmp/cc9e2H1N.s:3831   .debug_str:0000000000000cd3 .LASF66
     /tmp/cc9e2H1N.s:3741   .debug_str:0000000000000a2e .LASF67
     /tmp/cc9e2H1N.s:3539   .debug_str:00000000000002b4 .LASF68
     /tmp/cc9e2H1N.s:3585   .debug_str:0000000000000469 .LASF69
     /tmp/cc9e2H1N.s:3501   .debug_str:00000000000001b8 .LASF70
     /tmp/cc9e2H1N.s:3877   .debug_str:0000000000000e86 .LASF71
     /tmp/cc9e2H1N.s:3545   .debug_str:00000000000002f4 .LASF72
     /tmp/cc9e2H1N.s:3459   .debug_str:0000000000000063 .LASF73
     /tmp/cc9e2H1N.s:3777   .debug_str:0000000000000b3a .LASF74
     /tmp/cc9e2H1N.s:3709   .debug_str:0000000000000904 .LASF75
     /tmp/cc9e2H1N.s:3651   .debug_str:00000000000006fc .LASF76
     /tmp/cc9e2H1N.s:3515   .debug_str:0000000000000228 .LASF77
     /tmp/cc9e2H1N.s:3829   .debug_str:0000000000000cce .LASF78
     /tmp/cc9e2H1N.s:3717   .debug_str:000000000000092f .LASF79
     /tmp/cc9e2H1N.s:3801   .debug_str:0000000000000bd4 .LASF80
     /tmp/cc9e2H1N.s:3461   .debug_str:000000000000006f .LASF81
     /tmp/cc9e2H1N.s:3573   .debug_str:0000000000000428 .LASF82
     /tmp/cc9e2H1N.s:3697   .debug_str:000000000000089e .LASF83
     /tmp/cc9e2H1N.s:3471   .debug_str:00000000000000cb .LASF84
     /tmp/cc9e2H1N.s:3763   .debug_str:0000000000000ab8 .LASF85
     /tmp/cc9e2H1N.s:3835   .debug_str:0000000000000d01 .LASF86
     /tmp/cc9e2H1N.s:3713   .debug_str:0000000000000914 .LASF87
     /tmp/cc9e2H1N.s:3909   .debug_str:0000000000001084 .LASF88
     /tmp/cc9e2H1N.s:3695   .debug_str:0000000000000893 .LASF89
     /tmp/cc9e2H1N.s:3849   .debug_str:0000000000000d83 .LASF90
     /tmp/cc9e2H1N.s:3907   .debug_str:000000000000107b .LASF91
     /tmp/cc9e2H1N.s:3533   .debug_str:000000000000028c .LASF92
     /tmp/cc9e2H1N.s:3905   .debug_str:0000000000001071 .LASF93
     /tmp/cc9e2H1N.s:3821   .debug_str:0000000000000c92 .LASF94
     /tmp/cc9e2H1N.s:3765   .debug_str:0000000000000ac1 .LASF95
     /tmp/cc9e2H1N.s:3833   .debug_str:0000000000000ce9 .LASF241
     /tmp/cc9e2H1N.s:3615   .debug_str:00000000000005aa .LASF242
     /tmp/cc9e2H1N.s:3873   .debug_str:0000000000000e74 .LASF96
     /tmp/cc9e2H1N.s:3673   .debug_str:00000000000007bb .LASF97
     /tmp/cc9e2H1N.s:3619   .debug_str:00000000000005d3 .LASF98
     /tmp/cc9e2H1N.s:3819   .debug_str:0000000000000c7c .LASF99
     /tmp/cc9e2H1N.s:3483   .debug_str:0000000000000116 .LASF100
     /tmp/cc9e2H1N.s:3781   .debug_str:0000000000000b5a .LASF101
     /tmp/cc9e2H1N.s:3559   .debug_str:00000000000003a0 .LASF103
     /tmp/cc9e2H1N.s:3857   .debug_str:0000000000000dca .LASF102
     /tmp/cc9e2H1N.s:3565   .debug_str:00000000000003ef .LASF104
     /tmp/cc9e2H1N.s:3521   .debug_str:0000000000000243 .LASF105
     /tmp/cc9e2H1N.s:3701   .debug_str:00000000000008b2 .LASF106
     /tmp/cc9e2H1N.s:3525   .debug_str:000000000000025c .LASF107
     /tmp/cc9e2H1N.s:3839   .debug_str:0000000000000d3b .LASF108
     /tmp/cc9e2H1N.s:3791   .debug_str:0000000000000b96 .LASF109
     /tmp/cc9e2H1N.s:3813   .debug_str:0000000000000c44 .LASF110
     /tmp/cc9e2H1N.s:3771   .debug_str:0000000000000afb .LASF111
     /tmp/cc9e2H1N.s:3891   .debug_str:0000000000000f35 .LASF112
     /tmp/cc9e2H1N.s:3883   .debug_str:0000000000000eb5 .LASF113
     /tmp/cc9e2H1N.s:3507   .debug_str:00000000000001e6 .LASF114
     /tmp/cc9e2H1N.s:3647   .debug_str:00000000000006ce .LASF115
     /tmp/cc9e2H1N.s:3541   .debug_str:00000000000002c4 .LASF116
GAS LISTING /tmp/cc9e2H1N.s 			page 24


     /tmp/cc9e2H1N.s:3841   .debug_str:0000000000000d40 .LASF117
     /tmp/cc9e2H1N.s:3665   .debug_str:0000000000000752 .LASF118
     /tmp/cc9e2H1N.s:3733   .debug_str:00000000000009e3 .LASF119
     /tmp/cc9e2H1N.s:3469   .debug_str:00000000000000ac .LASF120
     /tmp/cc9e2H1N.s:3605   .debug_str:0000000000000508 .LASF121
     /tmp/cc9e2H1N.s:3621   .debug_str:00000000000005d9 .LASF122
     /tmp/cc9e2H1N.s:3855   .debug_str:0000000000000da3 .LASF123
     /tmp/cc9e2H1N.s:3721   .debug_str:0000000000000941 .LASF124
     /tmp/cc9e2H1N.s:3553   .debug_str:0000000000000354 .LASF125
     /tmp/cc9e2H1N.s:3543   .debug_str:00000000000002dd .LASF126
     /tmp/cc9e2H1N.s:3863   .debug_str:0000000000000e04 .LASF127
     /tmp/cc9e2H1N.s:3885   .debug_str:0000000000000ed8 .LASF128
     /tmp/cc9e2H1N.s:3727   .debug_str:0000000000000995 .LASF129
     /tmp/cc9e2H1N.s:3497   .debug_str:0000000000000195 .LASF130
     /tmp/cc9e2H1N.s:3725   .debug_str:0000000000000970 .LASF131
     /tmp/cc9e2H1N.s:3861   .debug_str:0000000000000dec .LASF132
     /tmp/cc9e2H1N.s:3609   .debug_str:000000000000055b .LASF133
     /tmp/cc9e2H1N.s:3523   .debug_str:0000000000000249 .LASF134
     /tmp/cc9e2H1N.s:3667   .debug_str:000000000000076f .LASF135
     /tmp/cc9e2H1N.s:3641   .debug_str:000000000000069e .LASF136
     /tmp/cc9e2H1N.s:3679   .debug_str:00000000000007ec .LASF137
     /tmp/cc9e2H1N.s:3457   .debug_str:000000000000004c .LASF138
     /tmp/cc9e2H1N.s:3887   .debug_str:0000000000000eee .LASF139
     /tmp/cc9e2H1N.s:3913   .debug_str:000000000000109f .LASF140
     /tmp/cc9e2H1N.s:3587   .debug_str:0000000000000473 .LASF141
     /tmp/cc9e2H1N.s:3599   .debug_str:00000000000004e2 .LASF142
     /tmp/cc9e2H1N.s:3705   .debug_str:00000000000008c8 .LASF143
     /tmp/cc9e2H1N.s:3449   .debug_str:0000000000000000 .LASF144
     /tmp/cc9e2H1N.s:3811   .debug_str:0000000000000c24 .LASF145
     /tmp/cc9e2H1N.s:3875   .debug_str:0000000000000e7a .LASF146
     /tmp/cc9e2H1N.s:3797   .debug_str:0000000000000bb4 .LASF147
     /tmp/cc9e2H1N.s:3759   .debug_str:0000000000000a9f .LASF148
     /tmp/cc9e2H1N.s:3693   .debug_str:0000000000000867 .LASF149
     /tmp/cc9e2H1N.s:3463   .debug_str:0000000000000079 .LASF150
     /tmp/cc9e2H1N.s:3757   .debug_str:0000000000000a83 .LASF151
     /tmp/cc9e2H1N.s:3917   .debug_str:00000000000010bf .LASF152
     /tmp/cc9e2H1N.s:3769   .debug_str:0000000000000ae6 .LASF153
     /tmp/cc9e2H1N.s:3775   .debug_str:0000000000000b31 .LASF154
     /tmp/cc9e2H1N.s:3859   .debug_str:0000000000000dd7 .LASF155
     /tmp/cc9e2H1N.s:3537   .debug_str:00000000000002ad .LASF156
     /tmp/cc9e2H1N.s:3803   .debug_str:0000000000000bda .LASF157
     /tmp/cc9e2H1N.s:3575   .debug_str:000000000000042d .LASF158
     /tmp/cc9e2H1N.s:3683   .debug_str:0000000000000811 .LASF159
     /tmp/cc9e2H1N.s:3897   .debug_str:0000000000000f70 .LASF160
     /tmp/cc9e2H1N.s:3577   .debug_str:0000000000000434 .LASF161
     /tmp/cc9e2H1N.s:3779   .debug_str:0000000000000b52 .LASF162
     /tmp/cc9e2H1N.s:3785   .debug_str:0000000000000b71 .LASF163
     /tmp/cc9e2H1N.s:3589   .debug_str:0000000000000499 .LASF164
     /tmp/cc9e2H1N.s:3691   .debug_str:0000000000000851 .LASF165
     /tmp/cc9e2H1N.s:3567   .debug_str:000000000000040d .LASF166
     /tmp/cc9e2H1N.s:3735   .debug_str:0000000000000a0d .LASF167
     /tmp/cc9e2H1N.s:3689   .debug_str:0000000000000846 .LASF168
     /tmp/cc9e2H1N.s:3929   .debug_str:000000000000112f .LASF169
     /tmp/cc9e2H1N.s:3499   .debug_str:00000000000001ad .LASF170
     /tmp/cc9e2H1N.s:3809   .debug_str:0000000000000c0c .LASF171
     /tmp/cc9e2H1N.s:3853   .debug_str:0000000000000d9c .LASF172
     /tmp/cc9e2H1N.s:3549   .debug_str:0000000000000332 .LASF173
GAS LISTING /tmp/cc9e2H1N.s 			page 25


     /tmp/cc9e2H1N.s:3569   .debug_str:0000000000000417 .LASF174
     /tmp/cc9e2H1N.s:3661   .debug_str:0000000000000736 .LASF175
     /tmp/cc9e2H1N.s:3845   .debug_str:0000000000000d74 .LASF176
     /tmp/cc9e2H1N.s:3505   .debug_str:00000000000001d3 .LASF177
     /tmp/cc9e2H1N.s:3631   .debug_str:0000000000000630 .LASF178
     /tmp/cc9e2H1N.s:3925   .debug_str:0000000000001103 .LASF179
     /tmp/cc9e2H1N.s:3675   .debug_str:00000000000007d5 .LASF180
     /tmp/cc9e2H1N.s:3627   .debug_str:000000000000060d .LASF181
     /tmp/cc9e2H1N.s:3613   .debug_str:000000000000058c .LASF182
     /tmp/cc9e2H1N.s:3561   .debug_str:00000000000003bf .LASF183
     /tmp/cc9e2H1N.s:3753   .debug_str:0000000000000a6e .LASF184
     /tmp/cc9e2H1N.s:3767   .debug_str:0000000000000ace .LASF185
     /tmp/cc9e2H1N.s:3591   .debug_str:00000000000004a3 .LASF186
     /tmp/cc9e2H1N.s:3723   .debug_str:0000000000000957 .LASF187
     /tmp/cc9e2H1N.s:3737   .debug_str:0000000000000a23 .LASF188
     /tmp/cc9e2H1N.s:3687   .debug_str:0000000000000834 .LASF189
     /tmp/cc9e2H1N.s:3551   .debug_str:0000000000000345 .LASF190
     /tmp/cc9e2H1N.s:3633   .debug_str:0000000000000637 .LASF191
     /tmp/cc9e2H1N.s:3479   .debug_str:00000000000000ee .LASF192
     /tmp/cc9e2H1N.s:3671   .debug_str:0000000000000799 .LASF193
     /tmp/cc9e2H1N.s:3933   .debug_str:0000000000001153 .LASF194
     /tmp/cc9e2H1N.s:3869   .debug_str:0000000000000e51 .LASF195
     /tmp/cc9e2H1N.s:3511   .debug_str:0000000000000211 .LASF196
     /tmp/cc9e2H1N.s:3827   .debug_str:0000000000000caf .LASF197
     /tmp/cc9e2H1N.s:3927   .debug_str:0000000000001116 .LASF198
     /tmp/cc9e2H1N.s:3731   .debug_str:00000000000009bd .LASF199
     /tmp/cc9e2H1N.s:3455   .debug_str:0000000000000032 .LASF200
     /tmp/cc9e2H1N.s:3607   .debug_str:0000000000000534 .LASF201
     /tmp/cc9e2H1N.s:3547   .debug_str:000000000000031c .LASF202
     /tmp/cc9e2H1N.s:3889   .debug_str:0000000000000f12 .LASF203
     /tmp/cc9e2H1N.s:3493   .debug_str:000000000000015b .LASF204
     /tmp/cc9e2H1N.s:3901   .debug_str:0000000000001048 .LASF205
     /tmp/cc9e2H1N.s:3657   .debug_str:000000000000071f .LASF206
     /tmp/cc9e2H1N.s:3865   .debug_str:0000000000000e28 .LASF207
     /tmp/cc9e2H1N.s:3807   .debug_str:0000000000000bf4 .LASF208
     /tmp/cc9e2H1N.s:3867   .debug_str:0000000000000e48 .LASF209
     /tmp/cc9e2H1N.s:3617   .debug_str:00000000000005be .LASF210
     /tmp/cc9e2H1N.s:3659   .debug_str:000000000000072f .LASF211
     /tmp/cc9e2H1N.s:3911   .debug_str:000000000000108c .LASF212
     /tmp/cc9e2H1N.s:3623   .debug_str:00000000000005f3 .LASF213
     /tmp/cc9e2H1N.s:3465   .debug_str:0000000000000088 .LASF214
     /tmp/cc9e2H1N.s:3923   .debug_str:00000000000010f0 .LASF215
     /tmp/cc9e2H1N.s:3453   .debug_str:000000000000001f .LASF216
     /tmp/cc9e2H1N.s:3637   .debug_str:0000000000000670 .LASF217
     /tmp/cc9e2H1N.s:3893   .debug_str:0000000000000f4b .LASF218
     /tmp/cc9e2H1N.s:45     .text:0000000000000028 .LFB56
     /tmp/cc9e2H1N.s:73     .text:0000000000000050 .LFE56
     /tmp/cc9e2H1N.s:10     .text:0000000000000000 .LFB55
     /tmp/cc9e2H1N.s:39     .text:0000000000000028 .LFE55
     /tmp/cc9e2H1N.s:527    .text:0000000000000328 .LFB54
     /tmp/cc9e2H1N.s:574    .text:0000000000000354 .LFE54
     /tmp/cc9e2H1N.s:3871   .debug_str:0000000000000e6f .LASF219
     /tmp/cc9e2H1N.s:3278   .debug_loc:0000000000000000 .LLST8
     /tmp/cc9e2H1N.s:3563   .debug_str:00000000000003ea .LASF220
     /tmp/cc9e2H1N.s:3292   .debug_loc:0000000000000039 .LLST9
     /tmp/cc9e2H1N.s:3306   .debug_loc:0000000000000072 .LLST10
     /tmp/cc9e2H1N.s:492    .text:00000000000002f4 .LFB53
GAS LISTING /tmp/cc9e2H1N.s 			page 26


     /tmp/cc9e2H1N.s:521    .text:0000000000000328 .LFE53
     /tmp/cc9e2H1N.s:3313   .debug_loc:0000000000000095 .LLST7
     /tmp/cc9e2H1N.s:510    .text:0000000000000318 .LVL37
     /tmp/cc9e2H1N.s:352    .text:00000000000001d0 .LFB52
     /tmp/cc9e2H1N.s:380    .text:0000000000000200 .LFE52
     /tmp/cc9e2H1N.s:3531   .debug_str:0000000000000287 .LASF221
     /tmp/cc9e2H1N.s:3331   .debug_loc:00000000000000e1 .LLST5
     /tmp/cc9e2H1N.s:369    .text:00000000000001f0 .LVL24
     /tmp/cc9e2H1N.s:79     .text:0000000000000050 .LFB51
     /tmp/cc9e2H1N.s:117    .text:0000000000000094 .LFE51
     /tmp/cc9e2H1N.s:3345   .debug_loc:000000000000011a .LLST0
     /tmp/cc9e2H1N.s:94     .text:0000000000000068 .LVL3
     /tmp/cc9e2H1N.s:106    .text:0000000000000084 .LVL5
     /tmp/cc9e2H1N.s:277    .text:0000000000000150 .LFB50
     /tmp/cc9e2H1N.s:346    .text:00000000000001d0 .LFE50
     /tmp/cc9e2H1N.s:3359   .debug_loc:0000000000000153 .LLST4
     /tmp/cc9e2H1N.s:304    .text:0000000000000180 .LVL16
     /tmp/cc9e2H1N.s:315    .text:0000000000000198 .LVL17
     /tmp/cc9e2H1N.s:321    .text:00000000000001ac .LVL18
     /tmp/cc9e2H1N.s:343    .text:00000000000001cc .LVL21
     /tmp/cc9e2H1N.s:3729   .debug_str:00000000000009b8 .LASF222
     /tmp/cc9e2H1N.s:3669   .debug_str:000000000000078f .LASF223
     /tmp/cc9e2H1N.s:3653   .debug_str:0000000000000703 .LASF224
     /tmp/cc9e2H1N.s:231    .text:0000000000000128 .LFB48
     /tmp/cc9e2H1N.s:261    .text:0000000000000150 .LFE48
     /tmp/cc9e2H1N.s:3370   .debug_loc:0000000000000189 .LLST3
     /tmp/cc9e2H1N.s:249    .text:0000000000000140 .LVL14
     /tmp/cc9e2H1N.s:197    .text:00000000000000fc .LFB46
     /tmp/cc9e2H1N.s:225    .text:0000000000000128 .LFE46
     /tmp/cc9e2H1N.s:3384   .debug_loc:00000000000001c2 .LLST2
     /tmp/cc9e2H1N.s:214    .text:0000000000000118 .LVL12
     /tmp/cc9e2H1N.s:3527   .debug_str:0000000000000261 .LASF225
     /tmp/cc9e2H1N.s:123    .text:0000000000000094 .LFB44
     /tmp/cc9e2H1N.s:189    .text:00000000000000fc .LFE44
     /tmp/cc9e2H1N.s:3398   .debug_loc:00000000000001fb .LLST1
     /tmp/cc9e2H1N.s:391    .text:0000000000000200 .LFB42
     /tmp/cc9e2H1N.s:486    .text:00000000000002f4 .LFE42
     /tmp/cc9e2H1N.s:3571   .debug_str:000000000000041e .LASF226
     /tmp/cc9e2H1N.s:3423   .debug_loc:000000000000025d .LLST6
     /tmp/cc9e2H1N.s:413    .text:000000000000023c .LVL25
     /tmp/cc9e2H1N.s:420    .text:0000000000000250 .LVL26
     /tmp/cc9e2H1N.s:429    .text:0000000000000270 .LVL27
     /tmp/cc9e2H1N.s:441    .text:000000000000028c .LVL28
     /tmp/cc9e2H1N.s:449    .text:000000000000029c .LVL31
     /tmp/cc9e2H1N.s:458    .text:00000000000002c0 .LVL32
     /tmp/cc9e2H1N.s:470    .text:00000000000002dc .LVL33
     /tmp/cc9e2H1N.s:3635   .debug_str:0000000000000653 .LASF227
     /tmp/cc9e2H1N.s:3685   .debug_str:0000000000000824 .LASF229
     /tmp/cc9e2H1N.s:3921   .debug_str:00000000000010d4 .LASF228
     /tmp/cc9e2H1N.s:3503   .debug_str:00000000000001c2 .LASF230
     /tmp/cc9e2H1N.s:3919   .debug_str:00000000000010c8 .LASF231
     /tmp/cc9e2H1N.s:3649   .debug_str:00000000000006f6 .LASF232
     /tmp/cc9e2H1N.s:3495   .debug_str:0000000000000172 .LASF233
     /tmp/cc9e2H1N.s:3489   .debug_str:0000000000000144 .LASF234
     /tmp/cc9e2H1N.s:3519   .debug_str:0000000000000237 .LASF235
     /tmp/cc9e2H1N.s:3847   .debug_str:0000000000000d7b .LASF236
     /tmp/cc9e2H1N.s:530    .text:0000000000000328 .LVL38
GAS LISTING /tmp/cc9e2H1N.s 			page 27


     /tmp/cc9e2H1N.s:561    .text:0000000000000344 .LVL40
     /tmp/cc9e2H1N.s:538    .text:0000000000000334 .LVL39
     /tmp/cc9e2H1N.s:566    .text:0000000000000348 .LVL41
     /tmp/cc9e2H1N.s:495    .text:00000000000002f4 .LVL35
     /tmp/cc9e2H1N.s:508    .text:0000000000000310 .LVL36
     /tmp/cc9e2H1N.s:355    .text:00000000000001d0 .LVL22
     /tmp/cc9e2H1N.s:367    .text:00000000000001e8 .LVL23
     /tmp/cc9e2H1N.s:82     .text:0000000000000050 .LVL2
     /tmp/cc9e2H1N.s:293    .text:000000000000016c .LVL15
     /tmp/cc9e2H1N.s:332    .text:00000000000001b8 .LVL19
     /tmp/cc9e2H1N.s:336    .text:00000000000001c0 .LVL20
     /tmp/cc9e2H1N.s:236    .text:0000000000000128 .LVL13
     /tmp/cc9e2H1N.s:200    .text:00000000000000fc .LVL10
     /tmp/cc9e2H1N.s:212    .text:0000000000000110 .LVL11
     /tmp/cc9e2H1N.s:126    .text:0000000000000094 .LVL6
     /tmp/cc9e2H1N.s:160    .text:00000000000000d0 .LVL7
     /tmp/cc9e2H1N.s:175    .text:00000000000000ec .LVL8
     /tmp/cc9e2H1N.s:185    .text:00000000000000f8 .LVL9
     /tmp/cc9e2H1N.s:443    .text:0000000000000290 .LVL29
     /tmp/cc9e2H1N.s:447    .text:0000000000000294 .LVL30
     /tmp/cc9e2H1N.s:481    .text:00000000000002ec .LVL34
     /tmp/cc9e2H1N.s:620    .debug_info:0000000000000000 .Ldebug_info0
     /tmp/cc9e2H1N.s:264    .gcc_except_table:0000000000000000 .LLSDA48

UNDEFINED SYMBOLS
_ZN5RiscV10popSppSpieEv
_ZN5RiscV14threadExitUtilEv
_Z5kfreePKv
__gxx_personality_v0
_ZN9Scheduler3getEv
_ZN5RiscV29jumpToDesignatedPrivilegeModeEv
_ZN3TCB13contextSwitchEPNS_7ContextES1_
_ZN9Scheduler3putEP3TCB
_Z16kmem_cache_allocP5Cache
_Z17kmem_cache_createPKcmPFvPvES3_
_Z7kmallocm
_ZN5RiscV11putcWrapperEPv
_Z15kmem_cache_freeP5CachePv
