GAS LISTING /tmp/ccWQkNkt.s 			page 1


   1              		.file	"tcb.cpp"
   2              		.option pic
   3              		.option norelax
   4              		.text
   5              	.Ltext0:
   6              		.align	2
   7              		.globl	_ZN3TCB4ctorEPv
   9              	_ZN3TCB4ctorEPv:
  10              	.LFB55:
  11              		.file 1 "src/kernel/tcb.cpp"
   1:src/kernel/tcb.cpp **** //
   2:src/kernel/tcb.cpp **** // Created by os on 5/18/22.
   3:src/kernel/tcb.cpp **** //
   4:src/kernel/tcb.cpp **** 
   5:src/kernel/tcb.cpp **** #include "../../h/tcb.hpp"
   6:src/kernel/tcb.cpp **** #include "../../h/memoryAllocator.hpp"
   7:src/kernel/tcb.cpp **** #include "../../h/scheduler.hpp"
   8:src/kernel/tcb.cpp **** #include "../../h/syscall_c.h"
   9:src/kernel/tcb.cpp **** #include "../../h/printing.hpp"
  10:src/kernel/tcb.cpp **** #include "../../h/riscv.hpp"
  11:src/kernel/tcb.cpp **** #include "../../h/tcbWrapperUtil.hpp"
  12:src/kernel/tcb.cpp **** 
  13:src/kernel/tcb.cpp **** TCB* TCB::running = nullptr;
  14:src/kernel/tcb.cpp **** 
  15:src/kernel/tcb.cpp **** TCB* TCB::putcThread = nullptr;
  16:src/kernel/tcb.cpp **** 
  17:src/kernel/tcb.cpp **** uint64 TCB::currentPC = 0;
  18:src/kernel/tcb.cpp **** 
  19:src/kernel/tcb.cpp **** uint64 TCB::currentSP = 0;
  20:src/kernel/tcb.cpp **** 
  21:src/kernel/tcb.cpp **** uint64 TCB::timeSliceCounter = 0;
  22:src/kernel/tcb.cpp **** 
  23:src/kernel/tcb.cpp **** kmem_cache_t* TCB::tcbCache = nullptr;
  24:src/kernel/tcb.cpp **** 
  25:src/kernel/tcb.cpp **** 
  26:src/kernel/tcb.cpp **** //create a thread for kernel main and a separate thread for console output execution
  27:src/kernel/tcb.cpp **** void TCB::initialize() {
  28:src/kernel/tcb.cpp **** 
  29:src/kernel/tcb.cpp ****     TCB::tcbCache = kmem_cache_create("TCB Cache", sizeof(TCB), TCB::ctor, TCB::dtor);
  30:src/kernel/tcb.cpp **** 
  31:src/kernel/tcb.cpp ****     TCB::running = new TCB(nullptr, nullptr, nullptr, DEFAULT_TIME_SLICE);
  32:src/kernel/tcb.cpp **** 
  33:src/kernel/tcb.cpp ****     TCB::running->mode = Mode::SUPERVISOR;
  34:src/kernel/tcb.cpp ****     //stack for thread that will be running console output
  35:src/kernel/tcb.cpp ****     uint64 *putcStack = (uint64*)kmalloc(DEFAULT_STACK_SIZE);
  36:src/kernel/tcb.cpp **** 
  37:src/kernel/tcb.cpp ****     //console output thread
  38:src/kernel/tcb.cpp ****     putcThread = new TCB(RiscV::putcWrapper, nullptr, putcStack, DEFAULT_TIME_SLICE);
  39:src/kernel/tcb.cpp **** 
  40:src/kernel/tcb.cpp ****     putcThread->mode = Mode::SUPERVISOR;
  41:src/kernel/tcb.cpp ****     //putcThread->context.ra = (uint64)RiscV::putcWrapper;
  42:src/kernel/tcb.cpp **** 
  43:src/kernel/tcb.cpp ****     Scheduler::put(putcThread);
  44:src/kernel/tcb.cpp **** }
  45:src/kernel/tcb.cpp **** 
  46:src/kernel/tcb.cpp **** //tcb constructor
  47:src/kernel/tcb.cpp **** TCB::TCB(Body body, void* args, uint64* stack, uint64 timeSlice){
GAS LISTING /tmp/ccWQkNkt.s 			page 2


  48:src/kernel/tcb.cpp **** 
  49:src/kernel/tcb.cpp ****     this->body = body;
  50:src/kernel/tcb.cpp **** 
  51:src/kernel/tcb.cpp ****     this->args = args;
  52:src/kernel/tcb.cpp **** 
  53:src/kernel/tcb.cpp ****     this->timeSlice = timeSlice;
  54:src/kernel/tcb.cpp **** 
  55:src/kernel/tcb.cpp ****     this->stack = (body == nullptr) ? nullptr : stack;
  56:src/kernel/tcb.cpp **** 
  57:src/kernel/tcb.cpp ****     //initial context for thread
  58:src/kernel/tcb.cpp ****     this->context = {(body == nullptr) ? 0 : (uint64)((char*)stack + DEFAULT_STACK_SIZE),
  59:src/kernel/tcb.cpp ****                      (uint64)&wrapper };
  60:src/kernel/tcb.cpp **** }
  61:src/kernel/tcb.cpp **** 
  62:src/kernel/tcb.cpp **** //deallocate memory for thread stack
  63:src/kernel/tcb.cpp **** void TCB::free(){
  64:src/kernel/tcb.cpp ****     kfree(stack);
  65:src/kernel/tcb.cpp **** }
  66:src/kernel/tcb.cpp **** 
  67:src/kernel/tcb.cpp **** TCB::~TCB(){
  68:src/kernel/tcb.cpp ****     free();
  69:src/kernel/tcb.cpp **** }
  70:src/kernel/tcb.cpp **** 
  71:src/kernel/tcb.cpp **** //if currently running thread is not finished, asleep or blocked, put it in scheduler
  72:src/kernel/tcb.cpp **** //get new thread from scheduler and switch context
  73:src/kernel/tcb.cpp **** void TCB::dispatch() {
  74:src/kernel/tcb.cpp ****     TCB* old = running;
  75:src/kernel/tcb.cpp **** 
  76:src/kernel/tcb.cpp ****     if(old->status == Status::READY || old->status == Status::RUNNING) {
  77:src/kernel/tcb.cpp ****         Scheduler::put(old);
  78:src/kernel/tcb.cpp ****     }
  79:src/kernel/tcb.cpp **** 
  80:src/kernel/tcb.cpp ****     running = Scheduler::get();
  81:src/kernel/tcb.cpp **** 
  82:src/kernel/tcb.cpp ****     if(running) {
  83:src/kernel/tcb.cpp ****         running->status = Status::RUNNING;
  84:src/kernel/tcb.cpp ****         RiscV::jumpToDesignatedPrivilegeMode();
  85:src/kernel/tcb.cpp ****         contextSwitch(&old->context, &running->context);
  86:src/kernel/tcb.cpp ****     }
  87:src/kernel/tcb.cpp **** }
  88:src/kernel/tcb.cpp **** 
  89:src/kernel/tcb.cpp **** //wrapper function to run body function
  90:src/kernel/tcb.cpp **** void TCB::wrapper(void *args) {
  91:src/kernel/tcb.cpp ****     RiscV::popSppSpie();
  92:src/kernel/tcb.cpp **** 
  93:src/kernel/tcb.cpp ****     //running->body(running->args);
  94:src/kernel/tcb.cpp ****     //thread_exit();
  95:src/kernel/tcb.cpp ****     TCBWrapper::tcbWrap(running);
  96:src/kernel/tcb.cpp **** 
  97:src/kernel/tcb.cpp ****     //running->body(running->args);
  98:src/kernel/tcb.cpp **** 
  99:src/kernel/tcb.cpp ****     //thread_exit();
 100:src/kernel/tcb.cpp **** }
 101:src/kernel/tcb.cpp **** 
 102:src/kernel/tcb.cpp **** //overload operator new, to not use system call for every kernel object that is being allocated
 103:src/kernel/tcb.cpp **** void* TCB::operator new(size_t size){
 104:src/kernel/tcb.cpp ****     return kmem_cache_alloc(TCB::tcbCache);
GAS LISTING /tmp/ccWQkNkt.s 			page 3


 105:src/kernel/tcb.cpp **** }
 106:src/kernel/tcb.cpp **** 
 107:src/kernel/tcb.cpp **** //overload operator delete, to not use system call for every kernel object that is being deallocate
 108:src/kernel/tcb.cpp **** void TCB::operator delete(void *addr){
 109:src/kernel/tcb.cpp ****     kmem_cache_free(TCB::tcbCache, addr);
 110:src/kernel/tcb.cpp **** }
 111:src/kernel/tcb.cpp **** 
 112:src/kernel/tcb.cpp **** //internal syscall to free space allocated to a thread
 113:src/kernel/tcb.cpp **** int TCB::thread_free(void *addr) {
 114:src/kernel/tcb.cpp ****     uint64 iptr = (uint64)addr;
 115:src/kernel/tcb.cpp **** 
 116:src/kernel/tcb.cpp ****     asm("mv a1, %[iptr]" : : [iptr] "r" (iptr));
 117:src/kernel/tcb.cpp ****     asm("li a0, 0x51");
 118:src/kernel/tcb.cpp ****     asm("ecall");
 119:src/kernel/tcb.cpp **** 
 120:src/kernel/tcb.cpp ****     uint64 status;
 121:src/kernel/tcb.cpp **** 
 122:src/kernel/tcb.cpp ****     asm("mv %[status], a0" : [status] "=r" (status));
 123:src/kernel/tcb.cpp ****     return status;
 124:src/kernel/tcb.cpp **** }
 125:src/kernel/tcb.cpp **** 
 126:src/kernel/tcb.cpp **** void TCB::ctor(void* tcb){
  12              		.loc 1 126 26
  13              		.cfi_startproc
  14              	.LVL0:
  15 0000 130101FF 		addi	sp,sp,-16
  16              		.cfi_def_cfa_offset 16
  17 0004 23348100 		sd	s0,8(sp)
  18              		.cfi_offset 8, -8
  19 0008 13040101 		addi	s0,sp,16
  20              		.cfi_def_cfa 8, 0
 127:src/kernel/tcb.cpp ****     ((TCB*)tcb)->status = Status::READY;
  21              		.loc 1 127 5
  22              		.loc 1 127 25 is_stmt 0
  23 000c 93071000 		li	a5,1
  24 0010 2328F500 		sw	a5,16(a0)
 128:src/kernel/tcb.cpp **** 
 129:src/kernel/tcb.cpp ****     ((TCB*)tcb)->next = nullptr;
  25              		.loc 1 129 5 is_stmt 1
  26              		.loc 1 129 23 is_stmt 0
  27 0014 23340504 		sd	zero,72(a0)
 130:src/kernel/tcb.cpp **** 
 131:src/kernel/tcb.cpp ****     ((TCB*)tcb)->mode = Mode::USER;
  28              		.loc 1 131 5 is_stmt 1
  29              		.loc 1 131 23 is_stmt 0
  30 0018 232A0500 		sw	zero,20(a0)
 132:src/kernel/tcb.cpp **** }
  31              		.loc 1 132 1
  32 001c 03348100 		ld	s0,8(sp)
  33              		.cfi_restore 8
  34              		.cfi_def_cfa 2, 16
  35 0020 13010101 		addi	sp,sp,16
  36              		.cfi_def_cfa_offset 0
  37 0024 67800000 		jr	ra
  38              		.cfi_endproc
  39              	.LFE55:
  41              		.align	2
GAS LISTING /tmp/ccWQkNkt.s 			page 4


  42              		.globl	_ZN3TCB4dtorEPv
  44              	_ZN3TCB4dtorEPv:
  45              	.LFB56:
 133:src/kernel/tcb.cpp **** 
 134:src/kernel/tcb.cpp **** void TCB::dtor(void* tcb){
  46              		.loc 1 134 26 is_stmt 1
  47              		.cfi_startproc
  48              	.LVL1:
  49 0028 130101FF 		addi	sp,sp,-16
  50              		.cfi_def_cfa_offset 16
  51 002c 23348100 		sd	s0,8(sp)
  52              		.cfi_offset 8, -8
  53 0030 13040101 		addi	s0,sp,16
  54              		.cfi_def_cfa 8, 0
 135:src/kernel/tcb.cpp ****     ((TCB*)tcb)->status = Status::READY;
  55              		.loc 1 135 5
  56              		.loc 1 135 25 is_stmt 0
  57 0034 93071000 		li	a5,1
  58 0038 2328F500 		sw	a5,16(a0)
 136:src/kernel/tcb.cpp **** 
 137:src/kernel/tcb.cpp ****     ((TCB*)tcb)->next = nullptr;
  59              		.loc 1 137 5 is_stmt 1
  60              		.loc 1 137 23 is_stmt 0
  61 003c 23340504 		sd	zero,72(a0)
 138:src/kernel/tcb.cpp **** 
 139:src/kernel/tcb.cpp ****     ((TCB*)tcb)->mode = Mode::USER;
  62              		.loc 1 139 5 is_stmt 1
  63              		.loc 1 139 23 is_stmt 0
  64 0040 232A0500 		sw	zero,20(a0)
 140:src/kernel/tcb.cpp **** }...
  65              		.loc 1 140 1
  66 0044 03348100 		ld	s0,8(sp)
  67              		.cfi_restore 8
  68              		.cfi_def_cfa 2, 16
  69 0048 13010101 		addi	sp,sp,16
  70              		.cfi_def_cfa_offset 0
  71 004c 67800000 		jr	ra
  72              		.cfi_endproc
  73              	.LFE56:
  75              		.align	2
  76              		.globl	_ZN3TCB7wrapperEPv
  78              	_ZN3TCB7wrapperEPv:
  79              	.LFB51:
  90:src/kernel/tcb.cpp **** void TCB::wrapper(void *args) {
  80              		.loc 1 90 31 is_stmt 1
  81              		.cfi_startproc
  82              	.LVL2:
  83 0050 130101FF 		addi	sp,sp,-16
  84              		.cfi_def_cfa_offset 16
  85 0054 23341100 		sd	ra,8(sp)
  86 0058 23308100 		sd	s0,0(sp)
  87              		.cfi_offset 1, -8
  88              		.cfi_offset 8, -16
  89 005c 13040101 		addi	s0,sp,16
  90              		.cfi_def_cfa 8, 0
  91:src/kernel/tcb.cpp ****     RiscV::popSppSpie();
  91              		.loc 1 91 5
GAS LISTING /tmp/ccWQkNkt.s 			page 5


  91:src/kernel/tcb.cpp ****     RiscV::popSppSpie();
  92              		.loc 1 91 22 is_stmt 0
  93 0060 97000000 		call	_ZN5RiscV10popSppSpieEv@plt
  93      E7800000 
  94              	.LVL3:
  95:src/kernel/tcb.cpp ****     TCBWrapper::tcbWrap(running);
  95              		.loc 1 95 5 is_stmt 1
  95:src/kernel/tcb.cpp ****     TCBWrapper::tcbWrap(running);
  96              		.loc 1 95 24 is_stmt 0
  97 0068 17050000 		ld	a0,.LANCHOR0
  97      03350500 
  98 0070 97000000 		call	_ZN10TCBWrapper7tcbWrapEP3TCB@plt
  98      E7800000 
  99              	.LVL4:
 100:src/kernel/tcb.cpp **** }
 100              		.loc 1 100 1
 101 0078 83308100 		ld	ra,8(sp)
 102              		.cfi_restore 1
 103 007c 03340100 		ld	s0,0(sp)
 104              		.cfi_restore 8
 105              		.cfi_def_cfa 2, 16
 106 0080 13010101 		addi	sp,sp,16
 107              		.cfi_def_cfa_offset 0
 108 0084 67800000 		jr	ra
 109              		.cfi_endproc
 110              	.LFE51:
 112              		.align	2
 113              		.globl	_ZN3TCBC2EPFvPvES0_Pmm
 115              	_ZN3TCBC2EPFvPvES0_Pmm:
 116              	.LFB44:
  47:src/kernel/tcb.cpp **** TCB::TCB(Body body, void* args, uint64* stack, uint64 timeSlice){
 117              		.loc 1 47 1 is_stmt 1
 118              		.cfi_startproc
 119              	.LVL5:
 120 0088 130101FF 		addi	sp,sp,-16
 121              		.cfi_def_cfa_offset 16
 122 008c 23348100 		sd	s0,8(sp)
 123              		.cfi_offset 8, -8
 124 0090 13040101 		addi	s0,sp,16
 125              		.cfi_def_cfa 8, 0
 126              	.LBB2:
  47:src/kernel/tcb.cpp **** TCB::TCB(Body body, void* args, uint64* stack, uint64 timeSlice){
 127              		.loc 1 47 64 is_stmt 0
 128 0094 23380504 		sd	zero,80(a0)
 129 0098 233C0504 		sd	zero,88(a0)
 130 009c 23300506 		sd	zero,96(a0)
  49:src/kernel/tcb.cpp ****     this->body = body;
 131              		.loc 1 49 5 is_stmt 1
  49:src/kernel/tcb.cpp ****     this->body = body;
 132              		.loc 1 49 16 is_stmt 0
 133 00a0 233CB500 		sd	a1,24(a0)
  51:src/kernel/tcb.cpp ****     this->args = args;
 134              		.loc 1 51 5 is_stmt 1
  51:src/kernel/tcb.cpp ****     this->args = args;
 135              		.loc 1 51 16 is_stmt 0
 136 00a4 2330C502 		sd	a2,32(a0)
  53:src/kernel/tcb.cpp ****     this->timeSlice = timeSlice;
GAS LISTING /tmp/ccWQkNkt.s 			page 6


 137              		.loc 1 53 5 is_stmt 1
  53:src/kernel/tcb.cpp ****     this->timeSlice = timeSlice;
 138              		.loc 1 53 21 is_stmt 0
 139 00a8 2338E502 		sd	a4,48(a0)
  55:src/kernel/tcb.cpp ****     this->stack = (body == nullptr) ? nullptr : stack;
 140              		.loc 1 55 5 is_stmt 1
  55:src/kernel/tcb.cpp ****     this->stack = (body == nullptr) ? nullptr : stack;
 141              		.loc 1 55 37 is_stmt 0
 142 00ac 638A0502 		beqz	a1,.L10
 143 00b0 93870600 		mv	a5,a3
 144              	.L8:
  55:src/kernel/tcb.cpp ****     this->stack = (body == nullptr) ? nullptr : stack;
 145              		.loc 1 55 17 discriminator 4
 146 00b4 2334F502 		sd	a5,40(a0)
  58:src/kernel/tcb.cpp ****     this->context = {(body == nullptr) ? 0 : (uint64)((char*)stack + DEFAULT_STACK_SIZE),
 147              		.loc 1 58 5 is_stmt 1 discriminator 4
  58:src/kernel/tcb.cpp ****     this->context = {(body == nullptr) ? 0 : (uint64)((char*)stack + DEFAULT_STACK_SIZE),
 148              		.loc 1 58 40 is_stmt 0 discriminator 4
 149 00b8 63880502 		beqz	a1,.L11
  58:src/kernel/tcb.cpp ****     this->context = {(body == nullptr) ? 0 : (uint64)((char*)stack + DEFAULT_STACK_SIZE),
 150              		.loc 1 58 68 discriminator 1
 151 00bc B7170000 		li	a5,4096
 152 00c0 B386F600 		add	a3,a3,a5
 153              	.LVL6:
 154              	.L9:
  58:src/kernel/tcb.cpp ****     this->context = {(body == nullptr) ? 0 : (uint64)((char*)stack + DEFAULT_STACK_SIZE),
 155              		.loc 1 58 19 discriminator 4
 156 00c4 2330D500 		sd	a3,0(a0)
 157 00c8 97070000 		lla	a5,_ZN3TCB7wrapperEPv
 157      93870700 
 158 00d0 2334F500 		sd	a5,8(a0)
 159              	.LBE2:
  60:src/kernel/tcb.cpp **** }
 160              		.loc 1 60 1 discriminator 4
 161 00d4 03348100 		ld	s0,8(sp)
 162              		.cfi_remember_state
 163              		.cfi_restore 8
 164              		.cfi_def_cfa 2, 16
 165 00d8 13010101 		addi	sp,sp,16
 166              		.cfi_def_cfa_offset 0
 167 00dc 67800000 		jr	ra
 168              	.LVL7:
 169              	.L10:
 170              		.cfi_restore_state
 171              	.LBB3:
  55:src/kernel/tcb.cpp ****     this->stack = (body == nullptr) ? nullptr : stack;
 172              		.loc 1 55 37
 173 00e0 93070000 		li	a5,0
 174 00e4 6FF01FFD 		j	.L8
 175              	.L11:
  58:src/kernel/tcb.cpp ****     this->context = {(body == nullptr) ? 0 : (uint64)((char*)stack + DEFAULT_STACK_SIZE),
 176              		.loc 1 58 40
 177 00e8 93060000 		li	a3,0
 178              	.LVL8:
 179 00ec 6FF09FFD 		j	.L9
 180              	.LBE3:
 181              		.cfi_endproc
GAS LISTING /tmp/ccWQkNkt.s 			page 7


 182              	.LFE44:
 184              		.globl	_ZN3TCBC1EPFvPvES0_Pmm
 185              		.set	_ZN3TCBC1EPFvPvES0_Pmm,_ZN3TCBC2EPFvPvES0_Pmm
 186              		.align	2
 187              		.globl	_ZN3TCB4freeEv
 189              	_ZN3TCB4freeEv:
 190              	.LFB46:
  63:src/kernel/tcb.cpp **** void TCB::free(){
 191              		.loc 1 63 17 is_stmt 1
 192              		.cfi_startproc
 193              	.LVL9:
 194 00f0 130101FF 		addi	sp,sp,-16
 195              		.cfi_def_cfa_offset 16
 196 00f4 23341100 		sd	ra,8(sp)
 197 00f8 23308100 		sd	s0,0(sp)
 198              		.cfi_offset 1, -8
 199              		.cfi_offset 8, -16
 200 00fc 13040101 		addi	s0,sp,16
 201              		.cfi_def_cfa 8, 0
  64:src/kernel/tcb.cpp ****     kfree(stack);
 202              		.loc 1 64 5
  64:src/kernel/tcb.cpp ****     kfree(stack);
 203              		.loc 1 64 10 is_stmt 0
 204 0100 03358502 		ld	a0,40(a0)
 205              	.LVL10:
 206 0104 97000000 		call	_Z5kfreePKv@plt
 206      E7800000 
 207              	.LVL11:
  65:src/kernel/tcb.cpp **** }
 208              		.loc 1 65 1
 209 010c 83308100 		ld	ra,8(sp)
 210              		.cfi_restore 1
 211 0110 03340100 		ld	s0,0(sp)
 212              		.cfi_restore 8
 213              		.cfi_def_cfa 2, 16
 214 0114 13010101 		addi	sp,sp,16
 215              		.cfi_def_cfa_offset 0
 216 0118 67800000 		jr	ra
 217              		.cfi_endproc
 218              	.LFE46:
 220              		.align	2
 221              		.globl	_ZN3TCBD2Ev
 223              	_ZN3TCBD2Ev:
 224              	.LFB48:
  67:src/kernel/tcb.cpp **** TCB::~TCB(){
 225              		.loc 1 67 1 is_stmt 1
 226              		.cfi_startproc
 227              		.cfi_personality 0x9b,DW.ref.__gxx_personality_v0
 228              		.cfi_lsda 0x1b,.LLSDA48
 229              	.LVL12:
 230 011c 130101FF 		addi	sp,sp,-16
 231              		.cfi_def_cfa_offset 16
 232 0120 23341100 		sd	ra,8(sp)
 233 0124 23308100 		sd	s0,0(sp)
 234              		.cfi_offset 1, -8
 235              		.cfi_offset 8, -16
 236 0128 13040101 		addi	s0,sp,16
GAS LISTING /tmp/ccWQkNkt.s 			page 8


 237              		.cfi_def_cfa 8, 0
 238              	.LBB4:
  68:src/kernel/tcb.cpp ****     free();
 239              		.loc 1 68 5
  68:src/kernel/tcb.cpp ****     free();
 240              		.loc 1 68 9 is_stmt 0
 241 012c 97000000 		call	_ZN3TCB4freeEv
 241      E7800000 
 242              	.LVL13:
 243              	.LBE4:
  69:src/kernel/tcb.cpp **** }
 244              		.loc 1 69 1
 245 0134 83308100 		ld	ra,8(sp)
 246              		.cfi_restore 1
 247 0138 03340100 		ld	s0,0(sp)
 248              		.cfi_restore 8
 249              		.cfi_def_cfa 2, 16
 250 013c 13010101 		addi	sp,sp,16
 251              		.cfi_def_cfa_offset 0
 252 0140 67800000 		jr	ra
 253              		.cfi_endproc
 254              	.LFE48:
 255              		.globl	__gxx_personality_v0
 256              		.section	.gcc_except_table,"a",@progbits
 257              	.LLSDA48:
 258 0000 FF       		.byte	0xff
 259 0001 FF       		.byte	0xff
 260 0002 03       		.byte	0x3
 261 0003 00       		.byte	0
 262              		.text
 264              		.globl	_ZN3TCBD1Ev
 265              		.set	_ZN3TCBD1Ev,_ZN3TCBD2Ev
 266              		.align	2
 267              		.globl	_ZN3TCB8dispatchEv
 269              	_ZN3TCB8dispatchEv:
 270              	.LFB50:
  73:src/kernel/tcb.cpp **** void TCB::dispatch() {
 271              		.loc 1 73 22 is_stmt 1
 272              		.cfi_startproc
 273 0144 130101FE 		addi	sp,sp,-32
 274              		.cfi_def_cfa_offset 32
 275 0148 233C1100 		sd	ra,24(sp)
 276 014c 23388100 		sd	s0,16(sp)
 277 0150 23349100 		sd	s1,8(sp)
 278              		.cfi_offset 1, -8
 279              		.cfi_offset 8, -16
 280              		.cfi_offset 9, -24
 281 0154 13040102 		addi	s0,sp,32
 282              		.cfi_def_cfa 8, 0
  74:src/kernel/tcb.cpp ****     TCB* old = running;
 283              		.loc 1 74 5
  74:src/kernel/tcb.cpp ****     TCB* old = running;
 284              		.loc 1 74 10 is_stmt 0
 285 0158 97040000 		ld	s1,.LANCHOR0
 285      83B40400 
 286              	.LVL14:
  76:src/kernel/tcb.cpp ****     if(old->status == Status::READY || old->status == Status::RUNNING) {
GAS LISTING /tmp/ccWQkNkt.s 			page 9


 287              		.loc 1 76 5 is_stmt 1
  76:src/kernel/tcb.cpp ****     if(old->status == Status::READY || old->status == Status::RUNNING) {
 288              		.loc 1 76 13 is_stmt 0
 289 0160 03A70401 		lw	a4,16(s1)
  76:src/kernel/tcb.cpp ****     if(old->status == Status::READY || old->status == Status::RUNNING) {
 290              		.loc 1 76 5
 291 0164 93071000 		li	a5,1
 292 0168 63F6E704 		bleu	a4,a5,.L21
 293              	.L18:
  80:src/kernel/tcb.cpp ****     running = Scheduler::get();
 294              		.loc 1 80 5 is_stmt 1
  80:src/kernel/tcb.cpp ****     running = Scheduler::get();
 295              		.loc 1 80 29 is_stmt 0
 296 016c 97000000 		call	_ZN9Scheduler3getEv@plt
 296      E7800000 
 297              	.LVL15:
  80:src/kernel/tcb.cpp ****     running = Scheduler::get();
 298              		.loc 1 80 13
 299 0174 97070000 		sd	a0,.LANCHOR0,a5
 299      23B0A700 
  82:src/kernel/tcb.cpp ****     if(running) {
 300              		.loc 1 82 5 is_stmt 1
 301 017c 63020502 		beqz	a0,.L17
  83:src/kernel/tcb.cpp ****         running->status = Status::RUNNING;
 302              		.loc 1 83 9
  83:src/kernel/tcb.cpp ****         running->status = Status::RUNNING;
 303              		.loc 1 83 25 is_stmt 0
 304 0180 23280500 		sw	zero,16(a0)
  84:src/kernel/tcb.cpp ****         RiscV::jumpToDesignatedPrivilegeMode();
 305              		.loc 1 84 9 is_stmt 1
  84:src/kernel/tcb.cpp ****         RiscV::jumpToDesignatedPrivilegeMode();
 306              		.loc 1 84 45 is_stmt 0
 307 0184 97000000 		call	_ZN5RiscV29jumpToDesignatedPrivilegeModeEv@plt
 307      E7800000 
 308              	.LVL16:
  85:src/kernel/tcb.cpp ****         contextSwitch(&old->context, &running->context);
 309              		.loc 1 85 9 is_stmt 1
  85:src/kernel/tcb.cpp ****         contextSwitch(&old->context, &running->context);
 310              		.loc 1 85 22 is_stmt 0
 311 018c 97050000 		ld	a1,.LANCHOR0
 311      83B50500 
 312 0194 13850400 		mv	a0,s1
 313 0198 97000000 		call	_ZN3TCB13contextSwitchEPNS_7ContextES1_@plt
 313      E7800000 
 314              	.LVL17:
 315              	.L17:
  87:src/kernel/tcb.cpp **** }
 316              		.loc 1 87 1
 317 01a0 83308101 		ld	ra,24(sp)
 318              		.cfi_remember_state
 319              		.cfi_restore 1
 320 01a4 03340101 		ld	s0,16(sp)
 321              		.cfi_restore 8
 322              		.cfi_def_cfa 2, 32
 323 01a8 83348100 		ld	s1,8(sp)
 324              		.cfi_restore 9
 325              	.LVL18:
GAS LISTING /tmp/ccWQkNkt.s 			page 10


 326 01ac 13010102 		addi	sp,sp,32
 327              		.cfi_def_cfa_offset 0
 328 01b0 67800000 		jr	ra
 329              	.LVL19:
 330              	.L21:
 331              		.cfi_restore_state
  77:src/kernel/tcb.cpp ****         Scheduler::put(old);
 332              		.loc 1 77 9 is_stmt 1
  77:src/kernel/tcb.cpp ****         Scheduler::put(old);
 333              		.loc 1 77 23 is_stmt 0
 334 01b4 13850400 		mv	a0,s1
 335 01b8 97000000 		call	_ZN9Scheduler3putEP3TCB@plt
 335      E7800000 
 336              	.LVL20:
 337 01c0 6FF0DFFA 		j	.L18
 338              		.cfi_endproc
 339              	.LFE50:
 341              		.align	2
 342              		.globl	_ZN3TCBnwEm
 344              	_ZN3TCBnwEm:
 345              	.LFB52:
 103:src/kernel/tcb.cpp **** void* TCB::operator new(size_t size){
 346              		.loc 1 103 37 is_stmt 1
 347              		.cfi_startproc
 348              	.LVL21:
 349 01c4 130101FF 		addi	sp,sp,-16
 350              		.cfi_def_cfa_offset 16
 351 01c8 23341100 		sd	ra,8(sp)
 352 01cc 23308100 		sd	s0,0(sp)
 353              		.cfi_offset 1, -8
 354              		.cfi_offset 8, -16
 355 01d0 13040101 		addi	s0,sp,16
 356              		.cfi_def_cfa 8, 0
 104:src/kernel/tcb.cpp ****     return kmem_cache_alloc(TCB::tcbCache);
 357              		.loc 1 104 5
 104:src/kernel/tcb.cpp ****     return kmem_cache_alloc(TCB::tcbCache);
 358              		.loc 1 104 28 is_stmt 0
 359 01d4 17050000 		ld	a0,.LANCHOR0+8
 359      03350500 
 360              	.LVL22:
 361 01dc 97000000 		call	_Z16kmem_cache_allocP5Cache@plt
 361      E7800000 
 362              	.LVL23:
 105:src/kernel/tcb.cpp **** }
 363              		.loc 1 105 1
 364 01e4 83308100 		ld	ra,8(sp)
 365              		.cfi_restore 1
 366 01e8 03340100 		ld	s0,0(sp)
 367              		.cfi_restore 8
 368              		.cfi_def_cfa 2, 16
 369 01ec 13010101 		addi	sp,sp,16
 370              		.cfi_def_cfa_offset 0
 371 01f0 67800000 		jr	ra
 372              		.cfi_endproc
 373              	.LFE52:
 375              		.section	.rodata.str1.8,"aMS",@progbits,1
 376              		.align	3
GAS LISTING /tmp/ccWQkNkt.s 			page 11


 377              	.LC0:
 378 0000 54434220 		.string	"TCB Cache"
 378      43616368 
 378      6500
 379              		.text
 380              		.align	2
 381              		.globl	_ZN3TCB10initializeEv
 383              	_ZN3TCB10initializeEv:
 384              	.LFB42:
  27:src/kernel/tcb.cpp **** void TCB::initialize() {
 385              		.loc 1 27 24 is_stmt 1
 386              		.cfi_startproc
 387 01f4 130101FE 		addi	sp,sp,-32
 388              		.cfi_def_cfa_offset 32
 389 01f8 233C1100 		sd	ra,24(sp)
 390 01fc 23388100 		sd	s0,16(sp)
 391 0200 23349100 		sd	s1,8(sp)
 392 0204 23302101 		sd	s2,0(sp)
 393              		.cfi_offset 1, -8
 394              		.cfi_offset 8, -16
 395              		.cfi_offset 9, -24
 396              		.cfi_offset 18, -32
 397 0208 13040102 		addi	s0,sp,32
 398              		.cfi_def_cfa 8, 0
  29:src/kernel/tcb.cpp ****     TCB::tcbCache = kmem_cache_create("TCB Cache", sizeof(TCB), TCB::ctor, TCB::dtor);
 399              		.loc 1 29 5
  29:src/kernel/tcb.cpp ****     TCB::tcbCache = kmem_cache_create("TCB Cache", sizeof(TCB), TCB::ctor, TCB::dtor);
 400              		.loc 1 29 38 is_stmt 0
 401 020c 97060000 		lla	a3,_ZN3TCB4dtorEPv
 401      93860600 
 402 0214 17060000 		lla	a2,_ZN3TCB4ctorEPv
 402      13060600 
 403 021c 93050007 		li	a1,112
 404 0220 17050000 		lla	a0,.LC0
 404      13050500 
 405 0228 97000000 		call	_Z17kmem_cache_createPKcmPFvPvES3_@plt
 405      E7800000 
 406              	.LVL24:
  29:src/kernel/tcb.cpp ****     TCB::tcbCache = kmem_cache_create("TCB Cache", sizeof(TCB), TCB::ctor, TCB::dtor);
 407              		.loc 1 29 19
 408 0230 97070000 		sd	a0,.LANCHOR0+8,a5
 408      23B0A700 
  31:src/kernel/tcb.cpp ****     TCB::running = new TCB(nullptr, nullptr, nullptr, DEFAULT_TIME_SLICE);
 409              		.loc 1 31 5 is_stmt 1
  31:src/kernel/tcb.cpp ****     TCB::running = new TCB(nullptr, nullptr, nullptr, DEFAULT_TIME_SLICE);
 410              		.loc 1 31 73 is_stmt 0
 411 0238 13050007 		li	a0,112
 412 023c 97000000 		call	_ZN3TCBnwEm
 412      E7800000 
 413              	.LVL25:
 414 0244 93040500 		mv	s1,a0
 415 0248 630E0500 		beqz	a0,.L25
  31:src/kernel/tcb.cpp ****     TCB::running = new TCB(nullptr, nullptr, nullptr, DEFAULT_TIME_SLICE);
 416              		.loc 1 31 73 discriminator 1
 417 024c 13072000 		li	a4,2
 418 0250 93060000 		li	a3,0
 419 0254 13060000 		li	a2,0
GAS LISTING /tmp/ccWQkNkt.s 			page 12


 420 0258 93050000 		li	a1,0
 421 025c 97000000 		call	_ZN3TCBC1EPFvPvES0_Pmm
 421      E7800000 
 422              	.LVL26:
 423              	.L25:
  31:src/kernel/tcb.cpp ****     TCB::running = new TCB(nullptr, nullptr, nullptr, DEFAULT_TIME_SLICE);
 424              		.loc 1 31 18 discriminator 4
 425 0264 97070000 		sd	s1,.LANCHOR0,a5
 425      23B09700 
  33:src/kernel/tcb.cpp ****     TCB::running->mode = Mode::SUPERVISOR;
 426              		.loc 1 33 5 is_stmt 1 discriminator 4
  33:src/kernel/tcb.cpp ****     TCB::running->mode = Mode::SUPERVISOR;
 427              		.loc 1 33 24 is_stmt 0 discriminator 4
 428 026c 93071000 		li	a5,1
 429 0270 23AAF400 		sw	a5,20(s1)
  35:src/kernel/tcb.cpp ****     uint64 *putcStack = (uint64*)kmalloc(DEFAULT_STACK_SIZE);
 430              		.loc 1 35 5 is_stmt 1 discriminator 4
  35:src/kernel/tcb.cpp ****     uint64 *putcStack = (uint64*)kmalloc(DEFAULT_STACK_SIZE);
 431              		.loc 1 35 41 is_stmt 0 discriminator 4
 432 0274 37150000 		li	a0,4096
 433 0278 97000000 		call	_Z7kmallocm@plt
 433      E7800000 
 434              	.LVL27:
 435 0280 13090500 		mv	s2,a0
 436              	.LVL28:
  38:src/kernel/tcb.cpp ****     putcThread = new TCB(RiscV::putcWrapper, nullptr, putcStack, DEFAULT_TIME_SLICE);
 437              		.loc 1 38 5 is_stmt 1 discriminator 4
  38:src/kernel/tcb.cpp ****     putcThread = new TCB(RiscV::putcWrapper, nullptr, putcStack, DEFAULT_TIME_SLICE);
 438              		.loc 1 38 84 is_stmt 0 discriminator 4
 439 0284 13050007 		li	a0,112
 440              	.LVL29:
 441 0288 97000000 		call	_ZN3TCBnwEm
 441      E7800000 
 442              	.LVL30:
 443 0290 93040500 		mv	s1,a0
 444 0294 63000502 		beqz	a0,.L26
  38:src/kernel/tcb.cpp ****     putcThread = new TCB(RiscV::putcWrapper, nullptr, putcStack, DEFAULT_TIME_SLICE);
 445              		.loc 1 38 84 discriminator 1
 446 0298 13072000 		li	a4,2
 447 029c 93060900 		mv	a3,s2
 448 02a0 13060000 		li	a2,0
 449 02a4 97050000 		la	a1,_ZN5RiscV11putcWrapperEPv
 449      83B50500 
 450 02ac 97000000 		call	_ZN3TCBC1EPFvPvES0_Pmm
 450      E7800000 
 451              	.LVL31:
 452              	.L26:
  38:src/kernel/tcb.cpp ****     putcThread = new TCB(RiscV::putcWrapper, nullptr, putcStack, DEFAULT_TIME_SLICE);
 453              		.loc 1 38 16 discriminator 4
 454 02b4 97070000 		sd	s1,.LANCHOR0+16,a5
 454      23B09700 
  40:src/kernel/tcb.cpp ****     putcThread->mode = Mode::SUPERVISOR;
 455              		.loc 1 40 5 is_stmt 1 discriminator 4
  40:src/kernel/tcb.cpp ****     putcThread->mode = Mode::SUPERVISOR;
 456              		.loc 1 40 22 is_stmt 0 discriminator 4
 457 02bc 93071000 		li	a5,1
 458 02c0 23AAF400 		sw	a5,20(s1)
GAS LISTING /tmp/ccWQkNkt.s 			page 13


  43:src/kernel/tcb.cpp ****     Scheduler::put(putcThread);
 459              		.loc 1 43 5 is_stmt 1 discriminator 4
  43:src/kernel/tcb.cpp ****     Scheduler::put(putcThread);
 460              		.loc 1 43 19 is_stmt 0 discriminator 4
 461 02c4 13850400 		mv	a0,s1
 462 02c8 97000000 		call	_ZN9Scheduler3putEP3TCB@plt
 462      E7800000 
 463              	.LVL32:
  44:src/kernel/tcb.cpp **** }
 464              		.loc 1 44 1 discriminator 4
 465 02d0 83308101 		ld	ra,24(sp)
 466              		.cfi_restore 1
 467 02d4 03340101 		ld	s0,16(sp)
 468              		.cfi_restore 8
 469              		.cfi_def_cfa 2, 32
 470 02d8 83348100 		ld	s1,8(sp)
 471              		.cfi_restore 9
 472 02dc 03390100 		ld	s2,0(sp)
 473              		.cfi_restore 18
 474              	.LVL33:
 475 02e0 13010102 		addi	sp,sp,32
 476              		.cfi_def_cfa_offset 0
 477 02e4 67800000 		jr	ra
 478              		.cfi_endproc
 479              	.LFE42:
 481              		.align	2
 482              		.globl	_ZN3TCBdlEPv
 484              	_ZN3TCBdlEPv:
 485              	.LFB53:
 108:src/kernel/tcb.cpp **** void TCB::operator delete(void *addr){
 486              		.loc 1 108 38 is_stmt 1
 487              		.cfi_startproc
 488              	.LVL34:
 489 02e8 130101FF 		addi	sp,sp,-16
 490              		.cfi_def_cfa_offset 16
 491 02ec 23341100 		sd	ra,8(sp)
 492 02f0 23308100 		sd	s0,0(sp)
 493              		.cfi_offset 1, -8
 494              		.cfi_offset 8, -16
 495 02f4 13040101 		addi	s0,sp,16
 496              		.cfi_def_cfa 8, 0
 497 02f8 93050500 		mv	a1,a0
 109:src/kernel/tcb.cpp ****     kmem_cache_free(TCB::tcbCache, addr);
 498              		.loc 1 109 5
 109:src/kernel/tcb.cpp ****     kmem_cache_free(TCB::tcbCache, addr);
 499              		.loc 1 109 20 is_stmt 0
 500 02fc 17050000 		ld	a0,.LANCHOR0+8
 500      03350500 
 501              	.LVL35:
 502 0304 97000000 		call	_Z15kmem_cache_freeP5CachePv@plt
 502      E7800000 
 503              	.LVL36:
 110:src/kernel/tcb.cpp **** }
 504              		.loc 1 110 1
 505 030c 83308100 		ld	ra,8(sp)
 506              		.cfi_restore 1
 507 0310 03340100 		ld	s0,0(sp)
GAS LISTING /tmp/ccWQkNkt.s 			page 14


 508              		.cfi_restore 8
 509              		.cfi_def_cfa 2, 16
 510 0314 13010101 		addi	sp,sp,16
 511              		.cfi_def_cfa_offset 0
 512 0318 67800000 		jr	ra
 513              		.cfi_endproc
 514              	.LFE53:
 516              		.align	2
 517              		.globl	_ZN3TCB11thread_freeEPv
 519              	_ZN3TCB11thread_freeEPv:
 520              	.LFB54:
 113:src/kernel/tcb.cpp **** int TCB::thread_free(void *addr) {
 521              		.loc 1 113 34 is_stmt 1
 522              		.cfi_startproc
 523              	.LVL37:
 524 031c 130101FF 		addi	sp,sp,-16
 525              		.cfi_def_cfa_offset 16
 526 0320 23348100 		sd	s0,8(sp)
 527              		.cfi_offset 8, -8
 528 0324 13040101 		addi	s0,sp,16
 529              		.cfi_def_cfa 8, 0
 114:src/kernel/tcb.cpp ****     uint64 iptr = (uint64)addr;
 530              		.loc 1 114 5
 531              	.LVL38:
 116:src/kernel/tcb.cpp ****     asm("mv a1, %[iptr]" : : [iptr] "r" (iptr));
 532              		.loc 1 116 5
 116:src/kernel/tcb.cpp ****     asm("mv a1, %[iptr]" : : [iptr] "r" (iptr));
 533              		.loc 1 116 48 is_stmt 0
 534              	#APP
 535              	# 116 "src/kernel/tcb.cpp" 1
 117:src/kernel/tcb.cpp ****     asm("li a0, 0x51");
 536              		mv a1, a0
 537              	# 0 "" 2
 538              		.loc 1 117 5 is_stmt 1
 117:src/kernel/tcb.cpp ****     asm("li a0, 0x51");
 539              		.loc 1 117 23 is_stmt 0
 540              	# 117 "src/kernel/tcb.cpp" 1
 118:src/kernel/tcb.cpp ****     asm("ecall");
 541              		li a0, 0x51
 542              	# 0 "" 2
 543              		.loc 1 118 5 is_stmt 1
 118:src/kernel/tcb.cpp ****     asm("ecall");
 544              		.loc 1 118 17 is_stmt 0
 545              	# 118 "src/kernel/tcb.cpp" 1
 120:src/kernel/tcb.cpp ****     uint64 status;
 546              		ecall
 547              	# 0 "" 2
 548              		.loc 1 120 5 is_stmt 1
 122:src/kernel/tcb.cpp ****     asm("mv %[status], a0" : [status] "=r" (status));
 549              		.loc 1 122 5
 122:src/kernel/tcb.cpp ****     asm("mv %[status], a0" : [status] "=r" (status));
 550              		.loc 1 122 53 is_stmt 0
 551              	# 122 "src/kernel/tcb.cpp" 1
 552              		mv a0, a0
 553              	# 0 "" 2
 554              	.LVL39:
 123:src/kernel/tcb.cpp ****     return status;
GAS LISTING /tmp/ccWQkNkt.s 			page 15


 555              		.loc 1 123 5 is_stmt 1
 124:src/kernel/tcb.cpp **** }
 556              		.loc 1 124 1 is_stmt 0
 557              	#NO_APP
 558 0338 1B050500 		sext.w	a0,a0
 559              	.LVL40:
 560 033c 03348100 		ld	s0,8(sp)
 561              		.cfi_restore 8
 562              		.cfi_def_cfa 2, 16
 563 0340 13010101 		addi	sp,sp,16
 564              		.cfi_def_cfa_offset 0
 565 0344 67800000 		jr	ra
 566              		.cfi_endproc
 567              	.LFE54:
 569              		.globl	_ZN3TCB8tcbCacheE
 570              		.globl	_ZN3TCB16timeSliceCounterE
 571              		.globl	_ZN3TCB9currentSPE
 572              		.globl	_ZN3TCB9currentPCE
 573              		.globl	_ZN3TCB10putcThreadE
 574              		.globl	_ZN3TCB7runningE
 575              		.bss
 576              		.align	3
 577              		.set	.LANCHOR0,. + 0
 580              	_ZN3TCB7runningE:
 581 0000 00000000 		.zero	8
 581      00000000 
 584              	_ZN3TCB8tcbCacheE:
 585 0008 00000000 		.zero	8
 585      00000000 
 588              	_ZN3TCB10putcThreadE:
 589 0010 00000000 		.zero	8
 589      00000000 
 592              	_ZN3TCB16timeSliceCounterE:
 593 0018 00000000 		.zero	8
 593      00000000 
 596              	_ZN3TCB9currentSPE:
 597 0020 00000000 		.zero	8
 597      00000000 
 600              	_ZN3TCB9currentPCE:
 601 0028 00000000 		.zero	8
 601      00000000 
 602              		.text
 603              	.Letext0:
 604              		.file 2 "src/kernel/../../h/../lib/hw.h"
 605              		.file 3 "src/kernel/../../h/../h/../h/../h/utility.hpp"
 606              		.file 4 "src/kernel/../../h/../h/../h/../h/../h/slab_t.hpp"
 607              		.file 5 "src/kernel/../../h/../h/../h/../h/cache_t.hpp"
 608              		.file 6 "src/kernel/../../h/tcb.hpp"
 609              		.file 7 "src/kernel/../../h/scheduler.hpp"
 610              		.file 8 "src/kernel/../../h/riscv.hpp"
 611              		.file 9 "src/kernel/../../h/tcbWrapperUtil.hpp"
 612              		.file 10 "src/kernel/../../h/../h/slab.hpp"
 3923              		.align	3
 3926              	DW.ref.__gxx_personality_v0:
 3927 0000 00000000 		.dword	__gxx_personality_v0
 3927      00000000 
 3928              		.ident	"GCC: (Ubuntu 9.4.0-1ubuntu1~20.04) 9.4.0"
GAS LISTING /tmp/ccWQkNkt.s 			page 16


 3929              		.section	.note.GNU-stack,"",@progbits
GAS LISTING /tmp/ccWQkNkt.s 			page 17

