GAS LISTING /tmp/ccWp4KVo.s 			page 1


   1              		.file	"tcb.cpp"
   2              		.option pic
   3              		.option norelax
   4              		.text
   5              	.Ltext0:
   6              		.align	2
   7              		.globl	_ZN3TCB4ctorEPv
   9              	_ZN3TCB4ctorEPv:
  10              	.LFB57:
  11              		.file 1 "src/kernel/tcb.cpp"
   1:src/kernel/tcb.cpp **** //
   2:src/kernel/tcb.cpp **** // Created by os on 5/18/22.
   3:src/kernel/tcb.cpp **** //
   4:src/kernel/tcb.cpp **** 
   5:src/kernel/tcb.cpp **** #include "../../h/tcb.hpp"
   6:src/kernel/tcb.cpp **** #include "../../h/memoryAllocator.hpp"
   7:src/kernel/tcb.cpp **** #include "../../h/scheduler.hpp"
   8:src/kernel/tcb.cpp **** #include "../../h/syscall_c.h"
   9:src/kernel/tcb.cpp **** #include "../../h/printing.hpp"
  10:src/kernel/tcb.cpp **** #include "../../h/riscv.hpp"
  11:src/kernel/tcb.cpp **** 
  12:src/kernel/tcb.cpp **** TCB* TCB::running = nullptr;
  13:src/kernel/tcb.cpp **** 
  14:src/kernel/tcb.cpp **** TCB* TCB::putcThread = nullptr;
  15:src/kernel/tcb.cpp **** 
  16:src/kernel/tcb.cpp **** uint64 TCB::currentPC = 0;
  17:src/kernel/tcb.cpp **** 
  18:src/kernel/tcb.cpp **** uint64 TCB::currentSP = 0;
  19:src/kernel/tcb.cpp **** 
  20:src/kernel/tcb.cpp **** uint64 TCB::timeSliceCounter = 0;
  21:src/kernel/tcb.cpp **** 
  22:src/kernel/tcb.cpp **** kmem_cache_t* TCB::tcbCache = nullptr;
  23:src/kernel/tcb.cpp **** 
  24:src/kernel/tcb.cpp **** 
  25:src/kernel/tcb.cpp **** //create a thread for kernel main and a separate thread for console output execution
  26:src/kernel/tcb.cpp **** void TCB::initialize() {
  27:src/kernel/tcb.cpp **** 
  28:src/kernel/tcb.cpp ****     TCB::tcbCache = kmem_cache_create("TCB Cache", sizeof(TCB), TCB::ctor, TCB::dtor);
  29:src/kernel/tcb.cpp **** 
  30:src/kernel/tcb.cpp ****     TCB::running = new TCB(nullptr, nullptr, nullptr, DEFAULT_TIME_SLICE);
  31:src/kernel/tcb.cpp **** 
  32:src/kernel/tcb.cpp ****     TCB::running->mode = Mode::SUPERVISOR;
  33:src/kernel/tcb.cpp ****     //stack for thread that will be running console output
  34:src/kernel/tcb.cpp ****     uint64 *putcStack = (uint64*)MemoryAllocator::kmalloc((DEFAULT_STACK_SIZE+MEM_BLOCK_SIZE-1)/MEM
  35:src/kernel/tcb.cpp **** 
  36:src/kernel/tcb.cpp ****     //console output thread
  37:src/kernel/tcb.cpp ****     putcThread = new TCB(RiscV::putcWrapper, nullptr, putcStack, DEFAULT_TIME_SLICE);
  38:src/kernel/tcb.cpp **** 
  39:src/kernel/tcb.cpp ****     putcThread->mode = Mode::SUPERVISOR;
  40:src/kernel/tcb.cpp ****     //putcThread->context.ra = (uint64)RiscV::putcWrapper;
  41:src/kernel/tcb.cpp **** 
  42:src/kernel/tcb.cpp ****     Scheduler::put(putcThread);
  43:src/kernel/tcb.cpp **** }
  44:src/kernel/tcb.cpp **** 
  45:src/kernel/tcb.cpp **** //tcb constructor
  46:src/kernel/tcb.cpp **** TCB::TCB(Body body, void* args, uint64* stack, uint64 timeSlice){
  47:src/kernel/tcb.cpp **** 
GAS LISTING /tmp/ccWp4KVo.s 			page 2


  48:src/kernel/tcb.cpp ****     this->body = body;
  49:src/kernel/tcb.cpp **** 
  50:src/kernel/tcb.cpp ****     this->args = args;
  51:src/kernel/tcb.cpp **** 
  52:src/kernel/tcb.cpp ****     this->timeSlice = timeSlice;
  53:src/kernel/tcb.cpp **** 
  54:src/kernel/tcb.cpp ****     this->stack = (body == nullptr) ? nullptr : stack;
  55:src/kernel/tcb.cpp **** 
  56:src/kernel/tcb.cpp ****     //initial context for thread
  57:src/kernel/tcb.cpp ****     this->context = {(body == nullptr) ? 0 : (uint64)((char*)stack + DEFAULT_STACK_SIZE),
  58:src/kernel/tcb.cpp ****                      (uint64)&wrapper };
  59:src/kernel/tcb.cpp **** }
  60:src/kernel/tcb.cpp **** 
  61:src/kernel/tcb.cpp **** //deallocate memory for thread stack
  62:src/kernel/tcb.cpp **** void TCB::free(){
  63:src/kernel/tcb.cpp ****     kfree(stack);
  64:src/kernel/tcb.cpp **** }
  65:src/kernel/tcb.cpp **** 
  66:src/kernel/tcb.cpp **** TCB::~TCB(){
  67:src/kernel/tcb.cpp ****     free();
  68:src/kernel/tcb.cpp **** }
  69:src/kernel/tcb.cpp **** 
  70:src/kernel/tcb.cpp **** //if currently running thread is not finished, asleep or blocked, put it in scheduler
  71:src/kernel/tcb.cpp **** //get new thread from scheduler and switch context
  72:src/kernel/tcb.cpp **** void TCB::dispatch() {
  73:src/kernel/tcb.cpp ****     TCB* old = running;
  74:src/kernel/tcb.cpp **** 
  75:src/kernel/tcb.cpp ****     if(old->status == Status::READY || old->status == Status::RUNNING) {
  76:src/kernel/tcb.cpp ****         Scheduler::put(old);
  77:src/kernel/tcb.cpp ****     }
  78:src/kernel/tcb.cpp **** 
  79:src/kernel/tcb.cpp ****     running = Scheduler::get();
  80:src/kernel/tcb.cpp **** 
  81:src/kernel/tcb.cpp ****     if(running) {
  82:src/kernel/tcb.cpp ****         running->status = Status::RUNNING;
  83:src/kernel/tcb.cpp ****         RiscV::jumpToDesignatedPrivilegeMode();
  84:src/kernel/tcb.cpp ****         contextSwitch(&old->context, &running->context);
  85:src/kernel/tcb.cpp ****     }
  86:src/kernel/tcb.cpp **** }
  87:src/kernel/tcb.cpp **** 
  88:src/kernel/tcb.cpp **** //wrapper function to run body function
  89:src/kernel/tcb.cpp **** void TCB::wrapper(void *args) {
  90:src/kernel/tcb.cpp ****     RiscV::popSppSpie();
  91:src/kernel/tcb.cpp **** 
  92:src/kernel/tcb.cpp ****     running->body(running->args);
  93:src/kernel/tcb.cpp ****     RiscV::threadExitUtil();
  94:src/kernel/tcb.cpp **** 
  95:src/kernel/tcb.cpp **** }
  96:src/kernel/tcb.cpp **** 
  97:src/kernel/tcb.cpp **** //overload operator new, to not use system call for every kernel object that is being allocated
  98:src/kernel/tcb.cpp **** void* TCB::operator new(size_t size){
  99:src/kernel/tcb.cpp ****     return kmem_cache_alloc(TCB::tcbCache);
 100:src/kernel/tcb.cpp **** }
 101:src/kernel/tcb.cpp **** 
 102:src/kernel/tcb.cpp **** //overload operator delete, to not use system call for every kernel object that is being deallocate
 103:src/kernel/tcb.cpp **** void TCB::operator delete(void *addr){
 104:src/kernel/tcb.cpp ****     kmem_cache_free(TCB::tcbCache, addr);
GAS LISTING /tmp/ccWp4KVo.s 			page 3


 105:src/kernel/tcb.cpp **** }
 106:src/kernel/tcb.cpp **** 
 107:src/kernel/tcb.cpp **** //internal syscall to free space allocated to a thread
 108:src/kernel/tcb.cpp **** int TCB::thread_free(void *addr) {
 109:src/kernel/tcb.cpp ****     uint64 iptr = (uint64)addr;
 110:src/kernel/tcb.cpp **** 
 111:src/kernel/tcb.cpp ****     asm("mv a1, %[iptr]" : : [iptr] "r" (iptr));
 112:src/kernel/tcb.cpp ****     asm("li a0, 0x51");
 113:src/kernel/tcb.cpp ****     asm("ecall");
 114:src/kernel/tcb.cpp **** 
 115:src/kernel/tcb.cpp ****     uint64 status;
 116:src/kernel/tcb.cpp **** 
 117:src/kernel/tcb.cpp ****     asm("mv %[status], a0" : [status] "=r" (status));
 118:src/kernel/tcb.cpp ****     return status;
 119:src/kernel/tcb.cpp **** }
 120:src/kernel/tcb.cpp **** 
 121:src/kernel/tcb.cpp **** void TCB::ctor(void* tcb){
  12              		.loc 1 121 26
  13              		.cfi_startproc
  14              	.LVL0:
  15 0000 130101FF 		addi	sp,sp,-16
  16              		.cfi_def_cfa_offset 16
  17 0004 23348100 		sd	s0,8(sp)
  18              		.cfi_offset 8, -8
  19 0008 13040101 		addi	s0,sp,16
  20              		.cfi_def_cfa 8, 0
 122:src/kernel/tcb.cpp ****     ((TCB*)tcb)->status = Status::READY;
  21              		.loc 1 122 5
  22              		.loc 1 122 25 is_stmt 0
  23 000c 93071000 		li	a5,1
  24 0010 2328F500 		sw	a5,16(a0)
 123:src/kernel/tcb.cpp **** 
 124:src/kernel/tcb.cpp ****     ((TCB*)tcb)->next = nullptr;
  25              		.loc 1 124 5 is_stmt 1
  26              		.loc 1 124 23 is_stmt 0
  27 0014 23340504 		sd	zero,72(a0)
 125:src/kernel/tcb.cpp **** 
 126:src/kernel/tcb.cpp ****     ((TCB*)tcb)->mode = Mode::USER;
  28              		.loc 1 126 5 is_stmt 1
  29              		.loc 1 126 23 is_stmt 0
  30 0018 232A0500 		sw	zero,20(a0)
 127:src/kernel/tcb.cpp **** }
  31              		.loc 1 127 1
  32 001c 03348100 		ld	s0,8(sp)
  33              		.cfi_restore 8
  34              		.cfi_def_cfa 2, 16
  35 0020 13010101 		addi	sp,sp,16
  36              		.cfi_def_cfa_offset 0
  37 0024 67800000 		jr	ra
  38              		.cfi_endproc
  39              	.LFE57:
  41              		.align	2
  42              		.globl	_ZN3TCB4dtorEPv
  44              	_ZN3TCB4dtorEPv:
  45              	.LFB58:
 128:src/kernel/tcb.cpp **** 
 129:src/kernel/tcb.cpp **** void TCB::dtor(void* tcb){
GAS LISTING /tmp/ccWp4KVo.s 			page 4


  46              		.loc 1 129 26 is_stmt 1
  47              		.cfi_startproc
  48              	.LVL1:
  49 0028 130101FF 		addi	sp,sp,-16
  50              		.cfi_def_cfa_offset 16
  51 002c 23348100 		sd	s0,8(sp)
  52              		.cfi_offset 8, -8
  53 0030 13040101 		addi	s0,sp,16
  54              		.cfi_def_cfa 8, 0
 130:src/kernel/tcb.cpp ****     ((TCB*)tcb)->status = Status::READY;
  55              		.loc 1 130 5
  56              		.loc 1 130 25 is_stmt 0
  57 0034 93071000 		li	a5,1
  58 0038 2328F500 		sw	a5,16(a0)
 131:src/kernel/tcb.cpp **** 
 132:src/kernel/tcb.cpp ****     ((TCB*)tcb)->next = nullptr;
  59              		.loc 1 132 5 is_stmt 1
  60              		.loc 1 132 23 is_stmt 0
  61 003c 23340504 		sd	zero,72(a0)
 133:src/kernel/tcb.cpp **** 
 134:src/kernel/tcb.cpp ****     ((TCB*)tcb)->mode = Mode::USER;
  62              		.loc 1 134 5 is_stmt 1
  63              		.loc 1 134 23 is_stmt 0
  64 0040 232A0500 		sw	zero,20(a0)
 135:src/kernel/tcb.cpp **** }...
  65              		.loc 1 135 1
  66 0044 03348100 		ld	s0,8(sp)
  67              		.cfi_restore 8
  68              		.cfi_def_cfa 2, 16
  69 0048 13010101 		addi	sp,sp,16
  70              		.cfi_def_cfa_offset 0
  71 004c 67800000 		jr	ra
  72              		.cfi_endproc
  73              	.LFE58:
  75              		.align	2
  76              		.globl	_ZN3TCB7wrapperEPv
  78              	_ZN3TCB7wrapperEPv:
  79              	.LFB53:
  89:src/kernel/tcb.cpp **** void TCB::wrapper(void *args) {
  80              		.loc 1 89 31 is_stmt 1
  81              		.cfi_startproc
  82              	.LVL2:
  83 0050 130101FF 		addi	sp,sp,-16
  84              		.cfi_def_cfa_offset 16
  85 0054 23341100 		sd	ra,8(sp)
  86 0058 23308100 		sd	s0,0(sp)
  87              		.cfi_offset 1, -8
  88              		.cfi_offset 8, -16
  89 005c 13040101 		addi	s0,sp,16
  90              		.cfi_def_cfa 8, 0
  90:src/kernel/tcb.cpp ****     RiscV::popSppSpie();
  91              		.loc 1 90 5
  90:src/kernel/tcb.cpp ****     RiscV::popSppSpie();
  92              		.loc 1 90 22 is_stmt 0
  93 0060 97000000 		call	_ZN5RiscV10popSppSpieEv@plt
  93      E7800000 
  94              	.LVL3:
GAS LISTING /tmp/ccWp4KVo.s 			page 5


  92:src/kernel/tcb.cpp ****     running->body(running->args);
  95              		.loc 1 92 5 is_stmt 1
  92:src/kernel/tcb.cpp ****     running->body(running->args);
  96              		.loc 1 92 14 is_stmt 0
  97 0068 97070000 		ld	a5,.LANCHOR0
  97      83B70700 
  98 0070 03B78701 		ld	a4,24(a5)
  92:src/kernel/tcb.cpp ****     running->body(running->args);
  99              		.loc 1 92 18
 100 0074 03B50702 		ld	a0,32(a5)
 101 0078 E7000700 		jalr	a4
 102              	.LVL4:
  93:src/kernel/tcb.cpp ****     RiscV::threadExitUtil();
 103              		.loc 1 93 5 is_stmt 1
  93:src/kernel/tcb.cpp ****     RiscV::threadExitUtil();
 104              		.loc 1 93 26 is_stmt 0
 105 007c 97000000 		call	_ZN5RiscV14threadExitUtilEv@plt
 105      E7800000 
 106              	.LVL5:
  95:src/kernel/tcb.cpp **** }
 107              		.loc 1 95 1
 108 0084 83308100 		ld	ra,8(sp)
 109              		.cfi_restore 1
 110 0088 03340100 		ld	s0,0(sp)
 111              		.cfi_restore 8
 112              		.cfi_def_cfa 2, 16
 113 008c 13010101 		addi	sp,sp,16
 114              		.cfi_def_cfa_offset 0
 115 0090 67800000 		jr	ra
 116              		.cfi_endproc
 117              	.LFE53:
 119              		.align	2
 120              		.globl	_ZN3TCBC2EPFvPvES0_Pmm
 122              	_ZN3TCBC2EPFvPvES0_Pmm:
 123              	.LFB46:
  46:src/kernel/tcb.cpp **** TCB::TCB(Body body, void* args, uint64* stack, uint64 timeSlice){
 124              		.loc 1 46 1 is_stmt 1
 125              		.cfi_startproc
 126              	.LVL6:
 127 0094 130101FF 		addi	sp,sp,-16
 128              		.cfi_def_cfa_offset 16
 129 0098 23348100 		sd	s0,8(sp)
 130              		.cfi_offset 8, -8
 131 009c 13040101 		addi	s0,sp,16
 132              		.cfi_def_cfa 8, 0
 133              	.LBB2:
  46:src/kernel/tcb.cpp **** TCB::TCB(Body body, void* args, uint64* stack, uint64 timeSlice){
 134              		.loc 1 46 64 is_stmt 0
 135 00a0 23380504 		sd	zero,80(a0)
 136 00a4 233C0504 		sd	zero,88(a0)
 137 00a8 23300506 		sd	zero,96(a0)
  48:src/kernel/tcb.cpp ****     this->body = body;
 138              		.loc 1 48 5 is_stmt 1
  48:src/kernel/tcb.cpp ****     this->body = body;
 139              		.loc 1 48 16 is_stmt 0
 140 00ac 233CB500 		sd	a1,24(a0)
  50:src/kernel/tcb.cpp ****     this->args = args;
GAS LISTING /tmp/ccWp4KVo.s 			page 6


 141              		.loc 1 50 5 is_stmt 1
  50:src/kernel/tcb.cpp ****     this->args = args;
 142              		.loc 1 50 16 is_stmt 0
 143 00b0 2330C502 		sd	a2,32(a0)
  52:src/kernel/tcb.cpp ****     this->timeSlice = timeSlice;
 144              		.loc 1 52 5 is_stmt 1
  52:src/kernel/tcb.cpp ****     this->timeSlice = timeSlice;
 145              		.loc 1 52 21 is_stmt 0
 146 00b4 2338E502 		sd	a4,48(a0)
  54:src/kernel/tcb.cpp ****     this->stack = (body == nullptr) ? nullptr : stack;
 147              		.loc 1 54 5 is_stmt 1
  54:src/kernel/tcb.cpp ****     this->stack = (body == nullptr) ? nullptr : stack;
 148              		.loc 1 54 37 is_stmt 0
 149 00b8 638A0502 		beqz	a1,.L10
 150 00bc 93870600 		mv	a5,a3
 151              	.L8:
  54:src/kernel/tcb.cpp ****     this->stack = (body == nullptr) ? nullptr : stack;
 152              		.loc 1 54 17 discriminator 4
 153 00c0 2334F502 		sd	a5,40(a0)
  57:src/kernel/tcb.cpp ****     this->context = {(body == nullptr) ? 0 : (uint64)((char*)stack + DEFAULT_STACK_SIZE),
 154              		.loc 1 57 5 is_stmt 1 discriminator 4
  57:src/kernel/tcb.cpp ****     this->context = {(body == nullptr) ? 0 : (uint64)((char*)stack + DEFAULT_STACK_SIZE),
 155              		.loc 1 57 40 is_stmt 0 discriminator 4
 156 00c4 63880502 		beqz	a1,.L11
  57:src/kernel/tcb.cpp ****     this->context = {(body == nullptr) ? 0 : (uint64)((char*)stack + DEFAULT_STACK_SIZE),
 157              		.loc 1 57 68 discriminator 1
 158 00c8 B7170000 		li	a5,4096
 159 00cc B386F600 		add	a3,a3,a5
 160              	.LVL7:
 161              	.L9:
  57:src/kernel/tcb.cpp ****     this->context = {(body == nullptr) ? 0 : (uint64)((char*)stack + DEFAULT_STACK_SIZE),
 162              		.loc 1 57 19 discriminator 4
 163 00d0 2330D500 		sd	a3,0(a0)
 164 00d4 97070000 		lla	a5,_ZN3TCB7wrapperEPv
 164      93870700 
 165 00dc 2334F500 		sd	a5,8(a0)
 166              	.LBE2:
  59:src/kernel/tcb.cpp **** }
 167              		.loc 1 59 1 discriminator 4
 168 00e0 03348100 		ld	s0,8(sp)
 169              		.cfi_remember_state
 170              		.cfi_restore 8
 171              		.cfi_def_cfa 2, 16
 172 00e4 13010101 		addi	sp,sp,16
 173              		.cfi_def_cfa_offset 0
 174 00e8 67800000 		jr	ra
 175              	.LVL8:
 176              	.L10:
 177              		.cfi_restore_state
 178              	.LBB3:
  54:src/kernel/tcb.cpp ****     this->stack = (body == nullptr) ? nullptr : stack;
 179              		.loc 1 54 37
 180 00ec 93070000 		li	a5,0
 181 00f0 6FF01FFD 		j	.L8
 182              	.L11:
  57:src/kernel/tcb.cpp ****     this->context = {(body == nullptr) ? 0 : (uint64)((char*)stack + DEFAULT_STACK_SIZE),
 183              		.loc 1 57 40
GAS LISTING /tmp/ccWp4KVo.s 			page 7


 184 00f4 93060000 		li	a3,0
 185              	.LVL9:
 186 00f8 6FF09FFD 		j	.L9
 187              	.LBE3:
 188              		.cfi_endproc
 189              	.LFE46:
 191              		.globl	_ZN3TCBC1EPFvPvES0_Pmm
 192              		.set	_ZN3TCBC1EPFvPvES0_Pmm,_ZN3TCBC2EPFvPvES0_Pmm
 193              		.align	2
 194              		.globl	_ZN3TCB4freeEv
 196              	_ZN3TCB4freeEv:
 197              	.LFB48:
  62:src/kernel/tcb.cpp **** void TCB::free(){
 198              		.loc 1 62 17 is_stmt 1
 199              		.cfi_startproc
 200              	.LVL10:
 201 00fc 130101FF 		addi	sp,sp,-16
 202              		.cfi_def_cfa_offset 16
 203 0100 23341100 		sd	ra,8(sp)
 204 0104 23308100 		sd	s0,0(sp)
 205              		.cfi_offset 1, -8
 206              		.cfi_offset 8, -16
 207 0108 13040101 		addi	s0,sp,16
 208              		.cfi_def_cfa 8, 0
  63:src/kernel/tcb.cpp ****     kfree(stack);
 209              		.loc 1 63 5
  63:src/kernel/tcb.cpp ****     kfree(stack);
 210              		.loc 1 63 10 is_stmt 0
 211 010c 03358502 		ld	a0,40(a0)
 212              	.LVL11:
 213 0110 97000000 		call	_Z5kfreePKv@plt
 213      E7800000 
 214              	.LVL12:
  64:src/kernel/tcb.cpp **** }
 215              		.loc 1 64 1
 216 0118 83308100 		ld	ra,8(sp)
 217              		.cfi_restore 1
 218 011c 03340100 		ld	s0,0(sp)
 219              		.cfi_restore 8
 220              		.cfi_def_cfa 2, 16
 221 0120 13010101 		addi	sp,sp,16
 222              		.cfi_def_cfa_offset 0
 223 0124 67800000 		jr	ra
 224              		.cfi_endproc
 225              	.LFE48:
 227              		.align	2
 228              		.globl	_ZN3TCBD2Ev
 230              	_ZN3TCBD2Ev:
 231              	.LFB50:
  66:src/kernel/tcb.cpp **** TCB::~TCB(){
 232              		.loc 1 66 1 is_stmt 1
 233              		.cfi_startproc
 234              		.cfi_personality 0x9b,DW.ref.__gxx_personality_v0
 235              		.cfi_lsda 0x1b,.LLSDA50
 236              	.LVL13:
 237 0128 130101FF 		addi	sp,sp,-16
 238              		.cfi_def_cfa_offset 16
GAS LISTING /tmp/ccWp4KVo.s 			page 8


 239 012c 23341100 		sd	ra,8(sp)
 240 0130 23308100 		sd	s0,0(sp)
 241              		.cfi_offset 1, -8
 242              		.cfi_offset 8, -16
 243 0134 13040101 		addi	s0,sp,16
 244              		.cfi_def_cfa 8, 0
 245              	.LBB4:
  67:src/kernel/tcb.cpp ****     free();
 246              		.loc 1 67 5
  67:src/kernel/tcb.cpp ****     free();
 247              		.loc 1 67 9 is_stmt 0
 248 0138 97000000 		call	_ZN3TCB4freeEv
 248      E7800000 
 249              	.LVL14:
 250              	.LBE4:
  68:src/kernel/tcb.cpp **** }
 251              		.loc 1 68 1
 252 0140 83308100 		ld	ra,8(sp)
 253              		.cfi_restore 1
 254 0144 03340100 		ld	s0,0(sp)
 255              		.cfi_restore 8
 256              		.cfi_def_cfa 2, 16
 257 0148 13010101 		addi	sp,sp,16
 258              		.cfi_def_cfa_offset 0
 259 014c 67800000 		jr	ra
 260              		.cfi_endproc
 261              	.LFE50:
 262              		.globl	__gxx_personality_v0
 263              		.section	.gcc_except_table,"a",@progbits
 264              	.LLSDA50:
 265 0000 FF       		.byte	0xff
 266 0001 FF       		.byte	0xff
 267 0002 03       		.byte	0x3
 268 0003 00       		.byte	0
 269              		.text
 271              		.globl	_ZN3TCBD1Ev
 272              		.set	_ZN3TCBD1Ev,_ZN3TCBD2Ev
 273              		.align	2
 274              		.globl	_ZN3TCB8dispatchEv
 276              	_ZN3TCB8dispatchEv:
 277              	.LFB52:
  72:src/kernel/tcb.cpp **** void TCB::dispatch() {
 278              		.loc 1 72 22 is_stmt 1
 279              		.cfi_startproc
 280 0150 130101FE 		addi	sp,sp,-32
 281              		.cfi_def_cfa_offset 32
 282 0154 233C1100 		sd	ra,24(sp)
 283 0158 23388100 		sd	s0,16(sp)
 284 015c 23349100 		sd	s1,8(sp)
 285              		.cfi_offset 1, -8
 286              		.cfi_offset 8, -16
 287              		.cfi_offset 9, -24
 288 0160 13040102 		addi	s0,sp,32
 289              		.cfi_def_cfa 8, 0
  73:src/kernel/tcb.cpp ****     TCB* old = running;
 290              		.loc 1 73 5
  73:src/kernel/tcb.cpp ****     TCB* old = running;
GAS LISTING /tmp/ccWp4KVo.s 			page 9


 291              		.loc 1 73 10 is_stmt 0
 292 0164 97040000 		ld	s1,.LANCHOR0
 292      83B40400 
 293              	.LVL15:
  75:src/kernel/tcb.cpp ****     if(old->status == Status::READY || old->status == Status::RUNNING) {
 294              		.loc 1 75 5 is_stmt 1
  75:src/kernel/tcb.cpp ****     if(old->status == Status::READY || old->status == Status::RUNNING) {
 295              		.loc 1 75 13 is_stmt 0
 296 016c 03A70401 		lw	a4,16(s1)
  75:src/kernel/tcb.cpp ****     if(old->status == Status::READY || old->status == Status::RUNNING) {
 297              		.loc 1 75 5
 298 0170 93071000 		li	a5,1
 299 0174 63F6E704 		bleu	a4,a5,.L21
 300              	.L18:
  79:src/kernel/tcb.cpp ****     running = Scheduler::get();
 301              		.loc 1 79 5 is_stmt 1
  79:src/kernel/tcb.cpp ****     running = Scheduler::get();
 302              		.loc 1 79 29 is_stmt 0
 303 0178 97000000 		call	_ZN9Scheduler3getEv@plt
 303      E7800000 
 304              	.LVL16:
  79:src/kernel/tcb.cpp ****     running = Scheduler::get();
 305              		.loc 1 79 13
 306 0180 97070000 		sd	a0,.LANCHOR0,a5
 306      23B0A700 
  81:src/kernel/tcb.cpp ****     if(running) {
 307              		.loc 1 81 5 is_stmt 1
 308 0188 63020502 		beqz	a0,.L17
  82:src/kernel/tcb.cpp ****         running->status = Status::RUNNING;
 309              		.loc 1 82 9
  82:src/kernel/tcb.cpp ****         running->status = Status::RUNNING;
 310              		.loc 1 82 25 is_stmt 0
 311 018c 23280500 		sw	zero,16(a0)
  83:src/kernel/tcb.cpp ****         RiscV::jumpToDesignatedPrivilegeMode();
 312              		.loc 1 83 9 is_stmt 1
  83:src/kernel/tcb.cpp ****         RiscV::jumpToDesignatedPrivilegeMode();
 313              		.loc 1 83 45 is_stmt 0
 314 0190 97000000 		call	_ZN5RiscV29jumpToDesignatedPrivilegeModeEv@plt
 314      E7800000 
 315              	.LVL17:
  84:src/kernel/tcb.cpp ****         contextSwitch(&old->context, &running->context);
 316              		.loc 1 84 9 is_stmt 1
  84:src/kernel/tcb.cpp ****         contextSwitch(&old->context, &running->context);
 317              		.loc 1 84 22 is_stmt 0
 318 0198 97050000 		ld	a1,.LANCHOR0
 318      83B50500 
 319 01a0 13850400 		mv	a0,s1
 320 01a4 97000000 		call	_ZN3TCB13contextSwitchEPNS_7ContextES1_@plt
 320      E7800000 
 321              	.LVL18:
 322              	.L17:
  86:src/kernel/tcb.cpp **** }
 323              		.loc 1 86 1
 324 01ac 83308101 		ld	ra,24(sp)
 325              		.cfi_remember_state
 326              		.cfi_restore 1
 327 01b0 03340101 		ld	s0,16(sp)
GAS LISTING /tmp/ccWp4KVo.s 			page 10


 328              		.cfi_restore 8
 329              		.cfi_def_cfa 2, 32
 330 01b4 83348100 		ld	s1,8(sp)
 331              		.cfi_restore 9
 332              	.LVL19:
 333 01b8 13010102 		addi	sp,sp,32
 334              		.cfi_def_cfa_offset 0
 335 01bc 67800000 		jr	ra
 336              	.LVL20:
 337              	.L21:
 338              		.cfi_restore_state
  76:src/kernel/tcb.cpp ****         Scheduler::put(old);
 339              		.loc 1 76 9 is_stmt 1
  76:src/kernel/tcb.cpp ****         Scheduler::put(old);
 340              		.loc 1 76 23 is_stmt 0
 341 01c0 13850400 		mv	a0,s1
 342 01c4 97000000 		call	_ZN9Scheduler3putEP3TCB@plt
 342      E7800000 
 343              	.LVL21:
 344 01cc 6FF0DFFA 		j	.L18
 345              		.cfi_endproc
 346              	.LFE52:
 348              		.align	2
 349              		.globl	_ZN3TCBnwEm
 351              	_ZN3TCBnwEm:
 352              	.LFB54:
  98:src/kernel/tcb.cpp **** void* TCB::operator new(size_t size){
 353              		.loc 1 98 37 is_stmt 1
 354              		.cfi_startproc
 355              	.LVL22:
 356 01d0 130101FF 		addi	sp,sp,-16
 357              		.cfi_def_cfa_offset 16
 358 01d4 23341100 		sd	ra,8(sp)
 359 01d8 23308100 		sd	s0,0(sp)
 360              		.cfi_offset 1, -8
 361              		.cfi_offset 8, -16
 362 01dc 13040101 		addi	s0,sp,16
 363              		.cfi_def_cfa 8, 0
  99:src/kernel/tcb.cpp ****     return kmem_cache_alloc(TCB::tcbCache);
 364              		.loc 1 99 5
  99:src/kernel/tcb.cpp ****     return kmem_cache_alloc(TCB::tcbCache);
 365              		.loc 1 99 28 is_stmt 0
 366 01e0 17050000 		ld	a0,.LANCHOR0+8
 366      03350500 
 367              	.LVL23:
 368 01e8 97000000 		call	_Z16kmem_cache_allocP5Cache@plt
 368      E7800000 
 369              	.LVL24:
 100:src/kernel/tcb.cpp **** }
 370              		.loc 1 100 1
 371 01f0 83308100 		ld	ra,8(sp)
 372              		.cfi_restore 1
 373 01f4 03340100 		ld	s0,0(sp)
 374              		.cfi_restore 8
 375              		.cfi_def_cfa 2, 16
 376 01f8 13010101 		addi	sp,sp,16
 377              		.cfi_def_cfa_offset 0
GAS LISTING /tmp/ccWp4KVo.s 			page 11


 378 01fc 67800000 		jr	ra
 379              		.cfi_endproc
 380              	.LFE54:
 382              		.section	.rodata.str1.8,"aMS",@progbits,1
 383              		.align	3
 384              	.LC0:
 385 0000 54434220 		.string	"TCB Cache"
 385      43616368 
 385      6500
 386              		.text
 387              		.align	2
 388              		.globl	_ZN3TCB10initializeEv
 390              	_ZN3TCB10initializeEv:
 391              	.LFB44:
  26:src/kernel/tcb.cpp **** void TCB::initialize() {
 392              		.loc 1 26 24 is_stmt 1
 393              		.cfi_startproc
 394 0200 130101FE 		addi	sp,sp,-32
 395              		.cfi_def_cfa_offset 32
 396 0204 233C1100 		sd	ra,24(sp)
 397 0208 23388100 		sd	s0,16(sp)
 398 020c 23349100 		sd	s1,8(sp)
 399 0210 23302101 		sd	s2,0(sp)
 400              		.cfi_offset 1, -8
 401              		.cfi_offset 8, -16
 402              		.cfi_offset 9, -24
 403              		.cfi_offset 18, -32
 404 0214 13040102 		addi	s0,sp,32
 405              		.cfi_def_cfa 8, 0
  28:src/kernel/tcb.cpp ****     TCB::tcbCache = kmem_cache_create("TCB Cache", sizeof(TCB), TCB::ctor, TCB::dtor);
 406              		.loc 1 28 5
  28:src/kernel/tcb.cpp ****     TCB::tcbCache = kmem_cache_create("TCB Cache", sizeof(TCB), TCB::ctor, TCB::dtor);
 407              		.loc 1 28 38 is_stmt 0
 408 0218 97060000 		lla	a3,_ZN3TCB4dtorEPv
 408      93860600 
 409 0220 17060000 		lla	a2,_ZN3TCB4ctorEPv
 409      13060600 
 410 0228 93050007 		li	a1,112
 411 022c 17050000 		lla	a0,.LC0
 411      13050500 
 412 0234 97000000 		call	_Z17kmem_cache_createPKcmPFvPvES3_@plt
 412      E7800000 
 413              	.LVL25:
  28:src/kernel/tcb.cpp ****     TCB::tcbCache = kmem_cache_create("TCB Cache", sizeof(TCB), TCB::ctor, TCB::dtor);
 414              		.loc 1 28 19
 415 023c 97070000 		sd	a0,.LANCHOR0+8,a5
 415      23B0A700 
  30:src/kernel/tcb.cpp ****     TCB::running = new TCB(nullptr, nullptr, nullptr, DEFAULT_TIME_SLICE);
 416              		.loc 1 30 5 is_stmt 1
  30:src/kernel/tcb.cpp ****     TCB::running = new TCB(nullptr, nullptr, nullptr, DEFAULT_TIME_SLICE);
 417              		.loc 1 30 73 is_stmt 0
 418 0244 13050007 		li	a0,112
 419 0248 97000000 		call	_ZN3TCBnwEm
 419      E7800000 
 420              	.LVL26:
 421 0250 93040500 		mv	s1,a0
 422 0254 630E0500 		beqz	a0,.L25
GAS LISTING /tmp/ccWp4KVo.s 			page 12


  30:src/kernel/tcb.cpp ****     TCB::running = new TCB(nullptr, nullptr, nullptr, DEFAULT_TIME_SLICE);
 423              		.loc 1 30 73 discriminator 1
 424 0258 13072000 		li	a4,2
 425 025c 93060000 		li	a3,0
 426 0260 13060000 		li	a2,0
 427 0264 93050000 		li	a1,0
 428 0268 97000000 		call	_ZN3TCBC1EPFvPvES0_Pmm
 428      E7800000 
 429              	.LVL27:
 430              	.L25:
  30:src/kernel/tcb.cpp ****     TCB::running = new TCB(nullptr, nullptr, nullptr, DEFAULT_TIME_SLICE);
 431              		.loc 1 30 18 discriminator 4
 432 0270 97070000 		sd	s1,.LANCHOR0,a5
 432      23B09700 
  32:src/kernel/tcb.cpp ****     TCB::running->mode = Mode::SUPERVISOR;
 433              		.loc 1 32 5 is_stmt 1 discriminator 4
  32:src/kernel/tcb.cpp ****     TCB::running->mode = Mode::SUPERVISOR;
 434              		.loc 1 32 24 is_stmt 0 discriminator 4
 435 0278 93071000 		li	a5,1
 436 027c 23AAF400 		sw	a5,20(s1)
  34:src/kernel/tcb.cpp ****     uint64 *putcStack = (uint64*)MemoryAllocator::kmalloc((DEFAULT_STACK_SIZE+MEM_BLOCK_SIZE-1)/MEM
 437              		.loc 1 34 5 is_stmt 1 discriminator 4
  34:src/kernel/tcb.cpp ****     uint64 *putcStack = (uint64*)MemoryAllocator::kmalloc((DEFAULT_STACK_SIZE+MEM_BLOCK_SIZE-1)/MEM
 438              		.loc 1 34 58 is_stmt 0 discriminator 4
 439 0280 13050004 		li	a0,64
 440 0284 97000000 		call	_ZN15MemoryAllocator7kmallocEm@plt
 440      E7800000 
 441              	.LVL28:
 442 028c 13090500 		mv	s2,a0
 443              	.LVL29:
  37:src/kernel/tcb.cpp ****     putcThread = new TCB(RiscV::putcWrapper, nullptr, putcStack, DEFAULT_TIME_SLICE);
 444              		.loc 1 37 5 is_stmt 1 discriminator 4
  37:src/kernel/tcb.cpp ****     putcThread = new TCB(RiscV::putcWrapper, nullptr, putcStack, DEFAULT_TIME_SLICE);
 445              		.loc 1 37 84 is_stmt 0 discriminator 4
 446 0290 13050007 		li	a0,112
 447              	.LVL30:
 448 0294 97000000 		call	_ZN3TCBnwEm
 448      E7800000 
 449              	.LVL31:
 450 029c 93040500 		mv	s1,a0
 451 02a0 63000502 		beqz	a0,.L26
  37:src/kernel/tcb.cpp ****     putcThread = new TCB(RiscV::putcWrapper, nullptr, putcStack, DEFAULT_TIME_SLICE);
 452              		.loc 1 37 84 discriminator 1
 453 02a4 13072000 		li	a4,2
 454 02a8 93060900 		mv	a3,s2
 455 02ac 13060000 		li	a2,0
 456 02b0 97050000 		la	a1,_ZN5RiscV11putcWrapperEPv
 456      83B50500 
 457 02b8 97000000 		call	_ZN3TCBC1EPFvPvES0_Pmm
 457      E7800000 
 458              	.LVL32:
 459              	.L26:
  37:src/kernel/tcb.cpp ****     putcThread = new TCB(RiscV::putcWrapper, nullptr, putcStack, DEFAULT_TIME_SLICE);
 460              		.loc 1 37 16 discriminator 4
 461 02c0 97070000 		sd	s1,.LANCHOR0+16,a5
 461      23B09700 
  39:src/kernel/tcb.cpp ****     putcThread->mode = Mode::SUPERVISOR;
GAS LISTING /tmp/ccWp4KVo.s 			page 13


 462              		.loc 1 39 5 is_stmt 1 discriminator 4
  39:src/kernel/tcb.cpp ****     putcThread->mode = Mode::SUPERVISOR;
 463              		.loc 1 39 22 is_stmt 0 discriminator 4
 464 02c8 93071000 		li	a5,1
 465 02cc 23AAF400 		sw	a5,20(s1)
  42:src/kernel/tcb.cpp ****     Scheduler::put(putcThread);
 466              		.loc 1 42 5 is_stmt 1 discriminator 4
  42:src/kernel/tcb.cpp ****     Scheduler::put(putcThread);
 467              		.loc 1 42 19 is_stmt 0 discriminator 4
 468 02d0 13850400 		mv	a0,s1
 469 02d4 97000000 		call	_ZN9Scheduler3putEP3TCB@plt
 469      E7800000 
 470              	.LVL33:
  43:src/kernel/tcb.cpp **** }
 471              		.loc 1 43 1 discriminator 4
 472 02dc 83308101 		ld	ra,24(sp)
 473              		.cfi_restore 1
 474 02e0 03340101 		ld	s0,16(sp)
 475              		.cfi_restore 8
 476              		.cfi_def_cfa 2, 32
 477 02e4 83348100 		ld	s1,8(sp)
 478              		.cfi_restore 9
 479 02e8 03390100 		ld	s2,0(sp)
 480              		.cfi_restore 18
 481              	.LVL34:
 482 02ec 13010102 		addi	sp,sp,32
 483              		.cfi_def_cfa_offset 0
 484 02f0 67800000 		jr	ra
 485              		.cfi_endproc
 486              	.LFE44:
 488              		.align	2
 489              		.globl	_ZN3TCBdlEPv
 491              	_ZN3TCBdlEPv:
 492              	.LFB55:
 103:src/kernel/tcb.cpp **** void TCB::operator delete(void *addr){
 493              		.loc 1 103 38 is_stmt 1
 494              		.cfi_startproc
 495              	.LVL35:
 496 02f4 130101FF 		addi	sp,sp,-16
 497              		.cfi_def_cfa_offset 16
 498 02f8 23341100 		sd	ra,8(sp)
 499 02fc 23308100 		sd	s0,0(sp)
 500              		.cfi_offset 1, -8
 501              		.cfi_offset 8, -16
 502 0300 13040101 		addi	s0,sp,16
 503              		.cfi_def_cfa 8, 0
 504 0304 93050500 		mv	a1,a0
 104:src/kernel/tcb.cpp ****     kmem_cache_free(TCB::tcbCache, addr);
 505              		.loc 1 104 5
 104:src/kernel/tcb.cpp ****     kmem_cache_free(TCB::tcbCache, addr);
 506              		.loc 1 104 20 is_stmt 0
 507 0308 17050000 		ld	a0,.LANCHOR0+8
 507      03350500 
 508              	.LVL36:
 509 0310 97000000 		call	_Z15kmem_cache_freeP5CachePv@plt
 509      E7800000 
 510              	.LVL37:
GAS LISTING /tmp/ccWp4KVo.s 			page 14


 105:src/kernel/tcb.cpp **** }
 511              		.loc 1 105 1
 512 0318 83308100 		ld	ra,8(sp)
 513              		.cfi_restore 1
 514 031c 03340100 		ld	s0,0(sp)
 515              		.cfi_restore 8
 516              		.cfi_def_cfa 2, 16
 517 0320 13010101 		addi	sp,sp,16
 518              		.cfi_def_cfa_offset 0
 519 0324 67800000 		jr	ra
 520              		.cfi_endproc
 521              	.LFE55:
 523              		.align	2
 524              		.globl	_ZN3TCB11thread_freeEPv
 526              	_ZN3TCB11thread_freeEPv:
 527              	.LFB56:
 108:src/kernel/tcb.cpp **** int TCB::thread_free(void *addr) {
 528              		.loc 1 108 34 is_stmt 1
 529              		.cfi_startproc
 530              	.LVL38:
 531 0328 130101FF 		addi	sp,sp,-16
 532              		.cfi_def_cfa_offset 16
 533 032c 23348100 		sd	s0,8(sp)
 534              		.cfi_offset 8, -8
 535 0330 13040101 		addi	s0,sp,16
 536              		.cfi_def_cfa 8, 0
 109:src/kernel/tcb.cpp ****     uint64 iptr = (uint64)addr;
 537              		.loc 1 109 5
 538              	.LVL39:
 111:src/kernel/tcb.cpp ****     asm("mv a1, %[iptr]" : : [iptr] "r" (iptr));
 539              		.loc 1 111 5
 111:src/kernel/tcb.cpp ****     asm("mv a1, %[iptr]" : : [iptr] "r" (iptr));
 540              		.loc 1 111 48 is_stmt 0
 541              	#APP
 542              	# 111 "src/kernel/tcb.cpp" 1
 112:src/kernel/tcb.cpp ****     asm("li a0, 0x51");
 543              		mv a1, a0
 544              	# 0 "" 2
 545              		.loc 1 112 5 is_stmt 1
 112:src/kernel/tcb.cpp ****     asm("li a0, 0x51");
 546              		.loc 1 112 23 is_stmt 0
 547              	# 112 "src/kernel/tcb.cpp" 1
 113:src/kernel/tcb.cpp ****     asm("ecall");
 548              		li a0, 0x51
 549              	# 0 "" 2
 550              		.loc 1 113 5 is_stmt 1
 113:src/kernel/tcb.cpp ****     asm("ecall");
 551              		.loc 1 113 17 is_stmt 0
 552              	# 113 "src/kernel/tcb.cpp" 1
 115:src/kernel/tcb.cpp ****     uint64 status;
 553              		ecall
 554              	# 0 "" 2
 555              		.loc 1 115 5 is_stmt 1
 117:src/kernel/tcb.cpp ****     asm("mv %[status], a0" : [status] "=r" (status));
 556              		.loc 1 117 5
 117:src/kernel/tcb.cpp ****     asm("mv %[status], a0" : [status] "=r" (status));
 557              		.loc 1 117 53 is_stmt 0
GAS LISTING /tmp/ccWp4KVo.s 			page 15


 558              	# 117 "src/kernel/tcb.cpp" 1
 559              		mv a0, a0
 560              	# 0 "" 2
 561              	.LVL40:
 118:src/kernel/tcb.cpp ****     return status;
 562              		.loc 1 118 5 is_stmt 1
 119:src/kernel/tcb.cpp **** }
 563              		.loc 1 119 1 is_stmt 0
 564              	#NO_APP
 565 0344 1B050500 		sext.w	a0,a0
 566              	.LVL41:
 567 0348 03348100 		ld	s0,8(sp)
 568              		.cfi_restore 8
 569              		.cfi_def_cfa 2, 16
 570 034c 13010101 		addi	sp,sp,16
 571              		.cfi_def_cfa_offset 0
 572 0350 67800000 		jr	ra
 573              		.cfi_endproc
 574              	.LFE56:
 576              		.globl	_ZN3TCB8tcbCacheE
 577              		.globl	_ZN3TCB16timeSliceCounterE
 578              		.globl	_ZN3TCB9currentSPE
 579              		.globl	_ZN3TCB9currentPCE
 580              		.globl	_ZN3TCB10putcThreadE
 581              		.globl	_ZN3TCB7runningE
 582              		.bss
 583              		.align	3
 584              		.set	.LANCHOR0,. + 0
 587              	_ZN3TCB7runningE:
 588 0000 00000000 		.zero	8
 588      00000000 
 591              	_ZN3TCB8tcbCacheE:
 592 0008 00000000 		.zero	8
 592      00000000 
 595              	_ZN3TCB10putcThreadE:
 596 0010 00000000 		.zero	8
 596      00000000 
 599              	_ZN3TCB16timeSliceCounterE:
 600 0018 00000000 		.zero	8
 600      00000000 
 603              	_ZN3TCB9currentSPE:
 604 0020 00000000 		.zero	8
 604      00000000 
 607              	_ZN3TCB9currentPCE:
 608 0028 00000000 		.zero	8
 608      00000000 
 609              		.text
 610              	.Letext0:
 611              		.file 2 "src/kernel/../../h/../lib/hw.h"
 612              		.file 3 "src/kernel/../../h/../h/../h/../h/utility.hpp"
 613              		.file 4 "src/kernel/../../h/../h/../h/../h/../h/slab_t.hpp"
 614              		.file 5 "src/kernel/../../h/../h/../h/../h/cache_t.hpp"
 615              		.file 6 "src/kernel/../../h/tcb.hpp"
 616              		.file 7 "src/kernel/../../h/memoryAllocator.hpp"
 617              		.file 8 "src/kernel/../../h/scheduler.hpp"
 618              		.file 9 "src/kernel/../../h/riscv.hpp"
 619              		.file 10 "src/kernel/../../h/../h/slab.hpp"
GAS LISTING /tmp/ccWp4KVo.s 			page 16


 4313              		.align	3
 4316              	DW.ref.__gxx_personality_v0:
 4317 0000 00000000 		.dword	__gxx_personality_v0
 4317      00000000 
 4318              		.ident	"GCC: (Ubuntu 9.4.0-1ubuntu1~20.04) 9.4.0"
 4319              		.section	.note.GNU-stack,"",@progbits
GAS LISTING /tmp/ccWp4KVo.s 			page 17


DEFINED SYMBOLS
                            *ABS*:0000000000000000 tcb.cpp
     /tmp/ccWp4KVo.s:9      .text:0000000000000000 _ZN3TCB4ctorEPv
     /tmp/ccWp4KVo.s:13     .text:0000000000000000 .L0 
     /tmp/ccWp4KVo.s:15     .text:0000000000000000 .L0 
     /tmp/ccWp4KVo.s:16     .text:0000000000000004 .L0 
     /tmp/ccWp4KVo.s:18     .text:0000000000000008 .L0 
     /tmp/ccWp4KVo.s:20     .text:000000000000000c .L0 
     /tmp/ccWp4KVo.s:22     .text:000000000000000c .L0 
     /tmp/ccWp4KVo.s:23     .text:000000000000000c .L0 
     /tmp/ccWp4KVo.s:26     .text:0000000000000014 .L0 
     /tmp/ccWp4KVo.s:27     .text:0000000000000014 .L0 
     /tmp/ccWp4KVo.s:29     .text:0000000000000018 .L0 
     /tmp/ccWp4KVo.s:30     .text:0000000000000018 .L0 
     /tmp/ccWp4KVo.s:32     .text:000000000000001c .L0 
     /tmp/ccWp4KVo.s:33     .text:0000000000000020 .L0 
     /tmp/ccWp4KVo.s:34     .text:0000000000000020 .L0 
     /tmp/ccWp4KVo.s:36     .text:0000000000000024 .L0 
     /tmp/ccWp4KVo.s:38     .text:0000000000000028 .L0 
     /tmp/ccWp4KVo.s:44     .text:0000000000000028 _ZN3TCB4dtorEPv
     /tmp/ccWp4KVo.s:47     .text:0000000000000028 .L0 
     /tmp/ccWp4KVo.s:49     .text:0000000000000028 .L0 
     /tmp/ccWp4KVo.s:50     .text:000000000000002c .L0 
     /tmp/ccWp4KVo.s:52     .text:0000000000000030 .L0 
     /tmp/ccWp4KVo.s:54     .text:0000000000000034 .L0 
     /tmp/ccWp4KVo.s:56     .text:0000000000000034 .L0 
     /tmp/ccWp4KVo.s:57     .text:0000000000000034 .L0 
     /tmp/ccWp4KVo.s:60     .text:000000000000003c .L0 
     /tmp/ccWp4KVo.s:61     .text:000000000000003c .L0 
     /tmp/ccWp4KVo.s:63     .text:0000000000000040 .L0 
     /tmp/ccWp4KVo.s:64     .text:0000000000000040 .L0 
     /tmp/ccWp4KVo.s:66     .text:0000000000000044 .L0 
     /tmp/ccWp4KVo.s:67     .text:0000000000000048 .L0 
     /tmp/ccWp4KVo.s:68     .text:0000000000000048 .L0 
     /tmp/ccWp4KVo.s:70     .text:000000000000004c .L0 
     /tmp/ccWp4KVo.s:72     .text:0000000000000050 .L0 
     /tmp/ccWp4KVo.s:78     .text:0000000000000050 _ZN3TCB7wrapperEPv
     /tmp/ccWp4KVo.s:81     .text:0000000000000050 .L0 
     /tmp/ccWp4KVo.s:83     .text:0000000000000050 .L0 
     /tmp/ccWp4KVo.s:84     .text:0000000000000054 .L0 
     /tmp/ccWp4KVo.s:87     .text:000000000000005c .L0 
     /tmp/ccWp4KVo.s:88     .text:000000000000005c .L0 
     /tmp/ccWp4KVo.s:90     .text:0000000000000060 .L0 
     /tmp/ccWp4KVo.s:92     .text:0000000000000060 .L0 
     /tmp/ccWp4KVo.s:93     .text:0000000000000060 .L0 
     /tmp/ccWp4KVo.s:96     .text:0000000000000068 .L0 
     /tmp/ccWp4KVo.s:97     .text:0000000000000068 .L0 
     /tmp/ccWp4KVo.s:100    .text:0000000000000074 .L0 
     /tmp/ccWp4KVo.s:104    .text:000000000000007c .L0 
     /tmp/ccWp4KVo.s:105    .text:000000000000007c .L0 
     /tmp/ccWp4KVo.s:108    .text:0000000000000084 .L0 
     /tmp/ccWp4KVo.s:109    .text:0000000000000088 .L0 
     /tmp/ccWp4KVo.s:111    .text:000000000000008c .L0 
     /tmp/ccWp4KVo.s:112    .text:000000000000008c .L0 
     /tmp/ccWp4KVo.s:114    .text:0000000000000090 .L0 
     /tmp/ccWp4KVo.s:116    .text:0000000000000094 .L0 
     /tmp/ccWp4KVo.s:122    .text:0000000000000094 _ZN3TCBC2EPFvPvES0_Pmm
GAS LISTING /tmp/ccWp4KVo.s 			page 18


     /tmp/ccWp4KVo.s:125    .text:0000000000000094 .L0 
     /tmp/ccWp4KVo.s:127    .text:0000000000000094 .L0 
     /tmp/ccWp4KVo.s:128    .text:0000000000000098 .L0 
     /tmp/ccWp4KVo.s:130    .text:000000000000009c .L0 
     /tmp/ccWp4KVo.s:132    .text:00000000000000a0 .L0 
     /tmp/ccWp4KVo.s:135    .text:00000000000000a0 .L0 
     /tmp/ccWp4KVo.s:139    .text:00000000000000ac .L0 
     /tmp/ccWp4KVo.s:140    .text:00000000000000ac .L0 
     /tmp/ccWp4KVo.s:142    .text:00000000000000b0 .L0 
     /tmp/ccWp4KVo.s:143    .text:00000000000000b0 .L0 
     /tmp/ccWp4KVo.s:145    .text:00000000000000b4 .L0 
     /tmp/ccWp4KVo.s:146    .text:00000000000000b4 .L0 
     /tmp/ccWp4KVo.s:148    .text:00000000000000b8 .L0 
     /tmp/ccWp4KVo.s:149    .text:00000000000000b8 .L0 
     /tmp/ccWp4KVo.s:153    .text:00000000000000c0 .L0 
     /tmp/ccWp4KVo.s:155    .text:00000000000000c4 .L0 
     /tmp/ccWp4KVo.s:156    .text:00000000000000c4 .L0 
     /tmp/ccWp4KVo.s:158    .text:00000000000000c8 .L0 
     /tmp/ccWp4KVo.s:163    .text:00000000000000d0 .L0 
     /tmp/ccWp4KVo.s:168    .text:00000000000000e0 .L0 
     /tmp/ccWp4KVo.s:169    .text:00000000000000e4 .L0 
     /tmp/ccWp4KVo.s:170    .text:00000000000000e4 .L0 
     /tmp/ccWp4KVo.s:171    .text:00000000000000e4 .L0 
     /tmp/ccWp4KVo.s:173    .text:00000000000000e8 .L0 
     /tmp/ccWp4KVo.s:177    .text:00000000000000ec .L0 
     /tmp/ccWp4KVo.s:180    .text:00000000000000ec .L0 
     /tmp/ccWp4KVo.s:184    .text:00000000000000f4 .L0 
     /tmp/ccWp4KVo.s:188    .text:00000000000000fc .L0 
     /tmp/ccWp4KVo.s:122    .text:0000000000000094 _ZN3TCBC1EPFvPvES0_Pmm
     /tmp/ccWp4KVo.s:196    .text:00000000000000fc _ZN3TCB4freeEv
     /tmp/ccWp4KVo.s:199    .text:00000000000000fc .L0 
     /tmp/ccWp4KVo.s:201    .text:00000000000000fc .L0 
     /tmp/ccWp4KVo.s:202    .text:0000000000000100 .L0 
     /tmp/ccWp4KVo.s:205    .text:0000000000000108 .L0 
     /tmp/ccWp4KVo.s:206    .text:0000000000000108 .L0 
     /tmp/ccWp4KVo.s:208    .text:000000000000010c .L0 
     /tmp/ccWp4KVo.s:210    .text:000000000000010c .L0 
     /tmp/ccWp4KVo.s:211    .text:000000000000010c .L0 
     /tmp/ccWp4KVo.s:216    .text:0000000000000118 .L0 
     /tmp/ccWp4KVo.s:217    .text:000000000000011c .L0 
     /tmp/ccWp4KVo.s:219    .text:0000000000000120 .L0 
     /tmp/ccWp4KVo.s:220    .text:0000000000000120 .L0 
     /tmp/ccWp4KVo.s:222    .text:0000000000000124 .L0 
     /tmp/ccWp4KVo.s:224    .text:0000000000000128 .L0 
     /tmp/ccWp4KVo.s:230    .text:0000000000000128 _ZN3TCBD2Ev
     /tmp/ccWp4KVo.s:233    .text:0000000000000128 .L0 
     /tmp/ccWp4KVo.s:4316   .data.rel.local.DW.ref.__gxx_personality_v0:0000000000000000 DW.ref.__gxx_personality_v0
     /tmp/ccWp4KVo.s:237    .text:0000000000000128 .L0 
     /tmp/ccWp4KVo.s:238    .text:000000000000012c .L0 
     /tmp/ccWp4KVo.s:241    .text:0000000000000134 .L0 
     /tmp/ccWp4KVo.s:242    .text:0000000000000134 .L0 
     /tmp/ccWp4KVo.s:244    .text:0000000000000138 .L0 
     /tmp/ccWp4KVo.s:247    .text:0000000000000138 .L0 
     /tmp/ccWp4KVo.s:248    .text:0000000000000138 .L0 
     /tmp/ccWp4KVo.s:252    .text:0000000000000140 .L0 
     /tmp/ccWp4KVo.s:253    .text:0000000000000144 .L0 
     /tmp/ccWp4KVo.s:255    .text:0000000000000148 .L0 
GAS LISTING /tmp/ccWp4KVo.s 			page 19


     /tmp/ccWp4KVo.s:256    .text:0000000000000148 .L0 
     /tmp/ccWp4KVo.s:258    .text:000000000000014c .L0 
     /tmp/ccWp4KVo.s:260    .text:0000000000000150 .L0 
     /tmp/ccWp4KVo.s:230    .text:0000000000000128 _ZN3TCBD1Ev
     /tmp/ccWp4KVo.s:276    .text:0000000000000150 _ZN3TCB8dispatchEv
     /tmp/ccWp4KVo.s:279    .text:0000000000000150 .L0 
     /tmp/ccWp4KVo.s:280    .text:0000000000000150 .L0 
     /tmp/ccWp4KVo.s:281    .text:0000000000000154 .L0 
     /tmp/ccWp4KVo.s:285    .text:0000000000000160 .L0 
     /tmp/ccWp4KVo.s:286    .text:0000000000000160 .L0 
     /tmp/ccWp4KVo.s:287    .text:0000000000000160 .L0 
     /tmp/ccWp4KVo.s:289    .text:0000000000000164 .L0 
     /tmp/ccWp4KVo.s:291    .text:0000000000000164 .L0 
     /tmp/ccWp4KVo.s:292    .text:0000000000000164 .L0 
     /tmp/ccWp4KVo.s:295    .text:000000000000016c .L0 
     /tmp/ccWp4KVo.s:296    .text:000000000000016c .L0 
     /tmp/ccWp4KVo.s:298    .text:0000000000000170 .L0 
     /tmp/ccWp4KVo.s:302    .text:0000000000000178 .L0 
     /tmp/ccWp4KVo.s:303    .text:0000000000000178 .L0 
     /tmp/ccWp4KVo.s:306    .text:0000000000000180 .L0 
     /tmp/ccWp4KVo.s:308    .text:0000000000000188 .L0 
     /tmp/ccWp4KVo.s:310    .text:000000000000018c .L0 
     /tmp/ccWp4KVo.s:311    .text:000000000000018c .L0 
     /tmp/ccWp4KVo.s:313    .text:0000000000000190 .L0 
     /tmp/ccWp4KVo.s:314    .text:0000000000000190 .L0 
     /tmp/ccWp4KVo.s:317    .text:0000000000000198 .L0 
     /tmp/ccWp4KVo.s:318    .text:0000000000000198 .L0 
     /tmp/ccWp4KVo.s:324    .text:00000000000001ac .L0 
     /tmp/ccWp4KVo.s:325    .text:00000000000001b0 .L0 
     /tmp/ccWp4KVo.s:326    .text:00000000000001b0 .L0 
     /tmp/ccWp4KVo.s:328    .text:00000000000001b4 .L0 
     /tmp/ccWp4KVo.s:329    .text:00000000000001b4 .L0 
     /tmp/ccWp4KVo.s:331    .text:00000000000001b8 .L0 
     /tmp/ccWp4KVo.s:334    .text:00000000000001bc .L0 
     /tmp/ccWp4KVo.s:338    .text:00000000000001c0 .L0 
     /tmp/ccWp4KVo.s:340    .text:00000000000001c0 .L0 
     /tmp/ccWp4KVo.s:341    .text:00000000000001c0 .L0 
     /tmp/ccWp4KVo.s:345    .text:00000000000001d0 .L0 
     /tmp/ccWp4KVo.s:351    .text:00000000000001d0 _ZN3TCBnwEm
     /tmp/ccWp4KVo.s:354    .text:00000000000001d0 .L0 
     /tmp/ccWp4KVo.s:356    .text:00000000000001d0 .L0 
     /tmp/ccWp4KVo.s:357    .text:00000000000001d4 .L0 
     /tmp/ccWp4KVo.s:360    .text:00000000000001dc .L0 
     /tmp/ccWp4KVo.s:361    .text:00000000000001dc .L0 
     /tmp/ccWp4KVo.s:363    .text:00000000000001e0 .L0 
     /tmp/ccWp4KVo.s:365    .text:00000000000001e0 .L0 
     /tmp/ccWp4KVo.s:366    .text:00000000000001e0 .L0 
     /tmp/ccWp4KVo.s:371    .text:00000000000001f0 .L0 
     /tmp/ccWp4KVo.s:372    .text:00000000000001f4 .L0 
     /tmp/ccWp4KVo.s:374    .text:00000000000001f8 .L0 
     /tmp/ccWp4KVo.s:375    .text:00000000000001f8 .L0 
     /tmp/ccWp4KVo.s:377    .text:00000000000001fc .L0 
     /tmp/ccWp4KVo.s:379    .text:0000000000000200 .L0 
     /tmp/ccWp4KVo.s:390    .text:0000000000000200 _ZN3TCB10initializeEv
     /tmp/ccWp4KVo.s:393    .text:0000000000000200 .L0 
     /tmp/ccWp4KVo.s:394    .text:0000000000000200 .L0 
     /tmp/ccWp4KVo.s:395    .text:0000000000000204 .L0 
GAS LISTING /tmp/ccWp4KVo.s 			page 20


     /tmp/ccWp4KVo.s:400    .text:0000000000000214 .L0 
     /tmp/ccWp4KVo.s:401    .text:0000000000000214 .L0 
     /tmp/ccWp4KVo.s:402    .text:0000000000000214 .L0 
     /tmp/ccWp4KVo.s:403    .text:0000000000000214 .L0 
     /tmp/ccWp4KVo.s:405    .text:0000000000000218 .L0 
     /tmp/ccWp4KVo.s:407    .text:0000000000000218 .L0 
     /tmp/ccWp4KVo.s:408    .text:0000000000000218 .L0 
     /tmp/ccWp4KVo.s:415    .text:000000000000023c .L0 
     /tmp/ccWp4KVo.s:417    .text:0000000000000244 .L0 
     /tmp/ccWp4KVo.s:418    .text:0000000000000244 .L0 
     /tmp/ccWp4KVo.s:424    .text:0000000000000258 .L0 
     /tmp/ccWp4KVo.s:432    .text:0000000000000270 .L0 
     /tmp/ccWp4KVo.s:434    .text:0000000000000278 .L0 
     /tmp/ccWp4KVo.s:435    .text:0000000000000278 .L0 
     /tmp/ccWp4KVo.s:438    .text:0000000000000280 .L0 
     /tmp/ccWp4KVo.s:439    .text:0000000000000280 .L0 
     /tmp/ccWp4KVo.s:445    .text:0000000000000290 .L0 
     /tmp/ccWp4KVo.s:446    .text:0000000000000290 .L0 
     /tmp/ccWp4KVo.s:453    .text:00000000000002a4 .L0 
     /tmp/ccWp4KVo.s:461    .text:00000000000002c0 .L0 
     /tmp/ccWp4KVo.s:463    .text:00000000000002c8 .L0 
     /tmp/ccWp4KVo.s:464    .text:00000000000002c8 .L0 
     /tmp/ccWp4KVo.s:467    .text:00000000000002d0 .L0 
     /tmp/ccWp4KVo.s:468    .text:00000000000002d0 .L0 
     /tmp/ccWp4KVo.s:472    .text:00000000000002dc .L0 
     /tmp/ccWp4KVo.s:473    .text:00000000000002e0 .L0 
     /tmp/ccWp4KVo.s:475    .text:00000000000002e4 .L0 
     /tmp/ccWp4KVo.s:476    .text:00000000000002e4 .L0 
     /tmp/ccWp4KVo.s:478    .text:00000000000002e8 .L0 
     /tmp/ccWp4KVo.s:480    .text:00000000000002ec .L0 
     /tmp/ccWp4KVo.s:483    .text:00000000000002f0 .L0 
     /tmp/ccWp4KVo.s:485    .text:00000000000002f4 .L0 
     /tmp/ccWp4KVo.s:491    .text:00000000000002f4 _ZN3TCBdlEPv
     /tmp/ccWp4KVo.s:494    .text:00000000000002f4 .L0 
     /tmp/ccWp4KVo.s:496    .text:00000000000002f4 .L0 
     /tmp/ccWp4KVo.s:497    .text:00000000000002f8 .L0 
     /tmp/ccWp4KVo.s:500    .text:0000000000000300 .L0 
     /tmp/ccWp4KVo.s:501    .text:0000000000000300 .L0 
     /tmp/ccWp4KVo.s:503    .text:0000000000000304 .L0 
     /tmp/ccWp4KVo.s:506    .text:0000000000000308 .L0 
     /tmp/ccWp4KVo.s:507    .text:0000000000000308 .L0 
     /tmp/ccWp4KVo.s:512    .text:0000000000000318 .L0 
     /tmp/ccWp4KVo.s:513    .text:000000000000031c .L0 
     /tmp/ccWp4KVo.s:515    .text:0000000000000320 .L0 
     /tmp/ccWp4KVo.s:516    .text:0000000000000320 .L0 
     /tmp/ccWp4KVo.s:518    .text:0000000000000324 .L0 
     /tmp/ccWp4KVo.s:520    .text:0000000000000328 .L0 
     /tmp/ccWp4KVo.s:526    .text:0000000000000328 _ZN3TCB11thread_freeEPv
     /tmp/ccWp4KVo.s:529    .text:0000000000000328 .L0 
     /tmp/ccWp4KVo.s:531    .text:0000000000000328 .L0 
     /tmp/ccWp4KVo.s:532    .text:000000000000032c .L0 
     /tmp/ccWp4KVo.s:534    .text:0000000000000330 .L0 
     /tmp/ccWp4KVo.s:536    .text:0000000000000334 .L0 
     /tmp/ccWp4KVo.s:539    .text:0000000000000334 .L0 
     /tmp/ccWp4KVo.s:540    .text:0000000000000334 .L0 
  src/kernel/tcb.cpp:111    .text:0000000000000334 .L0 
     /tmp/ccWp4KVo.s:546    .text:0000000000000338 .L0 
GAS LISTING /tmp/ccWp4KVo.s 			page 21


  src/kernel/tcb.cpp:112    .text:0000000000000338 .L0 
     /tmp/ccWp4KVo.s:551    .text:000000000000033c .L0 
  src/kernel/tcb.cpp:113    .text:000000000000033c .L0 
     /tmp/ccWp4KVo.s:556    .text:0000000000000340 .L0 
     /tmp/ccWp4KVo.s:557    .text:0000000000000340 .L0 
  src/kernel/tcb.cpp:117    .text:0000000000000340 .L0 
     /tmp/ccWp4KVo.s:563    .text:0000000000000344 .L0 
     /tmp/ccWp4KVo.s:565    .text:0000000000000344 .L0 
     /tmp/ccWp4KVo.s:568    .text:000000000000034c .L0 
     /tmp/ccWp4KVo.s:569    .text:000000000000034c .L0 
     /tmp/ccWp4KVo.s:571    .text:0000000000000350 .L0 
     /tmp/ccWp4KVo.s:573    .text:0000000000000354 .L0 
     /tmp/ccWp4KVo.s:591    .bss:0000000000000008 _ZN3TCB8tcbCacheE
     /tmp/ccWp4KVo.s:599    .bss:0000000000000018 _ZN3TCB16timeSliceCounterE
     /tmp/ccWp4KVo.s:603    .bss:0000000000000020 _ZN3TCB9currentSPE
     /tmp/ccWp4KVo.s:607    .bss:0000000000000028 _ZN3TCB9currentPCE
     /tmp/ccWp4KVo.s:595    .bss:0000000000000010 _ZN3TCB10putcThreadE
     /tmp/ccWp4KVo.s:587    .bss:0000000000000000 _ZN3TCB7runningE
     /tmp/ccWp4KVo.s:584    .bss:0000000000000000 .LANCHOR0
     /tmp/ccWp4KVo.s:620    .text:0000000000000354 .L0 
     /tmp/ccWp4KVo.s:97     .text:0000000000000068 .L0 
     /tmp/ccWp4KVo.s:164    .text:00000000000000d4 .L0 
     /tmp/ccWp4KVo.s:292    .text:0000000000000164 .L0 
     /tmp/ccWp4KVo.s:306    .text:0000000000000180 .L0 
     /tmp/ccWp4KVo.s:318    .text:0000000000000198 .L0 
     /tmp/ccWp4KVo.s:366    .text:00000000000001e0 .L0 
     /tmp/ccWp4KVo.s:408    .text:0000000000000218 .L0 
     /tmp/ccWp4KVo.s:409    .text:0000000000000220 .L0 
     /tmp/ccWp4KVo.s:384    .rodata.str1.8:0000000000000000 .LC0
     /tmp/ccWp4KVo.s:411    .text:000000000000022c .L0 
     /tmp/ccWp4KVo.s:415    .text:000000000000023c .L0 
     /tmp/ccWp4KVo.s:432    .text:0000000000000270 .L0 
     /tmp/ccWp4KVo.s:456    .text:00000000000002b0 .L0 
     /tmp/ccWp4KVo.s:461    .text:00000000000002c0 .L0 
     /tmp/ccWp4KVo.s:507    .text:0000000000000308 .L0 
     /tmp/ccWp4KVo.s:176    .text:00000000000000ec .L10
     /tmp/ccWp4KVo.s:182    .text:00000000000000f4 .L11
     /tmp/ccWp4KVo.s:151    .text:00000000000000c0 .L8
     /tmp/ccWp4KVo.s:161    .text:00000000000000d0 .L9
     /tmp/ccWp4KVo.s:337    .text:00000000000001c0 .L21
     /tmp/ccWp4KVo.s:322    .text:00000000000001ac .L17
     /tmp/ccWp4KVo.s:300    .text:0000000000000178 .L18
     /tmp/ccWp4KVo.s:430    .text:0000000000000270 .L25
     /tmp/ccWp4KVo.s:459    .text:00000000000002c0 .L26
     /tmp/ccWp4KVo.s:2594   .debug_abbrev:0000000000000000 .Ldebug_abbrev0
     /tmp/ccWp4KVo.s:4258   .debug_str:00000000000011d2 .LASF269
     /tmp/ccWp4KVo.s:3882   .debug_str:0000000000000485 .LASF270
     /tmp/ccWp4KVo.s:4194   .debug_str:0000000000000f2b .LASF271
     /tmp/ccWp4KVo.s:5      .text:0000000000000000 .Ltext0
     /tmp/ccWp4KVo.s:610    .text:0000000000000354 .Letext0
     /tmp/ccWp4KVo.s:3756   .debug_line:0000000000000000 .Ldebug_line0
     /tmp/ccWp4KVo.s:3792   .debug_str:000000000000016b .LASF0
     /tmp/ccWp4KVo.s:4254   .debug_str:00000000000011b7 .LASF1
     /tmp/ccWp4KVo.s:4200   .debug_str:0000000000000f87 .LASF2
     /tmp/ccWp4KVo.s:4158   .debug_str:0000000000000df0 .LASF4
     /tmp/ccWp4KVo.s:4170   .debug_str:0000000000000e7c .LASF3
     /tmp/ccWp4KVo.s:3904   .debug_str:0000000000000521 .LASF5
GAS LISTING /tmp/ccWp4KVo.s 			page 22


     /tmp/ccWp4KVo.s:3964   .debug_str:0000000000000760 .LASF6
     /tmp/ccWp4KVo.s:4094   .debug_str:0000000000000bf2 .LASF7
     /tmp/ccWp4KVo.s:3828   .debug_str:0000000000000297 .LASF8
     /tmp/ccWp4KVo.s:4238   .debug_str:00000000000010e2 .LASF9
     /tmp/ccWp4KVo.s:3908   .debug_str:0000000000000533 .LASF10
     /tmp/ccWp4KVo.s:3848   .debug_str:000000000000032d .LASF11
     /tmp/ccWp4KVo.s:3984   .debug_str:0000000000000817 .LASF12
     /tmp/ccWp4KVo.s:3918   .debug_str:0000000000000588 .LASF13
     /tmp/ccWp4KVo.s:4138   .debug_str:0000000000000d7b .LASF14
     /tmp/ccWp4KVo.s:3920   .debug_str:0000000000000598 .LASF15
     /tmp/ccWp4KVo.s:3878   .debug_str:0000000000000463 .LASF16
     /tmp/ccWp4KVo.s:3954   .debug_str:0000000000000700 .LASF17
     /tmp/ccWp4KVo.s:4178   .debug_str:0000000000000ebd .LASF18
     /tmp/ccWp4KVo.s:4292   .debug_str:0000000000001383 .LASF19
     /tmp/ccWp4KVo.s:3856   .debug_str:0000000000000380 .LASF20
     /tmp/ccWp4KVo.s:3764   .debug_str:0000000000000032 .LASF21
     /tmp/ccWp4KVo.s:4290   .debug_str:0000000000001375 .LASF22
     /tmp/ccWp4KVo.s:4018   .debug_str:0000000000000984 .LASF23
     /tmp/ccWp4KVo.s:3972   .debug_str:00000000000007b9 .LASF24
     /tmp/ccWp4KVo.s:4152   .debug_str:0000000000000dd1 .LASF33
     /tmp/ccWp4KVo.s:4146   .debug_str:0000000000000daa .LASF25
     /tmp/ccWp4KVo.s:4042   .debug_str:0000000000000a3e .LASF26
     /tmp/ccWp4KVo.s:4090   .debug_str:0000000000000be4 .LASF27
     /tmp/ccWp4KVo.s:3804   .debug_str:00000000000001c8 .LASF28
     /tmp/ccWp4KVo.s:4082   .debug_str:0000000000000bc0 .LASF29
     /tmp/ccWp4KVo.s:3836   .debug_str:00000000000002c3 .LASF30
     /tmp/ccWp4KVo.s:4302   .debug_str:00000000000013e8 .LASF31
     /tmp/ccWp4KVo.s:4134   .debug_str:0000000000000d5e .LASF32
     /tmp/ccWp4KVo.s:4140   .debug_str:0000000000000d87 .LASF34
     /tmp/ccWp4KVo.s:4282   .debug_str:000000000000133d .LASF35
     /tmp/ccWp4KVo.s:4124   .debug_str:0000000000000d15 .LASF37
     /tmp/ccWp4KVo.s:4110   .debug_str:0000000000000c88 .LASF36
     /tmp/ccWp4KVo.s:4236   .debug_str:00000000000010cf .LASF38
     /tmp/ccWp4KVo.s:3810   .debug_str:00000000000001ec .LASF39
     /tmp/ccWp4KVo.s:3794   .debug_str:0000000000000178 .LASF40
     /tmp/ccWp4KVo.s:3784   .debug_str:00000000000000f8 .LASF41
     /tmp/ccWp4KVo.s:3970   .debug_str:00000000000007a9 .LASF42
     /tmp/ccWp4KVo.s:4098   .debug_str:0000000000000c10 .LASF43
     /tmp/ccWp4KVo.s:3922   .debug_str:00000000000005ae .LASF44
     /tmp/ccWp4KVo.s:4086   .debug_str:0000000000000bd5 .LASF45
     /tmp/ccWp4KVo.s:4088   .debug_str:0000000000000bdc .LASF97
     /tmp/ccWp4KVo.s:3796   .debug_str:000000000000017d .LASF50
     /tmp/ccWp4KVo.s:4050   .debug_str:0000000000000a8d .LASF46
     /tmp/ccWp4KVo.s:4014   .debug_str:000000000000095e .LASF47
     /tmp/ccWp4KVo.s:3950   .debug_str:00000000000006d9 .LASF48
     /tmp/ccWp4KVo.s:4148   .debug_str:0000000000000daf .LASF49
     /tmp/ccWp4KVo.s:4092   .debug_str:0000000000000bed .LASF51
     /tmp/ccWp4KVo.s:3832   .debug_str:00000000000002b9 .LASF52
     /tmp/ccWp4KVo.s:4180   .debug_str:0000000000000ec5 .LASF53
     /tmp/ccWp4KVo.s:3760   .debug_str:0000000000000013 .LASF54
     /tmp/ccWp4KVo.s:3854   .debug_str:0000000000000369 .LASF55
     /tmp/ccWp4KVo.s:3926   .debug_str:00000000000005d7 .LASF56
     /tmp/ccWp4KVo.s:4266   .debug_str:00000000000012da .LASF57
     /tmp/ccWp4KVo.s:4038   .debug_str:0000000000000a27 .LASF59
     /tmp/ccWp4KVo.s:4208   .debug_str:0000000000000fb5 .LASF61
     /tmp/ccWp4KVo.s:3800   .debug_str:0000000000000199 .LASF63
     /tmp/ccWp4KVo.s:4058   .debug_str:0000000000000ab5 .LASF58
GAS LISTING /tmp/ccWp4KVo.s 			page 23


     /tmp/ccWp4KVo.s:3936   .debug_str:0000000000000659 .LASF60
     /tmp/ccWp4KVo.s:4054   .debug_str:0000000000000aa0 .LASF62
     /tmp/ccWp4KVo.s:3806   .debug_str:00000000000001cd .LASF64
     /tmp/ccWp4KVo.s:3928   .debug_str:00000000000005dc .LASF65
     /tmp/ccWp4KVo.s:4172   .debug_str:0000000000000e8e .LASF66
     /tmp/ccWp4KVo.s:3996   .debug_str:0000000000000884 .LASF67
     /tmp/ccWp4KVo.s:4046   .debug_str:0000000000000a72 .LASF69
     /tmp/ccWp4KVo.s:3906   .debug_str:0000000000000528 .LASF68
     /tmp/ccWp4KVo.s:4186   .debug_str:0000000000000ee1 .LASF70
     /tmp/ccWp4KVo.s:4084   .debug_str:0000000000000bc5 .LASF71
     /tmp/ccWp4KVo.s:3860   .debug_str:0000000000000395 .LASF72
     /tmp/ccWp4KVo.s:3910   .debug_str:0000000000000542 .LASF73
     /tmp/ccWp4KVo.s:3820   .debug_str:000000000000024e .LASF74
     /tmp/ccWp4KVo.s:4234   .debug_str:00000000000010c1 .LASF75
     /tmp/ccWp4KVo.s:3866   .debug_str:00000000000003d5 .LASF76
     /tmp/ccWp4KVo.s:3772   .debug_str:000000000000008f .LASF77
     /tmp/ccWp4KVo.s:4128   .debug_str:0000000000000d30 .LASF78
     /tmp/ccWp4KVo.s:4048   .debug_str:0000000000000a85 .LASF79
     /tmp/ccWp4KVo.s:3978   .debug_str:00000000000007f4 .LASF80
     /tmp/ccWp4KVo.s:3834   .debug_str:00000000000002be .LASF81
     /tmp/ccWp4KVo.s:4184   .debug_str:0000000000000edc .LASF82
     /tmp/ccWp4KVo.s:4056   .debug_str:0000000000000ab0 .LASF83
     /tmp/ccWp4KVo.s:4154   .debug_str:0000000000000dd7 .LASF84
     /tmp/ccWp4KVo.s:3774   .debug_str:000000000000009b .LASF85
     /tmp/ccWp4KVo.s:3898   .debug_str:0000000000000501 .LASF86
     /tmp/ccWp4KVo.s:4036   .debug_str:0000000000000a1f .LASF87
     /tmp/ccWp4KVo.s:3788   .debug_str:0000000000000126 .LASF88
     /tmp/ccWp4KVo.s:4114   .debug_str:0000000000000cae .LASF89
     /tmp/ccWp4KVo.s:4192   .debug_str:0000000000000f22 .LASF90
     /tmp/ccWp4KVo.s:4052   .debug_str:0000000000000a95 .LASF91
     /tmp/ccWp4KVo.s:4276   .debug_str:0000000000001309 .LASF92
     /tmp/ccWp4KVo.s:4034   .debug_str:0000000000000a14 .LASF93
     /tmp/ccWp4KVo.s:4206   .debug_str:0000000000000fa4 .LASF94
     /tmp/ccWp4KVo.s:4270   .debug_str:00000000000012e9 .LASF95
     /tmp/ccWp4KVo.s:3982   .debug_str:0000000000000807 .LASF96
     /tmp/ccWp4KVo.s:3880   .debug_str:0000000000000479 .LASF98
     /tmp/ccWp4KVo.s:4028   .debug_str:00000000000009cd .LASF99
     /tmp/ccWp4KVo.s:4274   .debug_str:00000000000012fd .LASF100
     /tmp/ccWp4KVo.s:4182   .debug_str:0000000000000ed0 .LASF101
     /tmp/ccWp4KVo.s:3780   .debug_str:00000000000000d6 .LASF102
     /tmp/ccWp4KVo.s:4264   .debug_str:00000000000012cd .LASF103
     /tmp/ccWp4KVo.s:3886   .debug_str:00000000000004b7 .LASF104
     /tmp/ccWp4KVo.s:4204   .debug_str:0000000000000f9c .LASF105
     /tmp/ccWp4KVo.s:4228   .debug_str:0000000000001090 .LASF106
     /tmp/ccWp4KVo.s:3976   .debug_str:00000000000007ee .LASF107
     /tmp/ccWp4KVo.s:4112   .debug_str:0000000000000c90 .LASF108
     /tmp/ccWp4KVo.s:4304   .debug_str:00000000000013f4 .LASF109
     /tmp/ccWp4KVo.s:3790   .debug_str:0000000000000130 .LASF110
     /tmp/ccWp4KVo.s:4000   .debug_str:00000000000008aa .LASF111
     /tmp/ccWp4KVo.s:4272   .debug_str:00000000000012f2 .LASF112
     /tmp/ccWp4KVo.s:3850   .debug_str:000000000000033c .LASF113
     /tmp/ccWp4KVo.s:4260   .debug_str:00000000000012a2 .LASF114
     /tmp/ccWp4KVo.s:3966   .debug_str:0000000000000773 .LASF115
     /tmp/ccWp4KVo.s:3852   .debug_str:000000000000035f .LASF116
     /tmp/ccWp4KVo.s:4268   .debug_str:00000000000012df .LASF117
     /tmp/ccWp4KVo.s:4176   .debug_str:0000000000000eb3 .LASF118
     /tmp/ccWp4KVo.s:4116   .debug_str:0000000000000cb7 .LASF119
GAS LISTING /tmp/ccWp4KVo.s 			page 24


     /tmp/ccWp4KVo.s:4188   .debug_str:0000000000000ef7 .LASF272
     /tmp/ccWp4KVo.s:3940   .debug_str:0000000000000683 .LASF273
     /tmp/ccWp4KVo.s:4230   .debug_str:00000000000010af .LASF120
     /tmp/ccWp4KVo.s:4010   .debug_str:0000000000000933 .LASF121
     /tmp/ccWp4KVo.s:3944   .debug_str:00000000000006ac .LASF122
     /tmp/ccWp4KVo.s:4174   .debug_str:0000000000000e9d .LASF123
     /tmp/ccWp4KVo.s:3802   .debug_str:00000000000001ac .LASF124
     /tmp/ccWp4KVo.s:4132   .debug_str:0000000000000d50 .LASF125
     /tmp/ccWp4KVo.s:3884   .debug_str:0000000000000498 .LASF127
     /tmp/ccWp4KVo.s:4214   .debug_str:0000000000000feb .LASF126
     /tmp/ccWp4KVo.s:3890   .debug_str:00000000000004c8 .LASF128
     /tmp/ccWp4KVo.s:3838   .debug_str:00000000000002cd .LASF129
     /tmp/ccWp4KVo.s:4040   .debug_str:0000000000000a33 .LASF130
     /tmp/ccWp4KVo.s:3842   .debug_str:00000000000002e6 .LASF131
     /tmp/ccWp4KVo.s:4196   .debug_str:0000000000000f5c .LASF132
     /tmp/ccWp4KVo.s:4144   .debug_str:0000000000000d99 .LASF133
     /tmp/ccWp4KVo.s:4168   .debug_str:0000000000000e65 .LASF134
     /tmp/ccWp4KVo.s:4122   .debug_str:0000000000000cf1 .LASF135
     /tmp/ccWp4KVo.s:4250   .debug_str:000000000000118f .LASF136
     /tmp/ccWp4KVo.s:4240   .debug_str:00000000000010f0 .LASF137
     /tmp/ccWp4KVo.s:3826   .debug_str:000000000000027c .LASF138
     /tmp/ccWp4KVo.s:3974   .debug_str:00000000000007c6 .LASF139
     /tmp/ccWp4KVo.s:3862   .debug_str:00000000000003a5 .LASF140
     /tmp/ccWp4KVo.s:4198   .debug_str:0000000000000f61 .LASF141
     /tmp/ccWp4KVo.s:3998   .debug_str:000000000000088d .LASF142
     /tmp/ccWp4KVo.s:4076   .debug_str:0000000000000b7a .LASF143
     /tmp/ccWp4KVo.s:3786   .debug_str:0000000000000107 .LASF144
     /tmp/ccWp4KVo.s:3930   .debug_str:00000000000005e1 .LASF145
     /tmp/ccWp4KVo.s:3946   .debug_str:00000000000006b2 .LASF146
     /tmp/ccWp4KVo.s:4212   .debug_str:0000000000000fc4 .LASF147
     /tmp/ccWp4KVo.s:4060   .debug_str:0000000000000ac2 .LASF148
     /tmp/ccWp4KVo.s:3876   .debug_str:0000000000000440 .LASF149
     /tmp/ccWp4KVo.s:3864   .debug_str:00000000000003be .LASF150
     /tmp/ccWp4KVo.s:4220   .debug_str:0000000000001025 .LASF151
     /tmp/ccWp4KVo.s:4244   .debug_str:0000000000001132 .LASF152
     /tmp/ccWp4KVo.s:4068   .debug_str:0000000000000b27 .LASF153
     /tmp/ccWp4KVo.s:3816   .debug_str:000000000000022b .LASF154
     /tmp/ccWp4KVo.s:4066   .debug_str:0000000000000b02 .LASF155
     /tmp/ccWp4KVo.s:4218   .debug_str:000000000000100d .LASF156
     /tmp/ccWp4KVo.s:3934   .debug_str:0000000000000634 .LASF157
     /tmp/ccWp4KVo.s:3840   .debug_str:00000000000002d3 .LASF158
     /tmp/ccWp4KVo.s:4002   .debug_str:00000000000008cd .LASF159
     /tmp/ccWp4KVo.s:3968   .debug_str:0000000000000796 .LASF160
     /tmp/ccWp4KVo.s:4016   .debug_str:0000000000000964 .LASF161
     /tmp/ccWp4KVo.s:3768   .debug_str:0000000000000058 .LASF162
     /tmp/ccWp4KVo.s:4246   .debug_str:0000000000001148 .LASF163
     /tmp/ccWp4KVo.s:4280   .debug_str:0000000000001324 .LASF164
     /tmp/ccWp4KVo.s:3912   .debug_str:000000000000054c .LASF165
     /tmp/ccWp4KVo.s:3924   .debug_str:00000000000005bb .LASF166
     /tmp/ccWp4KVo.s:4044   .debug_str:0000000000000a49 .LASF167
     /tmp/ccWp4KVo.s:3758   .debug_str:0000000000000000 .LASF168
     /tmp/ccWp4KVo.s:4164   .debug_str:0000000000000e27 .LASF169
     /tmp/ccWp4KVo.s:4232   .debug_str:00000000000010b5 .LASF170
     /tmp/ccWp4KVo.s:4150   .debug_str:0000000000000db7 .LASF171
     /tmp/ccWp4KVo.s:4108   .debug_str:0000000000000c77 .LASF172
     /tmp/ccWp4KVo.s:4032   .debug_str:00000000000009e8 .LASF173
     /tmp/ccWp4KVo.s:3776   .debug_str:00000000000000a5 .LASF174
GAS LISTING /tmp/ccWp4KVo.s 			page 25


     /tmp/ccWp4KVo.s:4104   .debug_str:0000000000000c3f .LASF175
     /tmp/ccWp4KVo.s:4190   .debug_str:0000000000000f0f .LASF176
     /tmp/ccWp4KVo.s:3770   .debug_str:000000000000006f .LASF177
     /tmp/ccWp4KVo.s:4284   .debug_str:0000000000001344 .LASF178
     /tmp/ccWp4KVo.s:4120   .debug_str:0000000000000cdc .LASF179
     /tmp/ccWp4KVo.s:4126   .debug_str:0000000000000d27 .LASF180
     /tmp/ccWp4KVo.s:4216   .debug_str:0000000000000ff8 .LASF181
     /tmp/ccWp4KVo.s:3858   .debug_str:000000000000038e .LASF182
     /tmp/ccWp4KVo.s:4156   .debug_str:0000000000000ddd .LASF183
     /tmp/ccWp4KVo.s:3900   .debug_str:0000000000000506 .LASF184
     /tmp/ccWp4KVo.s:4020   .debug_str:0000000000000989 .LASF185
     /tmp/ccWp4KVo.s:4256   .debug_str:00000000000011ca .LASF186
     /tmp/ccWp4KVo.s:3902   .debug_str:000000000000050d .LASF187
     /tmp/ccWp4KVo.s:4130   .debug_str:0000000000000d48 .LASF188
     /tmp/ccWp4KVo.s:4136   .debug_str:0000000000000d67 .LASF189
     /tmp/ccWp4KVo.s:3914   .debug_str:0000000000000572 .LASF190
     /tmp/ccWp4KVo.s:4030   .debug_str:00000000000009d2 .LASF191
     /tmp/ccWp4KVo.s:3892   .debug_str:00000000000004e6 .LASF192
     /tmp/ccWp4KVo.s:4078   .debug_str:0000000000000ba4 .LASF193
     /tmp/ccWp4KVo.s:3870   .debug_str:0000000000000413 .LASF194
     /tmp/ccWp4KVo.s:4300   .debug_str:00000000000013d0 .LASF195
     /tmp/ccWp4KVo.s:3818   .debug_str:0000000000000243 .LASF196
     /tmp/ccWp4KVo.s:4162   .debug_str:0000000000000e0f .LASF197
     /tmp/ccWp4KVo.s:4210   .debug_str:0000000000000fbd .LASF198
     /tmp/ccWp4KVo.s:3872   .debug_str:000000000000041e .LASF199
     /tmp/ccWp4KVo.s:3894   .debug_str:00000000000004f0 .LASF200
     /tmp/ccWp4KVo.s:3992   .debug_str:0000000000000852 .LASF201
     /tmp/ccWp4KVo.s:4202   .debug_str:0000000000000f95 .LASF202
     /tmp/ccWp4KVo.s:3824   .debug_str:0000000000000269 .LASF203
     /tmp/ccWp4KVo.s:3956   .debug_str:0000000000000705 .LASF204
     /tmp/ccWp4KVo.s:4296   .debug_str:00000000000013a4 .LASF205
     /tmp/ccWp4KVo.s:4102   .debug_str:0000000000000c2c .LASF206
     /tmp/ccWp4KVo.s:4306   .debug_str:0000000000001403 .LASF207
     /tmp/ccWp4KVo.s:4100   .debug_str:0000000000000c1a .LASF208
     /tmp/ccWp4KVo.s:3994   .debug_str:0000000000000865 .LASF209
     /tmp/ccWp4KVo.s:4012   .debug_str:000000000000094d .LASF210
     /tmp/ccWp4KVo.s:3952   .debug_str:00000000000006e2 .LASF211
     /tmp/ccWp4KVo.s:3938   .debug_str:0000000000000665 .LASF212
     /tmp/ccWp4KVo.s:3844   .debug_str:00000000000002eb .LASF213
     /tmp/ccWp4KVo.s:4096   .debug_str:0000000000000c05 .LASF214
     /tmp/ccWp4KVo.s:4118   .debug_str:0000000000000cc4 .LASF215
     /tmp/ccWp4KVo.s:3916   .debug_str:000000000000057c .LASF216
     /tmp/ccWp4KVo.s:4062   .debug_str:0000000000000ad8 .LASF217
     /tmp/ccWp4KVo.s:4080   .debug_str:0000000000000bba .LASF218
     /tmp/ccWp4KVo.s:4026   .debug_str:00000000000009bb .LASF219
     /tmp/ccWp4KVo.s:3874   .debug_str:0000000000000431 .LASF220
     /tmp/ccWp4KVo.s:3958   .debug_str:000000000000070c .LASF221
     /tmp/ccWp4KVo.s:3798   .debug_str:0000000000000184 .LASF222
     /tmp/ccWp4KVo.s:4008   .debug_str:0000000000000911 .LASF223
     /tmp/ccWp4KVo.s:4308   .debug_str:0000000000001424 .LASF224
     /tmp/ccWp4KVo.s:4226   .debug_str:0000000000001072 .LASF225
     /tmp/ccWp4KVo.s:3830   .debug_str:00000000000002a7 .LASF226
     /tmp/ccWp4KVo.s:4242   .debug_str:0000000000001113 .LASF227
     /tmp/ccWp4KVo.s:4298   .debug_str:00000000000013b7 .LASF228
     /tmp/ccWp4KVo.s:4074   .debug_str:0000000000000b54 .LASF229
     /tmp/ccWp4KVo.s:3766   .debug_str:000000000000003e .LASF230
     /tmp/ccWp4KVo.s:3932   .debug_str:000000000000060d .LASF231
GAS LISTING /tmp/ccWp4KVo.s 			page 26


     /tmp/ccWp4KVo.s:3868   .debug_str:00000000000003fd .LASF232
     /tmp/ccWp4KVo.s:4248   .debug_str:000000000000116c .LASF233
     /tmp/ccWp4KVo.s:3812   .debug_str:00000000000001f1 .LASF234
     /tmp/ccWp4KVo.s:4262   .debug_str:00000000000012a9 .LASF235
     /tmp/ccWp4KVo.s:3986   .debug_str:0000000000000827 .LASF236
     /tmp/ccWp4KVo.s:4222   .debug_str:0000000000001049 .LASF237
     /tmp/ccWp4KVo.s:4160   .debug_str:0000000000000df7 .LASF238
     /tmp/ccWp4KVo.s:4224   .debug_str:0000000000001069 .LASF239
     /tmp/ccWp4KVo.s:3942   .debug_str:0000000000000697 .LASF240
     /tmp/ccWp4KVo.s:3988   .debug_str:0000000000000837 .LASF241
     /tmp/ccWp4KVo.s:4278   .debug_str:0000000000001311 .LASF242
     /tmp/ccWp4KVo.s:3948   .debug_str:00000000000006cc .LASF243
     /tmp/ccWp4KVo.s:4166   .debug_str:0000000000000e47 .LASF244
     /tmp/ccWp4KVo.s:4022   .debug_str:000000000000099c .LASF245
     /tmp/ccWp4KVo.s:4106   .debug_str:0000000000000c5b .LASF246
     /tmp/ccWp4KVo.s:4142   .debug_str:0000000000000d8c .LASF247
     /tmp/ccWp4KVo.s:4006   .debug_str:00000000000008f7 .LASF248
     /tmp/ccWp4KVo.s:3990   .debug_str:000000000000083e .LASF274
     /tmp/ccWp4KVo.s:3778   .debug_str:00000000000000b4 .LASF275
     /tmp/ccWp4KVo.s:4064   .debug_str:0000000000000af1 .LASF249
     /tmp/ccWp4KVo.s:3782   .debug_str:00000000000000e3 .LASF250
     /tmp/ccWp4KVo.s:4294   .debug_str:0000000000001391 .LASF251
     /tmp/ccWp4KVo.s:3762   .debug_str:000000000000001f .LASF252
     /tmp/ccWp4KVo.s:3962   .debug_str:0000000000000745 .LASF253
     /tmp/ccWp4KVo.s:4252   .debug_str:00000000000011a5 .LASF254
     /tmp/ccWp4KVo.s:45     .text:0000000000000028 .LFB58
     /tmp/ccWp4KVo.s:73     .text:0000000000000050 .LFE58
     /tmp/ccWp4KVo.s:10     .text:0000000000000000 .LFB57
     /tmp/ccWp4KVo.s:39     .text:0000000000000028 .LFE57
     /tmp/ccWp4KVo.s:527    .text:0000000000000328 .LFB56
     /tmp/ccWp4KVo.s:574    .text:0000000000000354 .LFE56
     /tmp/ccWp4KVo.s:4072   .debug_str:0000000000000b4f .LASF255
     /tmp/ccWp4KVo.s:3587   .debug_loc:0000000000000000 .LLST8
     /tmp/ccWp4KVo.s:3888   .debug_str:00000000000004c3 .LASF256
     /tmp/ccWp4KVo.s:3601   .debug_loc:0000000000000039 .LLST9
     /tmp/ccWp4KVo.s:3615   .debug_loc:0000000000000072 .LLST10
     /tmp/ccWp4KVo.s:492    .text:00000000000002f4 .LFB55
     /tmp/ccWp4KVo.s:521    .text:0000000000000328 .LFE55
     /tmp/ccWp4KVo.s:3622   .debug_loc:0000000000000095 .LLST7
     /tmp/ccWp4KVo.s:510    .text:0000000000000318 .LVL37
     /tmp/ccWp4KVo.s:352    .text:00000000000001d0 .LFB54
     /tmp/ccWp4KVo.s:380    .text:0000000000000200 .LFE54
     /tmp/ccWp4KVo.s:3640   .debug_loc:00000000000000e1 .LLST5
     /tmp/ccWp4KVo.s:369    .text:00000000000001f0 .LVL24
     /tmp/ccWp4KVo.s:79     .text:0000000000000050 .LFB53
     /tmp/ccWp4KVo.s:117    .text:0000000000000094 .LFE53
     /tmp/ccWp4KVo.s:3654   .debug_loc:000000000000011a .LLST0
     /tmp/ccWp4KVo.s:94     .text:0000000000000068 .LVL3
     /tmp/ccWp4KVo.s:106    .text:0000000000000084 .LVL5
     /tmp/ccWp4KVo.s:277    .text:0000000000000150 .LFB52
     /tmp/ccWp4KVo.s:346    .text:00000000000001d0 .LFE52
     /tmp/ccWp4KVo.s:3668   .debug_loc:0000000000000153 .LLST4
     /tmp/ccWp4KVo.s:304    .text:0000000000000180 .LVL16
     /tmp/ccWp4KVo.s:315    .text:0000000000000198 .LVL17
     /tmp/ccWp4KVo.s:321    .text:00000000000001ac .LVL18
     /tmp/ccWp4KVo.s:343    .text:00000000000001cc .LVL21
     /tmp/ccWp4KVo.s:4070   .debug_str:0000000000000b4a .LASF257
GAS LISTING /tmp/ccWp4KVo.s 			page 27


     /tmp/ccWp4KVo.s:4004   .debug_str:00000000000008ed .LASF258
     /tmp/ccWp4KVo.s:3980   .debug_str:00000000000007fb .LASF259
     /tmp/ccWp4KVo.s:231    .text:0000000000000128 .LFB50
     /tmp/ccWp4KVo.s:261    .text:0000000000000150 .LFE50
     /tmp/ccWp4KVo.s:3679   .debug_loc:0000000000000189 .LLST3
     /tmp/ccWp4KVo.s:249    .text:0000000000000140 .LVL14
     /tmp/ccWp4KVo.s:197    .text:00000000000000fc .LFB48
     /tmp/ccWp4KVo.s:225    .text:0000000000000128 .LFE48
     /tmp/ccWp4KVo.s:3693   .debug_loc:00000000000001c2 .LLST2
     /tmp/ccWp4KVo.s:214    .text:0000000000000118 .LVL12
     /tmp/ccWp4KVo.s:3846   .debug_str:0000000000000316 .LASF260
     /tmp/ccWp4KVo.s:123    .text:0000000000000094 .LFB46
     /tmp/ccWp4KVo.s:189    .text:00000000000000fc .LFE46
     /tmp/ccWp4KVo.s:3707   .debug_loc:00000000000001fb .LLST1
     /tmp/ccWp4KVo.s:391    .text:0000000000000200 .LFB44
     /tmp/ccWp4KVo.s:486    .text:00000000000002f4 .LFE44
     /tmp/ccWp4KVo.s:3896   .debug_str:00000000000004f7 .LASF261
     /tmp/ccWp4KVo.s:3732   .debug_loc:000000000000025d .LLST6
     /tmp/ccWp4KVo.s:413    .text:000000000000023c .LVL25
     /tmp/ccWp4KVo.s:420    .text:0000000000000250 .LVL26
     /tmp/ccWp4KVo.s:429    .text:0000000000000270 .LVL27
     /tmp/ccWp4KVo.s:441    .text:000000000000028c .LVL28
     /tmp/ccWp4KVo.s:449    .text:000000000000029c .LVL31
     /tmp/ccWp4KVo.s:458    .text:00000000000002c0 .LVL32
     /tmp/ccWp4KVo.s:470    .text:00000000000002dc .LVL33
     /tmp/ccWp4KVo.s:3960   .debug_str:0000000000000728 .LASF262
     /tmp/ccWp4KVo.s:4024   .debug_str:00000000000009ab .LASF264
     /tmp/ccWp4KVo.s:4288   .debug_str:0000000000001359 .LASF263
     /tmp/ccWp4KVo.s:3822   .debug_str:0000000000000258 .LASF265
     /tmp/ccWp4KVo.s:4286   .debug_str:000000000000134d .LASF266
     /tmp/ccWp4KVo.s:3814   .debug_str:0000000000000208 .LASF267
     /tmp/ccWp4KVo.s:3808   .debug_str:00000000000001da .LASF268
     /tmp/ccWp4KVo.s:530    .text:0000000000000328 .LVL38
     /tmp/ccWp4KVo.s:561    .text:0000000000000344 .LVL40
     /tmp/ccWp4KVo.s:538    .text:0000000000000334 .LVL39
     /tmp/ccWp4KVo.s:566    .text:0000000000000348 .LVL41
     /tmp/ccWp4KVo.s:495    .text:00000000000002f4 .LVL35
     /tmp/ccWp4KVo.s:508    .text:0000000000000310 .LVL36
     /tmp/ccWp4KVo.s:355    .text:00000000000001d0 .LVL22
     /tmp/ccWp4KVo.s:367    .text:00000000000001e8 .LVL23
     /tmp/ccWp4KVo.s:82     .text:0000000000000050 .LVL2
     /tmp/ccWp4KVo.s:293    .text:000000000000016c .LVL15
     /tmp/ccWp4KVo.s:332    .text:00000000000001b8 .LVL19
     /tmp/ccWp4KVo.s:336    .text:00000000000001c0 .LVL20
     /tmp/ccWp4KVo.s:236    .text:0000000000000128 .LVL13
     /tmp/ccWp4KVo.s:200    .text:00000000000000fc .LVL10
     /tmp/ccWp4KVo.s:212    .text:0000000000000110 .LVL11
     /tmp/ccWp4KVo.s:126    .text:0000000000000094 .LVL6
     /tmp/ccWp4KVo.s:160    .text:00000000000000d0 .LVL7
     /tmp/ccWp4KVo.s:175    .text:00000000000000ec .LVL8
     /tmp/ccWp4KVo.s:185    .text:00000000000000f8 .LVL9
     /tmp/ccWp4KVo.s:443    .text:0000000000000290 .LVL29
     /tmp/ccWp4KVo.s:447    .text:0000000000000294 .LVL30
     /tmp/ccWp4KVo.s:481    .text:00000000000002ec .LVL34
     /tmp/ccWp4KVo.s:621    .debug_info:0000000000000000 .Ldebug_info0
     /tmp/ccWp4KVo.s:264    .gcc_except_table:0000000000000000 .LLSDA50

GAS LISTING /tmp/ccWp4KVo.s 			page 28


UNDEFINED SYMBOLS
_ZN5RiscV10popSppSpieEv
_ZN5RiscV14threadExitUtilEv
_Z5kfreePKv
__gxx_personality_v0
_ZN9Scheduler3getEv
_ZN5RiscV29jumpToDesignatedPrivilegeModeEv
_ZN3TCB13contextSwitchEPNS_7ContextES1_
_ZN9Scheduler3putEP3TCB
_Z16kmem_cache_allocP5Cache
_Z17kmem_cache_createPKcmPFvPvES3_
_ZN15MemoryAllocator7kmallocEm
_ZN5RiscV11putcWrapperEPv
_Z15kmem_cache_freeP5CachePv
