GAS LISTING /tmp/ccpglLOF.s 			page 1


   1              		.file	"tcb.cpp"
   2              		.option pic
   3              		.option norelax
   4              		.text
   5              	.Ltext0:
   6              		.align	2
   7              		.globl	_ZN3TCB4ctorEPv
   9              	_ZN3TCB4ctorEPv:
  10              	.LFB60:
  11              		.file 1 "src/kernel/tcb.cpp"
   1:src/kernel/tcb.cpp **** //
   2:src/kernel/tcb.cpp **** // Created by os on 5/18/22.
   3:src/kernel/tcb.cpp **** //
   4:src/kernel/tcb.cpp **** 
   5:src/kernel/tcb.cpp **** #include "../../h/kernel/tcb.hpp"
   6:src/kernel/tcb.cpp **** #include "../../h/kernel/memory_allocator.hpp"
   7:src/kernel/tcb.cpp **** #include "../../h/kernel/scheduler.hpp"
   8:src/kernel/tcb.cpp **** #include "../../h/user/syscall_c.h"
   9:src/kernel/tcb.cpp **** #include "../../h/user/printing.hpp"
  10:src/kernel/tcb.cpp **** #include "../../h/kernel/riscv.hpp"
  11:src/kernel/tcb.cpp **** 
  12:src/kernel/tcb.cpp **** TCB* TCB::running = nullptr;
  13:src/kernel/tcb.cpp **** 
  14:src/kernel/tcb.cpp **** TCB* TCB::putcThread = nullptr;
  15:src/kernel/tcb.cpp **** 
  16:src/kernel/tcb.cpp **** uint64 TCB::currentPC = 0;
  17:src/kernel/tcb.cpp **** 
  18:src/kernel/tcb.cpp **** uint64 TCB::currentSP = 0;
  19:src/kernel/tcb.cpp **** 
  20:src/kernel/tcb.cpp **** uint64 TCB::timeSliceCounter = 0;
  21:src/kernel/tcb.cpp **** 
  22:src/kernel/tcb.cpp **** kmem_cache_t* TCB::tcbCache = nullptr;
  23:src/kernel/tcb.cpp **** 
  24:src/kernel/tcb.cpp **** 
  25:src/kernel/tcb.cpp **** //create a thread for kernel main and a separate thread for console output execution
  26:src/kernel/tcb.cpp **** void TCB::initialize() {
  27:src/kernel/tcb.cpp **** 
  28:src/kernel/tcb.cpp ****     TCB::tcbCache = kmem_cache_create("TCB Cache", sizeof(TCB), TCB::ctor, TCB::dtor);
  29:src/kernel/tcb.cpp **** 
  30:src/kernel/tcb.cpp ****     TCB::running = new TCB(nullptr, nullptr, nullptr, DEFAULT_TIME_SLICE);
  31:src/kernel/tcb.cpp **** 
  32:src/kernel/tcb.cpp ****     TCB::running->mode = Mode::SUPERVISOR;
  33:src/kernel/tcb.cpp ****     //stack for thread that will be running console output
  34:src/kernel/tcb.cpp ****     uint64 *putcStack = (uint64*)kmalloc(DEFAULT_STACK_SIZE);
  35:src/kernel/tcb.cpp **** 
  36:src/kernel/tcb.cpp ****     //console output thread
  37:src/kernel/tcb.cpp ****     putcThread = new TCB(RiscV::putcWrapper, nullptr, putcStack, DEFAULT_TIME_SLICE);
  38:src/kernel/tcb.cpp **** 
  39:src/kernel/tcb.cpp ****     putcThread->mode = Mode::SUPERVISOR;
  40:src/kernel/tcb.cpp ****     //putcThread->context.ra = (uint64)RiscV::putcWrapper;
  41:src/kernel/tcb.cpp **** 
  42:src/kernel/tcb.cpp ****     Scheduler::put(putcThread);
  43:src/kernel/tcb.cpp **** }
  44:src/kernel/tcb.cpp **** 
  45:src/kernel/tcb.cpp **** //tcb constructor
  46:src/kernel/tcb.cpp **** TCB::TCB(Body body, void* args, uint64* stack, uint64 timeSlice){
  47:src/kernel/tcb.cpp **** 
GAS LISTING /tmp/ccpglLOF.s 			page 2


  48:src/kernel/tcb.cpp ****     this->body = body;
  49:src/kernel/tcb.cpp **** 
  50:src/kernel/tcb.cpp ****     this->args = args;
  51:src/kernel/tcb.cpp **** 
  52:src/kernel/tcb.cpp ****     this->timeSlice = timeSlice;
  53:src/kernel/tcb.cpp **** 
  54:src/kernel/tcb.cpp ****     this->stack = (body == nullptr) ? nullptr : stack;
  55:src/kernel/tcb.cpp **** 
  56:src/kernel/tcb.cpp ****     //initial context for thread
  57:src/kernel/tcb.cpp ****     this->context = {(body == nullptr) ? 0 : (uint64)((char*)stack + DEFAULT_STACK_SIZE),
  58:src/kernel/tcb.cpp ****                      (uint64)&wrapper };
  59:src/kernel/tcb.cpp **** }
  60:src/kernel/tcb.cpp **** 
  61:src/kernel/tcb.cpp **** //deallocate memory for thread stack
  62:src/kernel/tcb.cpp **** void TCB::free(){
  63:src/kernel/tcb.cpp ****     kfree(stack);
  64:src/kernel/tcb.cpp **** }
  65:src/kernel/tcb.cpp **** 
  66:src/kernel/tcb.cpp **** TCB::~TCB(){
  67:src/kernel/tcb.cpp ****     free();
  68:src/kernel/tcb.cpp **** }
  69:src/kernel/tcb.cpp **** 
  70:src/kernel/tcb.cpp **** //if currently running thread is not finished, asleep or blocked, put it in scheduler
  71:src/kernel/tcb.cpp **** //get new thread from scheduler and switch context
  72:src/kernel/tcb.cpp **** void TCB::dispatch() {
  73:src/kernel/tcb.cpp ****     TCB* old = running;
  74:src/kernel/tcb.cpp **** 
  75:src/kernel/tcb.cpp ****     if(old->status == Status::READY || old->status == Status::RUNNING) {
  76:src/kernel/tcb.cpp ****         Scheduler::put(old);
  77:src/kernel/tcb.cpp ****     }
  78:src/kernel/tcb.cpp **** 
  79:src/kernel/tcb.cpp ****     running = Scheduler::get();
  80:src/kernel/tcb.cpp **** 
  81:src/kernel/tcb.cpp ****     if(running) {
  82:src/kernel/tcb.cpp ****         running->status = Status::RUNNING;
  83:src/kernel/tcb.cpp ****         RiscV::jumpToDesignatedPrivilegeMode();
  84:src/kernel/tcb.cpp ****         contextSwitch(&old->context, &running->context);
  85:src/kernel/tcb.cpp ****     }
  86:src/kernel/tcb.cpp **** }
  87:src/kernel/tcb.cpp **** 
  88:src/kernel/tcb.cpp **** //wrapper function to run body function
  89:src/kernel/tcb.cpp **** void TCB::wrapper(void *args) {
  90:src/kernel/tcb.cpp ****     RiscV::popSppSpie();
  91:src/kernel/tcb.cpp **** 
  92:src/kernel/tcb.cpp ****     running->body(running->args);
  93:src/kernel/tcb.cpp ****     RiscV::threadExitUtil();
  94:src/kernel/tcb.cpp **** 
  95:src/kernel/tcb.cpp **** }
  96:src/kernel/tcb.cpp **** 
  97:src/kernel/tcb.cpp **** //overload operator new, to not use system call for every kernel object that is being allocated
  98:src/kernel/tcb.cpp **** void* TCB::operator new(size_t size){
  99:src/kernel/tcb.cpp ****     return kmem_cache_alloc(TCB::tcbCache);
 100:src/kernel/tcb.cpp **** }
 101:src/kernel/tcb.cpp **** 
 102:src/kernel/tcb.cpp **** //overload operator delete, to not use system call for every kernel object that is being deallocate
 103:src/kernel/tcb.cpp **** void TCB::operator delete(void *addr){
 104:src/kernel/tcb.cpp ****     kmem_cache_free(TCB::tcbCache, addr);
GAS LISTING /tmp/ccpglLOF.s 			page 3


 105:src/kernel/tcb.cpp **** }
 106:src/kernel/tcb.cpp **** 
 107:src/kernel/tcb.cpp **** //internal syscall to free space allocated to a thread
 108:src/kernel/tcb.cpp **** int TCB::thread_free(void *addr) {
 109:src/kernel/tcb.cpp ****     uint64 iptr = (uint64)addr;
 110:src/kernel/tcb.cpp **** 
 111:src/kernel/tcb.cpp ****     asm("mv a1, %[iptr]" : : [iptr] "r" (iptr));
 112:src/kernel/tcb.cpp ****     asm("li a0, 0x51");
 113:src/kernel/tcb.cpp ****     asm("ecall");
 114:src/kernel/tcb.cpp **** 
 115:src/kernel/tcb.cpp ****     uint64 status;
 116:src/kernel/tcb.cpp **** 
 117:src/kernel/tcb.cpp ****     asm("mv %[status], a0" : [status] "=r" (status));
 118:src/kernel/tcb.cpp ****     return status;
 119:src/kernel/tcb.cpp **** }
 120:src/kernel/tcb.cpp **** 
 121:src/kernel/tcb.cpp **** void TCB::ctor(void* tcb){
  12              		.loc 1 121 26
  13              		.cfi_startproc
  14              	.LVL0:
  15 0000 130101FF 		addi	sp,sp,-16
  16              		.cfi_def_cfa_offset 16
  17 0004 23348100 		sd	s0,8(sp)
  18              		.cfi_offset 8, -8
  19 0008 13040101 		addi	s0,sp,16
  20              		.cfi_def_cfa 8, 0
 122:src/kernel/tcb.cpp ****     ((TCB*)tcb)->status = Status::READY;
  21              		.loc 1 122 5
  22              		.loc 1 122 25 is_stmt 0
  23 000c 93071000 		li	a5,1
  24 0010 2328F500 		sw	a5,16(a0)
 123:src/kernel/tcb.cpp **** 
 124:src/kernel/tcb.cpp ****     ((TCB*)tcb)->next = nullptr;
  25              		.loc 1 124 5 is_stmt 1
  26              		.loc 1 124 23 is_stmt 0
  27 0014 23340504 		sd	zero,72(a0)
 125:src/kernel/tcb.cpp **** 
 126:src/kernel/tcb.cpp ****     ((TCB*)tcb)->mode = Mode::USER;
  28              		.loc 1 126 5 is_stmt 1
  29              		.loc 1 126 23 is_stmt 0
  30 0018 232A0500 		sw	zero,20(a0)
 127:src/kernel/tcb.cpp **** }
  31              		.loc 1 127 1
  32 001c 03348100 		ld	s0,8(sp)
  33              		.cfi_restore 8
  34              		.cfi_def_cfa 2, 16
  35 0020 13010101 		addi	sp,sp,16
  36              		.cfi_def_cfa_offset 0
  37 0024 67800000 		jr	ra
  38              		.cfi_endproc
  39              	.LFE60:
  41              		.align	2
  42              		.globl	_ZN3TCB4dtorEPv
  44              	_ZN3TCB4dtorEPv:
  45              	.LFB61:
 128:src/kernel/tcb.cpp **** 
 129:src/kernel/tcb.cpp **** void TCB::dtor(void* tcb){
GAS LISTING /tmp/ccpglLOF.s 			page 4


  46              		.loc 1 129 26 is_stmt 1
  47              		.cfi_startproc
  48              	.LVL1:
  49 0028 130101FF 		addi	sp,sp,-16
  50              		.cfi_def_cfa_offset 16
  51 002c 23348100 		sd	s0,8(sp)
  52              		.cfi_offset 8, -8
  53 0030 13040101 		addi	s0,sp,16
  54              		.cfi_def_cfa 8, 0
 130:src/kernel/tcb.cpp ****     ((TCB*)tcb)->status = Status::READY;
  55              		.loc 1 130 5
  56              		.loc 1 130 25 is_stmt 0
  57 0034 93071000 		li	a5,1
  58 0038 2328F500 		sw	a5,16(a0)
 131:src/kernel/tcb.cpp **** 
 132:src/kernel/tcb.cpp ****     ((TCB*)tcb)->next = nullptr;
  59              		.loc 1 132 5 is_stmt 1
  60              		.loc 1 132 23 is_stmt 0
  61 003c 23340504 		sd	zero,72(a0)
 133:src/kernel/tcb.cpp **** 
 134:src/kernel/tcb.cpp ****     ((TCB*)tcb)->mode = Mode::USER;
  62              		.loc 1 134 5 is_stmt 1
  63              		.loc 1 134 23 is_stmt 0
  64 0040 232A0500 		sw	zero,20(a0)
 135:src/kernel/tcb.cpp **** }...
  65              		.loc 1 135 1
  66 0044 03348100 		ld	s0,8(sp)
  67              		.cfi_restore 8
  68              		.cfi_def_cfa 2, 16
  69 0048 13010101 		addi	sp,sp,16
  70              		.cfi_def_cfa_offset 0
  71 004c 67800000 		jr	ra
  72              		.cfi_endproc
  73              	.LFE61:
  75              		.align	2
  76              		.globl	_ZN3TCB7wrapperEPv
  78              	_ZN3TCB7wrapperEPv:
  79              	.LFB56:
  89:src/kernel/tcb.cpp **** void TCB::wrapper(void *args) {
  80              		.loc 1 89 31 is_stmt 1
  81              		.cfi_startproc
  82              	.LVL2:
  83 0050 130101FF 		addi	sp,sp,-16
  84              		.cfi_def_cfa_offset 16
  85 0054 23341100 		sd	ra,8(sp)
  86 0058 23308100 		sd	s0,0(sp)
  87              		.cfi_offset 1, -8
  88              		.cfi_offset 8, -16
  89 005c 13040101 		addi	s0,sp,16
  90              		.cfi_def_cfa 8, 0
  90:src/kernel/tcb.cpp ****     RiscV::popSppSpie();
  91              		.loc 1 90 5
  90:src/kernel/tcb.cpp ****     RiscV::popSppSpie();
  92              		.loc 1 90 22 is_stmt 0
  93 0060 97000000 		call	_ZN5RiscV10popSppSpieEv@plt
  93      E7800000 
  94              	.LVL3:
GAS LISTING /tmp/ccpglLOF.s 			page 5


  92:src/kernel/tcb.cpp ****     running->body(running->args);
  95              		.loc 1 92 5 is_stmt 1
  92:src/kernel/tcb.cpp ****     running->body(running->args);
  96              		.loc 1 92 14 is_stmt 0
  97 0068 97070000 		ld	a5,.LANCHOR0
  97      83B70700 
  98 0070 03B78701 		ld	a4,24(a5)
  92:src/kernel/tcb.cpp ****     running->body(running->args);
  99              		.loc 1 92 18
 100 0074 03B50702 		ld	a0,32(a5)
 101 0078 E7000700 		jalr	a4
 102              	.LVL4:
  93:src/kernel/tcb.cpp ****     RiscV::threadExitUtil();
 103              		.loc 1 93 5 is_stmt 1
  93:src/kernel/tcb.cpp ****     RiscV::threadExitUtil();
 104              		.loc 1 93 26 is_stmt 0
 105 007c 97000000 		call	_ZN5RiscV14threadExitUtilEv@plt
 105      E7800000 
 106              	.LVL5:
  95:src/kernel/tcb.cpp **** }
 107              		.loc 1 95 1
 108 0084 83308100 		ld	ra,8(sp)
 109              		.cfi_restore 1
 110 0088 03340100 		ld	s0,0(sp)
 111              		.cfi_restore 8
 112              		.cfi_def_cfa 2, 16
 113 008c 13010101 		addi	sp,sp,16
 114              		.cfi_def_cfa_offset 0
 115 0090 67800000 		jr	ra
 116              		.cfi_endproc
 117              	.LFE56:
 119              		.align	2
 120              		.globl	_ZN3TCBC2EPFvPvES0_Pmm
 122              	_ZN3TCBC2EPFvPvES0_Pmm:
 123              	.LFB49:
  46:src/kernel/tcb.cpp **** TCB::TCB(Body body, void* args, uint64* stack, uint64 timeSlice){
 124              		.loc 1 46 1 is_stmt 1
 125              		.cfi_startproc
 126              	.LVL6:
 127 0094 130101FF 		addi	sp,sp,-16
 128              		.cfi_def_cfa_offset 16
 129 0098 23348100 		sd	s0,8(sp)
 130              		.cfi_offset 8, -8
 131 009c 13040101 		addi	s0,sp,16
 132              		.cfi_def_cfa 8, 0
 133              	.LBB2:
  46:src/kernel/tcb.cpp **** TCB::TCB(Body body, void* args, uint64* stack, uint64 timeSlice){
 134              		.loc 1 46 64 is_stmt 0
 135 00a0 23380504 		sd	zero,80(a0)
 136 00a4 233C0504 		sd	zero,88(a0)
 137 00a8 23300506 		sd	zero,96(a0)
  48:src/kernel/tcb.cpp ****     this->body = body;
 138              		.loc 1 48 5 is_stmt 1
  48:src/kernel/tcb.cpp ****     this->body = body;
 139              		.loc 1 48 16 is_stmt 0
 140 00ac 233CB500 		sd	a1,24(a0)
  50:src/kernel/tcb.cpp ****     this->args = args;
GAS LISTING /tmp/ccpglLOF.s 			page 6


 141              		.loc 1 50 5 is_stmt 1
  50:src/kernel/tcb.cpp ****     this->args = args;
 142              		.loc 1 50 16 is_stmt 0
 143 00b0 2330C502 		sd	a2,32(a0)
  52:src/kernel/tcb.cpp ****     this->timeSlice = timeSlice;
 144              		.loc 1 52 5 is_stmt 1
  52:src/kernel/tcb.cpp ****     this->timeSlice = timeSlice;
 145              		.loc 1 52 21 is_stmt 0
 146 00b4 2338E502 		sd	a4,48(a0)
  54:src/kernel/tcb.cpp ****     this->stack = (body == nullptr) ? nullptr : stack;
 147              		.loc 1 54 5 is_stmt 1
  54:src/kernel/tcb.cpp ****     this->stack = (body == nullptr) ? nullptr : stack;
 148              		.loc 1 54 37 is_stmt 0
 149 00b8 638A0502 		beqz	a1,.L10
 150 00bc 93870600 		mv	a5,a3
 151              	.L8:
  54:src/kernel/tcb.cpp ****     this->stack = (body == nullptr) ? nullptr : stack;
 152              		.loc 1 54 17 discriminator 4
 153 00c0 2334F502 		sd	a5,40(a0)
  57:src/kernel/tcb.cpp ****     this->context = {(body == nullptr) ? 0 : (uint64)((char*)stack + DEFAULT_STACK_SIZE),
 154              		.loc 1 57 5 is_stmt 1 discriminator 4
  57:src/kernel/tcb.cpp ****     this->context = {(body == nullptr) ? 0 : (uint64)((char*)stack + DEFAULT_STACK_SIZE),
 155              		.loc 1 57 40 is_stmt 0 discriminator 4
 156 00c4 63880502 		beqz	a1,.L11
  57:src/kernel/tcb.cpp ****     this->context = {(body == nullptr) ? 0 : (uint64)((char*)stack + DEFAULT_STACK_SIZE),
 157              		.loc 1 57 68 discriminator 1
 158 00c8 B7170000 		li	a5,4096
 159 00cc B386F600 		add	a3,a3,a5
 160              	.LVL7:
 161              	.L9:
  57:src/kernel/tcb.cpp ****     this->context = {(body == nullptr) ? 0 : (uint64)((char*)stack + DEFAULT_STACK_SIZE),
 162              		.loc 1 57 19 discriminator 4
 163 00d0 2330D500 		sd	a3,0(a0)
 164 00d4 97070000 		lla	a5,_ZN3TCB7wrapperEPv
 164      93870700 
 165 00dc 2334F500 		sd	a5,8(a0)
 166              	.LBE2:
  59:src/kernel/tcb.cpp **** }
 167              		.loc 1 59 1 discriminator 4
 168 00e0 03348100 		ld	s0,8(sp)
 169              		.cfi_remember_state
 170              		.cfi_restore 8
 171              		.cfi_def_cfa 2, 16
 172 00e4 13010101 		addi	sp,sp,16
 173              		.cfi_def_cfa_offset 0
 174 00e8 67800000 		jr	ra
 175              	.LVL8:
 176              	.L10:
 177              		.cfi_restore_state
 178              	.LBB3:
  54:src/kernel/tcb.cpp ****     this->stack = (body == nullptr) ? nullptr : stack;
 179              		.loc 1 54 37
 180 00ec 93070000 		li	a5,0
 181 00f0 6FF01FFD 		j	.L8
 182              	.L11:
  57:src/kernel/tcb.cpp ****     this->context = {(body == nullptr) ? 0 : (uint64)((char*)stack + DEFAULT_STACK_SIZE),
 183              		.loc 1 57 40
GAS LISTING /tmp/ccpglLOF.s 			page 7


 184 00f4 93060000 		li	a3,0
 185              	.LVL9:
 186 00f8 6FF09FFD 		j	.L9
 187              	.LBE3:
 188              		.cfi_endproc
 189              	.LFE49:
 191              		.globl	_ZN3TCBC1EPFvPvES0_Pmm
 192              		.set	_ZN3TCBC1EPFvPvES0_Pmm,_ZN3TCBC2EPFvPvES0_Pmm
 193              		.align	2
 194              		.globl	_ZN3TCB4freeEv
 196              	_ZN3TCB4freeEv:
 197              	.LFB51:
  62:src/kernel/tcb.cpp **** void TCB::free(){
 198              		.loc 1 62 17 is_stmt 1
 199              		.cfi_startproc
 200              	.LVL10:
 201 00fc 130101FF 		addi	sp,sp,-16
 202              		.cfi_def_cfa_offset 16
 203 0100 23341100 		sd	ra,8(sp)
 204 0104 23308100 		sd	s0,0(sp)
 205              		.cfi_offset 1, -8
 206              		.cfi_offset 8, -16
 207 0108 13040101 		addi	s0,sp,16
 208              		.cfi_def_cfa 8, 0
  63:src/kernel/tcb.cpp ****     kfree(stack);
 209              		.loc 1 63 5
  63:src/kernel/tcb.cpp ****     kfree(stack);
 210              		.loc 1 63 10 is_stmt 0
 211 010c 03358502 		ld	a0,40(a0)
 212              	.LVL11:
 213 0110 97000000 		call	_Z5kfreePKv@plt
 213      E7800000 
 214              	.LVL12:
  64:src/kernel/tcb.cpp **** }
 215              		.loc 1 64 1
 216 0118 83308100 		ld	ra,8(sp)
 217              		.cfi_restore 1
 218 011c 03340100 		ld	s0,0(sp)
 219              		.cfi_restore 8
 220              		.cfi_def_cfa 2, 16
 221 0120 13010101 		addi	sp,sp,16
 222              		.cfi_def_cfa_offset 0
 223 0124 67800000 		jr	ra
 224              		.cfi_endproc
 225              	.LFE51:
 227              		.align	2
 228              		.globl	_ZN3TCBD2Ev
 230              	_ZN3TCBD2Ev:
 231              	.LFB53:
  66:src/kernel/tcb.cpp **** TCB::~TCB(){
 232              		.loc 1 66 1 is_stmt 1
 233              		.cfi_startproc
 234              		.cfi_personality 0x9b,DW.ref.__gxx_personality_v0
 235              		.cfi_lsda 0x1b,.LLSDA53
 236              	.LVL13:
 237 0128 130101FF 		addi	sp,sp,-16
 238              		.cfi_def_cfa_offset 16
GAS LISTING /tmp/ccpglLOF.s 			page 8


 239 012c 23341100 		sd	ra,8(sp)
 240 0130 23308100 		sd	s0,0(sp)
 241              		.cfi_offset 1, -8
 242              		.cfi_offset 8, -16
 243 0134 13040101 		addi	s0,sp,16
 244              		.cfi_def_cfa 8, 0
 245              	.LBB4:
  67:src/kernel/tcb.cpp ****     free();
 246              		.loc 1 67 5
  67:src/kernel/tcb.cpp ****     free();
 247              		.loc 1 67 9 is_stmt 0
 248 0138 97000000 		call	_ZN3TCB4freeEv
 248      E7800000 
 249              	.LVL14:
 250              	.LBE4:
  68:src/kernel/tcb.cpp **** }
 251              		.loc 1 68 1
 252 0140 83308100 		ld	ra,8(sp)
 253              		.cfi_restore 1
 254 0144 03340100 		ld	s0,0(sp)
 255              		.cfi_restore 8
 256              		.cfi_def_cfa 2, 16
 257 0148 13010101 		addi	sp,sp,16
 258              		.cfi_def_cfa_offset 0
 259 014c 67800000 		jr	ra
 260              		.cfi_endproc
 261              	.LFE53:
 262              		.globl	__gxx_personality_v0
 263              		.section	.gcc_except_table,"a",@progbits
 264              	.LLSDA53:
 265 0000 FF       		.byte	0xff
 266 0001 FF       		.byte	0xff
 267 0002 03       		.byte	0x3
 268 0003 00       		.byte	0
 269              		.text
 271              		.globl	_ZN3TCBD1Ev
 272              		.set	_ZN3TCBD1Ev,_ZN3TCBD2Ev
 273              		.align	2
 274              		.globl	_ZN3TCB8dispatchEv
 276              	_ZN3TCB8dispatchEv:
 277              	.LFB55:
  72:src/kernel/tcb.cpp **** void TCB::dispatch() {
 278              		.loc 1 72 22 is_stmt 1
 279              		.cfi_startproc
 280 0150 130101FE 		addi	sp,sp,-32
 281              		.cfi_def_cfa_offset 32
 282 0154 233C1100 		sd	ra,24(sp)
 283 0158 23388100 		sd	s0,16(sp)
 284 015c 23349100 		sd	s1,8(sp)
 285              		.cfi_offset 1, -8
 286              		.cfi_offset 8, -16
 287              		.cfi_offset 9, -24
 288 0160 13040102 		addi	s0,sp,32
 289              		.cfi_def_cfa 8, 0
  73:src/kernel/tcb.cpp ****     TCB* old = running;
 290              		.loc 1 73 5
  73:src/kernel/tcb.cpp ****     TCB* old = running;
GAS LISTING /tmp/ccpglLOF.s 			page 9


 291              		.loc 1 73 10 is_stmt 0
 292 0164 97040000 		ld	s1,.LANCHOR0
 292      83B40400 
 293              	.LVL15:
  75:src/kernel/tcb.cpp ****     if(old->status == Status::READY || old->status == Status::RUNNING) {
 294              		.loc 1 75 5 is_stmt 1
  75:src/kernel/tcb.cpp ****     if(old->status == Status::READY || old->status == Status::RUNNING) {
 295              		.loc 1 75 13 is_stmt 0
 296 016c 03A70401 		lw	a4,16(s1)
  75:src/kernel/tcb.cpp ****     if(old->status == Status::READY || old->status == Status::RUNNING) {
 297              		.loc 1 75 5
 298 0170 93071000 		li	a5,1
 299 0174 63F6E704 		bleu	a4,a5,.L21
 300              	.L18:
  79:src/kernel/tcb.cpp ****     running = Scheduler::get();
 301              		.loc 1 79 5 is_stmt 1
  79:src/kernel/tcb.cpp ****     running = Scheduler::get();
 302              		.loc 1 79 29 is_stmt 0
 303 0178 97000000 		call	_ZN9Scheduler3getEv@plt
 303      E7800000 
 304              	.LVL16:
  79:src/kernel/tcb.cpp ****     running = Scheduler::get();
 305              		.loc 1 79 13
 306 0180 97070000 		sd	a0,.LANCHOR0,a5
 306      23B0A700 
  81:src/kernel/tcb.cpp ****     if(running) {
 307              		.loc 1 81 5 is_stmt 1
 308 0188 63020502 		beqz	a0,.L17
  82:src/kernel/tcb.cpp ****         running->status = Status::RUNNING;
 309              		.loc 1 82 9
  82:src/kernel/tcb.cpp ****         running->status = Status::RUNNING;
 310              		.loc 1 82 25 is_stmt 0
 311 018c 23280500 		sw	zero,16(a0)
  83:src/kernel/tcb.cpp ****         RiscV::jumpToDesignatedPrivilegeMode();
 312              		.loc 1 83 9 is_stmt 1
  83:src/kernel/tcb.cpp ****         RiscV::jumpToDesignatedPrivilegeMode();
 313              		.loc 1 83 45 is_stmt 0
 314 0190 97000000 		call	_ZN5RiscV29jumpToDesignatedPrivilegeModeEv@plt
 314      E7800000 
 315              	.LVL17:
  84:src/kernel/tcb.cpp ****         contextSwitch(&old->context, &running->context);
 316              		.loc 1 84 9 is_stmt 1
  84:src/kernel/tcb.cpp ****         contextSwitch(&old->context, &running->context);
 317              		.loc 1 84 22 is_stmt 0
 318 0198 97050000 		ld	a1,.LANCHOR0
 318      83B50500 
 319 01a0 13850400 		mv	a0,s1
 320 01a4 97000000 		call	_ZN3TCB13contextSwitchEPNS_7ContextES1_@plt
 320      E7800000 
 321              	.LVL18:
 322              	.L17:
  86:src/kernel/tcb.cpp **** }
 323              		.loc 1 86 1
 324 01ac 83308101 		ld	ra,24(sp)
 325              		.cfi_remember_state
 326              		.cfi_restore 1
 327 01b0 03340101 		ld	s0,16(sp)
GAS LISTING /tmp/ccpglLOF.s 			page 10


 328              		.cfi_restore 8
 329              		.cfi_def_cfa 2, 32
 330 01b4 83348100 		ld	s1,8(sp)
 331              		.cfi_restore 9
 332              	.LVL19:
 333 01b8 13010102 		addi	sp,sp,32
 334              		.cfi_def_cfa_offset 0
 335 01bc 67800000 		jr	ra
 336              	.LVL20:
 337              	.L21:
 338              		.cfi_restore_state
  76:src/kernel/tcb.cpp ****         Scheduler::put(old);
 339              		.loc 1 76 9 is_stmt 1
  76:src/kernel/tcb.cpp ****         Scheduler::put(old);
 340              		.loc 1 76 23 is_stmt 0
 341 01c0 13850400 		mv	a0,s1
 342 01c4 97000000 		call	_ZN9Scheduler3putEP3TCB@plt
 342      E7800000 
 343              	.LVL21:
 344 01cc 6FF0DFFA 		j	.L18
 345              		.cfi_endproc
 346              	.LFE55:
 348              		.align	2
 349              		.globl	_ZN3TCBnwEm
 351              	_ZN3TCBnwEm:
 352              	.LFB57:
  98:src/kernel/tcb.cpp **** void* TCB::operator new(size_t size){
 353              		.loc 1 98 37 is_stmt 1
 354              		.cfi_startproc
 355              	.LVL22:
 356 01d0 130101FF 		addi	sp,sp,-16
 357              		.cfi_def_cfa_offset 16
 358 01d4 23341100 		sd	ra,8(sp)
 359 01d8 23308100 		sd	s0,0(sp)
 360              		.cfi_offset 1, -8
 361              		.cfi_offset 8, -16
 362 01dc 13040101 		addi	s0,sp,16
 363              		.cfi_def_cfa 8, 0
  99:src/kernel/tcb.cpp ****     return kmem_cache_alloc(TCB::tcbCache);
 364              		.loc 1 99 5
  99:src/kernel/tcb.cpp ****     return kmem_cache_alloc(TCB::tcbCache);
 365              		.loc 1 99 28 is_stmt 0
 366 01e0 17050000 		ld	a0,.LANCHOR0+8
 366      03350500 
 367              	.LVL23:
 368 01e8 97000000 		call	_Z16kmem_cache_allocP5Cache@plt
 368      E7800000 
 369              	.LVL24:
 100:src/kernel/tcb.cpp **** }
 370              		.loc 1 100 1
 371 01f0 83308100 		ld	ra,8(sp)
 372              		.cfi_restore 1
 373 01f4 03340100 		ld	s0,0(sp)
 374              		.cfi_restore 8
 375              		.cfi_def_cfa 2, 16
 376 01f8 13010101 		addi	sp,sp,16
 377              		.cfi_def_cfa_offset 0
GAS LISTING /tmp/ccpglLOF.s 			page 11


 378 01fc 67800000 		jr	ra
 379              		.cfi_endproc
 380              	.LFE57:
 382              		.section	.rodata.str1.8,"aMS",@progbits,1
 383              		.align	3
 384              	.LC0:
 385 0000 54434220 		.string	"TCB Cache"
 385      43616368 
 385      6500
 386              		.text
 387              		.align	2
 388              		.globl	_ZN3TCB10initializeEv
 390              	_ZN3TCB10initializeEv:
 391              	.LFB47:
  26:src/kernel/tcb.cpp **** void TCB::initialize() {
 392              		.loc 1 26 24 is_stmt 1
 393              		.cfi_startproc
 394 0200 130101FE 		addi	sp,sp,-32
 395              		.cfi_def_cfa_offset 32
 396 0204 233C1100 		sd	ra,24(sp)
 397 0208 23388100 		sd	s0,16(sp)
 398 020c 23349100 		sd	s1,8(sp)
 399 0210 23302101 		sd	s2,0(sp)
 400              		.cfi_offset 1, -8
 401              		.cfi_offset 8, -16
 402              		.cfi_offset 9, -24
 403              		.cfi_offset 18, -32
 404 0214 13040102 		addi	s0,sp,32
 405              		.cfi_def_cfa 8, 0
  28:src/kernel/tcb.cpp ****     TCB::tcbCache = kmem_cache_create("TCB Cache", sizeof(TCB), TCB::ctor, TCB::dtor);
 406              		.loc 1 28 5
  28:src/kernel/tcb.cpp ****     TCB::tcbCache = kmem_cache_create("TCB Cache", sizeof(TCB), TCB::ctor, TCB::dtor);
 407              		.loc 1 28 38 is_stmt 0
 408 0218 97060000 		lla	a3,_ZN3TCB4dtorEPv
 408      93860600 
 409 0220 17060000 		lla	a2,_ZN3TCB4ctorEPv
 409      13060600 
 410 0228 93050007 		li	a1,112
 411 022c 17050000 		lla	a0,.LC0
 411      13050500 
 412 0234 97000000 		call	_Z17kmem_cache_createPKcmPFvPvES3_@plt
 412      E7800000 
 413              	.LVL25:
  28:src/kernel/tcb.cpp ****     TCB::tcbCache = kmem_cache_create("TCB Cache", sizeof(TCB), TCB::ctor, TCB::dtor);
 414              		.loc 1 28 19
 415 023c 97070000 		sd	a0,.LANCHOR0+8,a5
 415      23B0A700 
  30:src/kernel/tcb.cpp ****     TCB::running = new TCB(nullptr, nullptr, nullptr, DEFAULT_TIME_SLICE);
 416              		.loc 1 30 5 is_stmt 1
  30:src/kernel/tcb.cpp ****     TCB::running = new TCB(nullptr, nullptr, nullptr, DEFAULT_TIME_SLICE);
 417              		.loc 1 30 73 is_stmt 0
 418 0244 13050007 		li	a0,112
 419 0248 97000000 		call	_ZN3TCBnwEm
 419      E7800000 
 420              	.LVL26:
 421 0250 93040500 		mv	s1,a0
 422 0254 630E0500 		beqz	a0,.L25
GAS LISTING /tmp/ccpglLOF.s 			page 12


  30:src/kernel/tcb.cpp ****     TCB::running = new TCB(nullptr, nullptr, nullptr, DEFAULT_TIME_SLICE);
 423              		.loc 1 30 73 discriminator 1
 424 0258 13072000 		li	a4,2
 425 025c 93060000 		li	a3,0
 426 0260 13060000 		li	a2,0
 427 0264 93050000 		li	a1,0
 428 0268 97000000 		call	_ZN3TCBC1EPFvPvES0_Pmm
 428      E7800000 
 429              	.LVL27:
 430              	.L25:
  30:src/kernel/tcb.cpp ****     TCB::running = new TCB(nullptr, nullptr, nullptr, DEFAULT_TIME_SLICE);
 431              		.loc 1 30 18 discriminator 4
 432 0270 97070000 		sd	s1,.LANCHOR0,a5
 432      23B09700 
  32:src/kernel/tcb.cpp ****     TCB::running->mode = Mode::SUPERVISOR;
 433              		.loc 1 32 5 is_stmt 1 discriminator 4
  32:src/kernel/tcb.cpp ****     TCB::running->mode = Mode::SUPERVISOR;
 434              		.loc 1 32 24 is_stmt 0 discriminator 4
 435 0278 93071000 		li	a5,1
 436 027c 23AAF400 		sw	a5,20(s1)
  34:src/kernel/tcb.cpp ****     uint64 *putcStack = (uint64*)kmalloc(DEFAULT_STACK_SIZE);
 437              		.loc 1 34 5 is_stmt 1 discriminator 4
  34:src/kernel/tcb.cpp ****     uint64 *putcStack = (uint64*)kmalloc(DEFAULT_STACK_SIZE);
 438              		.loc 1 34 41 is_stmt 0 discriminator 4
 439 0280 37150000 		li	a0,4096
 440 0284 97000000 		call	_Z7kmallocm@plt
 440      E7800000 
 441              	.LVL28:
 442 028c 13090500 		mv	s2,a0
 443              	.LVL29:
  37:src/kernel/tcb.cpp ****     putcThread = new TCB(RiscV::putcWrapper, nullptr, putcStack, DEFAULT_TIME_SLICE);
 444              		.loc 1 37 5 is_stmt 1 discriminator 4
  37:src/kernel/tcb.cpp ****     putcThread = new TCB(RiscV::putcWrapper, nullptr, putcStack, DEFAULT_TIME_SLICE);
 445              		.loc 1 37 84 is_stmt 0 discriminator 4
 446 0290 13050007 		li	a0,112
 447              	.LVL30:
 448 0294 97000000 		call	_ZN3TCBnwEm
 448      E7800000 
 449              	.LVL31:
 450 029c 93040500 		mv	s1,a0
 451 02a0 63000502 		beqz	a0,.L26
  37:src/kernel/tcb.cpp ****     putcThread = new TCB(RiscV::putcWrapper, nullptr, putcStack, DEFAULT_TIME_SLICE);
 452              		.loc 1 37 84 discriminator 1
 453 02a4 13072000 		li	a4,2
 454 02a8 93060900 		mv	a3,s2
 455 02ac 13060000 		li	a2,0
 456 02b0 97050000 		la	a1,_ZN5RiscV11putcWrapperEPv
 456      83B50500 
 457 02b8 97000000 		call	_ZN3TCBC1EPFvPvES0_Pmm
 457      E7800000 
 458              	.LVL32:
 459              	.L26:
  37:src/kernel/tcb.cpp ****     putcThread = new TCB(RiscV::putcWrapper, nullptr, putcStack, DEFAULT_TIME_SLICE);
 460              		.loc 1 37 16 discriminator 4
 461 02c0 97070000 		sd	s1,.LANCHOR0+16,a5
 461      23B09700 
  39:src/kernel/tcb.cpp ****     putcThread->mode = Mode::SUPERVISOR;
GAS LISTING /tmp/ccpglLOF.s 			page 13


 462              		.loc 1 39 5 is_stmt 1 discriminator 4
  39:src/kernel/tcb.cpp ****     putcThread->mode = Mode::SUPERVISOR;
 463              		.loc 1 39 22 is_stmt 0 discriminator 4
 464 02c8 93071000 		li	a5,1
 465 02cc 23AAF400 		sw	a5,20(s1)
  42:src/kernel/tcb.cpp ****     Scheduler::put(putcThread);
 466              		.loc 1 42 5 is_stmt 1 discriminator 4
  42:src/kernel/tcb.cpp ****     Scheduler::put(putcThread);
 467              		.loc 1 42 19 is_stmt 0 discriminator 4
 468 02d0 13850400 		mv	a0,s1
 469 02d4 97000000 		call	_ZN9Scheduler3putEP3TCB@plt
 469      E7800000 
 470              	.LVL33:
  43:src/kernel/tcb.cpp **** }
 471              		.loc 1 43 1 discriminator 4
 472 02dc 83308101 		ld	ra,24(sp)
 473              		.cfi_restore 1
 474 02e0 03340101 		ld	s0,16(sp)
 475              		.cfi_restore 8
 476              		.cfi_def_cfa 2, 32
 477 02e4 83348100 		ld	s1,8(sp)
 478              		.cfi_restore 9
 479 02e8 03390100 		ld	s2,0(sp)
 480              		.cfi_restore 18
 481              	.LVL34:
 482 02ec 13010102 		addi	sp,sp,32
 483              		.cfi_def_cfa_offset 0
 484 02f0 67800000 		jr	ra
 485              		.cfi_endproc
 486              	.LFE47:
 488              		.align	2
 489              		.globl	_ZN3TCBdlEPv
 491              	_ZN3TCBdlEPv:
 492              	.LFB58:
 103:src/kernel/tcb.cpp **** void TCB::operator delete(void *addr){
 493              		.loc 1 103 38 is_stmt 1
 494              		.cfi_startproc
 495              	.LVL35:
 496 02f4 130101FF 		addi	sp,sp,-16
 497              		.cfi_def_cfa_offset 16
 498 02f8 23341100 		sd	ra,8(sp)
 499 02fc 23308100 		sd	s0,0(sp)
 500              		.cfi_offset 1, -8
 501              		.cfi_offset 8, -16
 502 0300 13040101 		addi	s0,sp,16
 503              		.cfi_def_cfa 8, 0
 504 0304 93050500 		mv	a1,a0
 104:src/kernel/tcb.cpp ****     kmem_cache_free(TCB::tcbCache, addr);
 505              		.loc 1 104 5
 104:src/kernel/tcb.cpp ****     kmem_cache_free(TCB::tcbCache, addr);
 506              		.loc 1 104 20 is_stmt 0
 507 0308 17050000 		ld	a0,.LANCHOR0+8
 507      03350500 
 508              	.LVL36:
 509 0310 97000000 		call	_Z15kmem_cache_freeP5CachePv@plt
 509      E7800000 
 510              	.LVL37:
GAS LISTING /tmp/ccpglLOF.s 			page 14


 105:src/kernel/tcb.cpp **** }
 511              		.loc 1 105 1
 512 0318 83308100 		ld	ra,8(sp)
 513              		.cfi_restore 1
 514 031c 03340100 		ld	s0,0(sp)
 515              		.cfi_restore 8
 516              		.cfi_def_cfa 2, 16
 517 0320 13010101 		addi	sp,sp,16
 518              		.cfi_def_cfa_offset 0
 519 0324 67800000 		jr	ra
 520              		.cfi_endproc
 521              	.LFE58:
 523              		.align	2
 524              		.globl	_ZN3TCB11thread_freeEPv
 526              	_ZN3TCB11thread_freeEPv:
 527              	.LFB59:
 108:src/kernel/tcb.cpp **** int TCB::thread_free(void *addr) {
 528              		.loc 1 108 34 is_stmt 1
 529              		.cfi_startproc
 530              	.LVL38:
 531 0328 130101FF 		addi	sp,sp,-16
 532              		.cfi_def_cfa_offset 16
 533 032c 23348100 		sd	s0,8(sp)
 534              		.cfi_offset 8, -8
 535 0330 13040101 		addi	s0,sp,16
 536              		.cfi_def_cfa 8, 0
 109:src/kernel/tcb.cpp ****     uint64 iptr = (uint64)addr;
 537              		.loc 1 109 5
 538              	.LVL39:
 111:src/kernel/tcb.cpp ****     asm("mv a1, %[iptr]" : : [iptr] "r" (iptr));
 539              		.loc 1 111 5
 111:src/kernel/tcb.cpp ****     asm("mv a1, %[iptr]" : : [iptr] "r" (iptr));
 540              		.loc 1 111 48 is_stmt 0
 541              	#APP
 542              	# 111 "src/kernel/tcb.cpp" 1
 112:src/kernel/tcb.cpp ****     asm("li a0, 0x51");
 543              		mv a1, a0
 544              	# 0 "" 2
 545              		.loc 1 112 5 is_stmt 1
 112:src/kernel/tcb.cpp ****     asm("li a0, 0x51");
 546              		.loc 1 112 23 is_stmt 0
 547              	# 112 "src/kernel/tcb.cpp" 1
 113:src/kernel/tcb.cpp ****     asm("ecall");
 548              		li a0, 0x51
 549              	# 0 "" 2
 550              		.loc 1 113 5 is_stmt 1
 113:src/kernel/tcb.cpp ****     asm("ecall");
 551              		.loc 1 113 17 is_stmt 0
 552              	# 113 "src/kernel/tcb.cpp" 1
 115:src/kernel/tcb.cpp ****     uint64 status;
 553              		ecall
 554              	# 0 "" 2
 555              		.loc 1 115 5 is_stmt 1
 117:src/kernel/tcb.cpp ****     asm("mv %[status], a0" : [status] "=r" (status));
 556              		.loc 1 117 5
 117:src/kernel/tcb.cpp ****     asm("mv %[status], a0" : [status] "=r" (status));
 557              		.loc 1 117 53 is_stmt 0
GAS LISTING /tmp/ccpglLOF.s 			page 15


 558              	# 117 "src/kernel/tcb.cpp" 1
 559              		mv a0, a0
 560              	# 0 "" 2
 561              	.LVL40:
 118:src/kernel/tcb.cpp ****     return status;
 562              		.loc 1 118 5 is_stmt 1
 119:src/kernel/tcb.cpp **** }
 563              		.loc 1 119 1 is_stmt 0
 564              	#NO_APP
 565 0344 1B050500 		sext.w	a0,a0
 566              	.LVL41:
 567 0348 03348100 		ld	s0,8(sp)
 568              		.cfi_restore 8
 569              		.cfi_def_cfa 2, 16
 570 034c 13010101 		addi	sp,sp,16
 571              		.cfi_def_cfa_offset 0
 572 0350 67800000 		jr	ra
 573              		.cfi_endproc
 574              	.LFE59:
 576              		.globl	_ZN3TCB8tcbCacheE
 577              		.globl	_ZN3TCB16timeSliceCounterE
 578              		.globl	_ZN3TCB9currentSPE
 579              		.globl	_ZN3TCB9currentPCE
 580              		.globl	_ZN3TCB10putcThreadE
 581              		.globl	_ZN3TCB7runningE
 582              		.bss
 583              		.align	3
 584              		.set	.LANCHOR0,. + 0
 587              	_ZN3TCB7runningE:
 588 0000 00000000 		.zero	8
 588      00000000 
 591              	_ZN3TCB8tcbCacheE:
 592 0008 00000000 		.zero	8
 592      00000000 
 595              	_ZN3TCB10putcThreadE:
 596 0010 00000000 		.zero	8
 596      00000000 
 599              	_ZN3TCB16timeSliceCounterE:
 600 0018 00000000 		.zero	8
 600      00000000 
 603              	_ZN3TCB9currentSPE:
 604 0020 00000000 		.zero	8
 604      00000000 
 607              	_ZN3TCB9currentPCE:
 608 0028 00000000 		.zero	8
 608      00000000 
 609              		.text
 610              	.Letext0:
 611              		.file 2 "src/kernel/../../h/kernel/../../lib/hw.h"
 612              		.file 3 "src/kernel/../../h/kernel/utility.hpp"
 613              		.file 4 "src/kernel/../../h/kernel/slab_t.hpp"
 614              		.file 5 "src/kernel/../../h/kernel/cache_t.hpp"
 615              		.file 6 "src/kernel/../../h/kernel/tcb.hpp"
 616              		.file 7 "src/kernel/../../h/kernel/scheduler.hpp"
 617              		.file 8 "src/kernel/../../h/kernel/riscv.hpp"
 618              		.file 9 "src/kernel/../../h/kernel/slab.hpp"
 4146              		.align	3
GAS LISTING /tmp/ccpglLOF.s 			page 16


 4149              	DW.ref.__gxx_personality_v0:
 4150 0000 00000000 		.dword	__gxx_personality_v0
 4150      00000000 
 4151              		.ident	"GCC: (Ubuntu 9.4.0-1ubuntu1~20.04) 9.4.0"
 4152              		.section	.note.GNU-stack,"",@progbits
GAS LISTING /tmp/ccpglLOF.s 			page 17


DEFINED SYMBOLS
                            *ABS*:0000000000000000 tcb.cpp
     /tmp/ccpglLOF.s:9      .text:0000000000000000 _ZN3TCB4ctorEPv
     /tmp/ccpglLOF.s:13     .text:0000000000000000 .L0 
     /tmp/ccpglLOF.s:15     .text:0000000000000000 .L0 
     /tmp/ccpglLOF.s:16     .text:0000000000000004 .L0 
     /tmp/ccpglLOF.s:18     .text:0000000000000008 .L0 
     /tmp/ccpglLOF.s:20     .text:000000000000000c .L0 
     /tmp/ccpglLOF.s:22     .text:000000000000000c .L0 
     /tmp/ccpglLOF.s:23     .text:000000000000000c .L0 
     /tmp/ccpglLOF.s:26     .text:0000000000000014 .L0 
     /tmp/ccpglLOF.s:27     .text:0000000000000014 .L0 
     /tmp/ccpglLOF.s:29     .text:0000000000000018 .L0 
     /tmp/ccpglLOF.s:30     .text:0000000000000018 .L0 
     /tmp/ccpglLOF.s:32     .text:000000000000001c .L0 
     /tmp/ccpglLOF.s:33     .text:0000000000000020 .L0 
     /tmp/ccpglLOF.s:34     .text:0000000000000020 .L0 
     /tmp/ccpglLOF.s:36     .text:0000000000000024 .L0 
     /tmp/ccpglLOF.s:38     .text:0000000000000028 .L0 
     /tmp/ccpglLOF.s:44     .text:0000000000000028 _ZN3TCB4dtorEPv
     /tmp/ccpglLOF.s:47     .text:0000000000000028 .L0 
     /tmp/ccpglLOF.s:49     .text:0000000000000028 .L0 
     /tmp/ccpglLOF.s:50     .text:000000000000002c .L0 
     /tmp/ccpglLOF.s:52     .text:0000000000000030 .L0 
     /tmp/ccpglLOF.s:54     .text:0000000000000034 .L0 
     /tmp/ccpglLOF.s:56     .text:0000000000000034 .L0 
     /tmp/ccpglLOF.s:57     .text:0000000000000034 .L0 
     /tmp/ccpglLOF.s:60     .text:000000000000003c .L0 
     /tmp/ccpglLOF.s:61     .text:000000000000003c .L0 
     /tmp/ccpglLOF.s:63     .text:0000000000000040 .L0 
     /tmp/ccpglLOF.s:64     .text:0000000000000040 .L0 
     /tmp/ccpglLOF.s:66     .text:0000000000000044 .L0 
     /tmp/ccpglLOF.s:67     .text:0000000000000048 .L0 
     /tmp/ccpglLOF.s:68     .text:0000000000000048 .L0 
     /tmp/ccpglLOF.s:70     .text:000000000000004c .L0 
     /tmp/ccpglLOF.s:72     .text:0000000000000050 .L0 
     /tmp/ccpglLOF.s:78     .text:0000000000000050 _ZN3TCB7wrapperEPv
     /tmp/ccpglLOF.s:81     .text:0000000000000050 .L0 
     /tmp/ccpglLOF.s:83     .text:0000000000000050 .L0 
     /tmp/ccpglLOF.s:84     .text:0000000000000054 .L0 
     /tmp/ccpglLOF.s:87     .text:000000000000005c .L0 
     /tmp/ccpglLOF.s:88     .text:000000000000005c .L0 
     /tmp/ccpglLOF.s:90     .text:0000000000000060 .L0 
     /tmp/ccpglLOF.s:92     .text:0000000000000060 .L0 
     /tmp/ccpglLOF.s:93     .text:0000000000000060 .L0 
     /tmp/ccpglLOF.s:96     .text:0000000000000068 .L0 
     /tmp/ccpglLOF.s:97     .text:0000000000000068 .L0 
     /tmp/ccpglLOF.s:100    .text:0000000000000074 .L0 
     /tmp/ccpglLOF.s:104    .text:000000000000007c .L0 
     /tmp/ccpglLOF.s:105    .text:000000000000007c .L0 
     /tmp/ccpglLOF.s:108    .text:0000000000000084 .L0 
     /tmp/ccpglLOF.s:109    .text:0000000000000088 .L0 
     /tmp/ccpglLOF.s:111    .text:000000000000008c .L0 
     /tmp/ccpglLOF.s:112    .text:000000000000008c .L0 
     /tmp/ccpglLOF.s:114    .text:0000000000000090 .L0 
     /tmp/ccpglLOF.s:116    .text:0000000000000094 .L0 
     /tmp/ccpglLOF.s:122    .text:0000000000000094 _ZN3TCBC2EPFvPvES0_Pmm
GAS LISTING /tmp/ccpglLOF.s 			page 18


     /tmp/ccpglLOF.s:125    .text:0000000000000094 .L0 
     /tmp/ccpglLOF.s:127    .text:0000000000000094 .L0 
     /tmp/ccpglLOF.s:128    .text:0000000000000098 .L0 
     /tmp/ccpglLOF.s:130    .text:000000000000009c .L0 
     /tmp/ccpglLOF.s:132    .text:00000000000000a0 .L0 
     /tmp/ccpglLOF.s:135    .text:00000000000000a0 .L0 
     /tmp/ccpglLOF.s:139    .text:00000000000000ac .L0 
     /tmp/ccpglLOF.s:140    .text:00000000000000ac .L0 
     /tmp/ccpglLOF.s:142    .text:00000000000000b0 .L0 
     /tmp/ccpglLOF.s:143    .text:00000000000000b0 .L0 
     /tmp/ccpglLOF.s:145    .text:00000000000000b4 .L0 
     /tmp/ccpglLOF.s:146    .text:00000000000000b4 .L0 
     /tmp/ccpglLOF.s:148    .text:00000000000000b8 .L0 
     /tmp/ccpglLOF.s:149    .text:00000000000000b8 .L0 
     /tmp/ccpglLOF.s:153    .text:00000000000000c0 .L0 
     /tmp/ccpglLOF.s:155    .text:00000000000000c4 .L0 
     /tmp/ccpglLOF.s:156    .text:00000000000000c4 .L0 
     /tmp/ccpglLOF.s:158    .text:00000000000000c8 .L0 
     /tmp/ccpglLOF.s:163    .text:00000000000000d0 .L0 
     /tmp/ccpglLOF.s:168    .text:00000000000000e0 .L0 
     /tmp/ccpglLOF.s:169    .text:00000000000000e4 .L0 
     /tmp/ccpglLOF.s:170    .text:00000000000000e4 .L0 
     /tmp/ccpglLOF.s:171    .text:00000000000000e4 .L0 
     /tmp/ccpglLOF.s:173    .text:00000000000000e8 .L0 
     /tmp/ccpglLOF.s:177    .text:00000000000000ec .L0 
     /tmp/ccpglLOF.s:180    .text:00000000000000ec .L0 
     /tmp/ccpglLOF.s:184    .text:00000000000000f4 .L0 
     /tmp/ccpglLOF.s:188    .text:00000000000000fc .L0 
     /tmp/ccpglLOF.s:122    .text:0000000000000094 _ZN3TCBC1EPFvPvES0_Pmm
     /tmp/ccpglLOF.s:196    .text:00000000000000fc _ZN3TCB4freeEv
     /tmp/ccpglLOF.s:199    .text:00000000000000fc .L0 
     /tmp/ccpglLOF.s:201    .text:00000000000000fc .L0 
     /tmp/ccpglLOF.s:202    .text:0000000000000100 .L0 
     /tmp/ccpglLOF.s:205    .text:0000000000000108 .L0 
     /tmp/ccpglLOF.s:206    .text:0000000000000108 .L0 
     /tmp/ccpglLOF.s:208    .text:000000000000010c .L0 
     /tmp/ccpglLOF.s:210    .text:000000000000010c .L0 
     /tmp/ccpglLOF.s:211    .text:000000000000010c .L0 
     /tmp/ccpglLOF.s:216    .text:0000000000000118 .L0 
     /tmp/ccpglLOF.s:217    .text:000000000000011c .L0 
     /tmp/ccpglLOF.s:219    .text:0000000000000120 .L0 
     /tmp/ccpglLOF.s:220    .text:0000000000000120 .L0 
     /tmp/ccpglLOF.s:222    .text:0000000000000124 .L0 
     /tmp/ccpglLOF.s:224    .text:0000000000000128 .L0 
     /tmp/ccpglLOF.s:230    .text:0000000000000128 _ZN3TCBD2Ev
     /tmp/ccpglLOF.s:233    .text:0000000000000128 .L0 
     /tmp/ccpglLOF.s:4149   .data.rel.local.DW.ref.__gxx_personality_v0:0000000000000000 DW.ref.__gxx_personality_v0
     /tmp/ccpglLOF.s:237    .text:0000000000000128 .L0 
     /tmp/ccpglLOF.s:238    .text:000000000000012c .L0 
     /tmp/ccpglLOF.s:241    .text:0000000000000134 .L0 
     /tmp/ccpglLOF.s:242    .text:0000000000000134 .L0 
     /tmp/ccpglLOF.s:244    .text:0000000000000138 .L0 
     /tmp/ccpglLOF.s:247    .text:0000000000000138 .L0 
     /tmp/ccpglLOF.s:248    .text:0000000000000138 .L0 
     /tmp/ccpglLOF.s:252    .text:0000000000000140 .L0 
     /tmp/ccpglLOF.s:253    .text:0000000000000144 .L0 
     /tmp/ccpglLOF.s:255    .text:0000000000000148 .L0 
GAS LISTING /tmp/ccpglLOF.s 			page 19


     /tmp/ccpglLOF.s:256    .text:0000000000000148 .L0 
     /tmp/ccpglLOF.s:258    .text:000000000000014c .L0 
     /tmp/ccpglLOF.s:260    .text:0000000000000150 .L0 
     /tmp/ccpglLOF.s:230    .text:0000000000000128 _ZN3TCBD1Ev
     /tmp/ccpglLOF.s:276    .text:0000000000000150 _ZN3TCB8dispatchEv
     /tmp/ccpglLOF.s:279    .text:0000000000000150 .L0 
     /tmp/ccpglLOF.s:280    .text:0000000000000150 .L0 
     /tmp/ccpglLOF.s:281    .text:0000000000000154 .L0 
     /tmp/ccpglLOF.s:285    .text:0000000000000160 .L0 
     /tmp/ccpglLOF.s:286    .text:0000000000000160 .L0 
     /tmp/ccpglLOF.s:287    .text:0000000000000160 .L0 
     /tmp/ccpglLOF.s:289    .text:0000000000000164 .L0 
     /tmp/ccpglLOF.s:291    .text:0000000000000164 .L0 
     /tmp/ccpglLOF.s:292    .text:0000000000000164 .L0 
     /tmp/ccpglLOF.s:295    .text:000000000000016c .L0 
     /tmp/ccpglLOF.s:296    .text:000000000000016c .L0 
     /tmp/ccpglLOF.s:298    .text:0000000000000170 .L0 
     /tmp/ccpglLOF.s:302    .text:0000000000000178 .L0 
     /tmp/ccpglLOF.s:303    .text:0000000000000178 .L0 
     /tmp/ccpglLOF.s:306    .text:0000000000000180 .L0 
     /tmp/ccpglLOF.s:308    .text:0000000000000188 .L0 
     /tmp/ccpglLOF.s:310    .text:000000000000018c .L0 
     /tmp/ccpglLOF.s:311    .text:000000000000018c .L0 
     /tmp/ccpglLOF.s:313    .text:0000000000000190 .L0 
     /tmp/ccpglLOF.s:314    .text:0000000000000190 .L0 
     /tmp/ccpglLOF.s:317    .text:0000000000000198 .L0 
     /tmp/ccpglLOF.s:318    .text:0000000000000198 .L0 
     /tmp/ccpglLOF.s:324    .text:00000000000001ac .L0 
     /tmp/ccpglLOF.s:325    .text:00000000000001b0 .L0 
     /tmp/ccpglLOF.s:326    .text:00000000000001b0 .L0 
     /tmp/ccpglLOF.s:328    .text:00000000000001b4 .L0 
     /tmp/ccpglLOF.s:329    .text:00000000000001b4 .L0 
     /tmp/ccpglLOF.s:331    .text:00000000000001b8 .L0 
     /tmp/ccpglLOF.s:334    .text:00000000000001bc .L0 
     /tmp/ccpglLOF.s:338    .text:00000000000001c0 .L0 
     /tmp/ccpglLOF.s:340    .text:00000000000001c0 .L0 
     /tmp/ccpglLOF.s:341    .text:00000000000001c0 .L0 
     /tmp/ccpglLOF.s:345    .text:00000000000001d0 .L0 
     /tmp/ccpglLOF.s:351    .text:00000000000001d0 _ZN3TCBnwEm
     /tmp/ccpglLOF.s:354    .text:00000000000001d0 .L0 
     /tmp/ccpglLOF.s:356    .text:00000000000001d0 .L0 
     /tmp/ccpglLOF.s:357    .text:00000000000001d4 .L0 
     /tmp/ccpglLOF.s:360    .text:00000000000001dc .L0 
     /tmp/ccpglLOF.s:361    .text:00000000000001dc .L0 
     /tmp/ccpglLOF.s:363    .text:00000000000001e0 .L0 
     /tmp/ccpglLOF.s:365    .text:00000000000001e0 .L0 
     /tmp/ccpglLOF.s:366    .text:00000000000001e0 .L0 
     /tmp/ccpglLOF.s:371    .text:00000000000001f0 .L0 
     /tmp/ccpglLOF.s:372    .text:00000000000001f4 .L0 
     /tmp/ccpglLOF.s:374    .text:00000000000001f8 .L0 
     /tmp/ccpglLOF.s:375    .text:00000000000001f8 .L0 
     /tmp/ccpglLOF.s:377    .text:00000000000001fc .L0 
     /tmp/ccpglLOF.s:379    .text:0000000000000200 .L0 
     /tmp/ccpglLOF.s:390    .text:0000000000000200 _ZN3TCB10initializeEv
     /tmp/ccpglLOF.s:393    .text:0000000000000200 .L0 
     /tmp/ccpglLOF.s:394    .text:0000000000000200 .L0 
     /tmp/ccpglLOF.s:395    .text:0000000000000204 .L0 
GAS LISTING /tmp/ccpglLOF.s 			page 20


     /tmp/ccpglLOF.s:400    .text:0000000000000214 .L0 
     /tmp/ccpglLOF.s:401    .text:0000000000000214 .L0 
     /tmp/ccpglLOF.s:402    .text:0000000000000214 .L0 
     /tmp/ccpglLOF.s:403    .text:0000000000000214 .L0 
     /tmp/ccpglLOF.s:405    .text:0000000000000218 .L0 
     /tmp/ccpglLOF.s:407    .text:0000000000000218 .L0 
     /tmp/ccpglLOF.s:408    .text:0000000000000218 .L0 
     /tmp/ccpglLOF.s:415    .text:000000000000023c .L0 
     /tmp/ccpglLOF.s:417    .text:0000000000000244 .L0 
     /tmp/ccpglLOF.s:418    .text:0000000000000244 .L0 
     /tmp/ccpglLOF.s:424    .text:0000000000000258 .L0 
     /tmp/ccpglLOF.s:432    .text:0000000000000270 .L0 
     /tmp/ccpglLOF.s:434    .text:0000000000000278 .L0 
     /tmp/ccpglLOF.s:435    .text:0000000000000278 .L0 
     /tmp/ccpglLOF.s:438    .text:0000000000000280 .L0 
     /tmp/ccpglLOF.s:439    .text:0000000000000280 .L0 
     /tmp/ccpglLOF.s:445    .text:0000000000000290 .L0 
     /tmp/ccpglLOF.s:446    .text:0000000000000290 .L0 
     /tmp/ccpglLOF.s:453    .text:00000000000002a4 .L0 
     /tmp/ccpglLOF.s:461    .text:00000000000002c0 .L0 
     /tmp/ccpglLOF.s:463    .text:00000000000002c8 .L0 
     /tmp/ccpglLOF.s:464    .text:00000000000002c8 .L0 
     /tmp/ccpglLOF.s:467    .text:00000000000002d0 .L0 
     /tmp/ccpglLOF.s:468    .text:00000000000002d0 .L0 
     /tmp/ccpglLOF.s:472    .text:00000000000002dc .L0 
     /tmp/ccpglLOF.s:473    .text:00000000000002e0 .L0 
     /tmp/ccpglLOF.s:475    .text:00000000000002e4 .L0 
     /tmp/ccpglLOF.s:476    .text:00000000000002e4 .L0 
     /tmp/ccpglLOF.s:478    .text:00000000000002e8 .L0 
     /tmp/ccpglLOF.s:480    .text:00000000000002ec .L0 
     /tmp/ccpglLOF.s:483    .text:00000000000002f0 .L0 
     /tmp/ccpglLOF.s:485    .text:00000000000002f4 .L0 
     /tmp/ccpglLOF.s:491    .text:00000000000002f4 _ZN3TCBdlEPv
     /tmp/ccpglLOF.s:494    .text:00000000000002f4 .L0 
     /tmp/ccpglLOF.s:496    .text:00000000000002f4 .L0 
     /tmp/ccpglLOF.s:497    .text:00000000000002f8 .L0 
     /tmp/ccpglLOF.s:500    .text:0000000000000300 .L0 
     /tmp/ccpglLOF.s:501    .text:0000000000000300 .L0 
     /tmp/ccpglLOF.s:503    .text:0000000000000304 .L0 
     /tmp/ccpglLOF.s:506    .text:0000000000000308 .L0 
     /tmp/ccpglLOF.s:507    .text:0000000000000308 .L0 
     /tmp/ccpglLOF.s:512    .text:0000000000000318 .L0 
     /tmp/ccpglLOF.s:513    .text:000000000000031c .L0 
     /tmp/ccpglLOF.s:515    .text:0000000000000320 .L0 
     /tmp/ccpglLOF.s:516    .text:0000000000000320 .L0 
     /tmp/ccpglLOF.s:518    .text:0000000000000324 .L0 
     /tmp/ccpglLOF.s:520    .text:0000000000000328 .L0 
     /tmp/ccpglLOF.s:526    .text:0000000000000328 _ZN3TCB11thread_freeEPv
     /tmp/ccpglLOF.s:529    .text:0000000000000328 .L0 
     /tmp/ccpglLOF.s:531    .text:0000000000000328 .L0 
     /tmp/ccpglLOF.s:532    .text:000000000000032c .L0 
     /tmp/ccpglLOF.s:534    .text:0000000000000330 .L0 
     /tmp/ccpglLOF.s:536    .text:0000000000000334 .L0 
     /tmp/ccpglLOF.s:539    .text:0000000000000334 .L0 
     /tmp/ccpglLOF.s:540    .text:0000000000000334 .L0 
  src/kernel/tcb.cpp:111    .text:0000000000000334 .L0 
     /tmp/ccpglLOF.s:546    .text:0000000000000338 .L0 
GAS LISTING /tmp/ccpglLOF.s 			page 21


  src/kernel/tcb.cpp:112    .text:0000000000000338 .L0 
     /tmp/ccpglLOF.s:551    .text:000000000000033c .L0 
  src/kernel/tcb.cpp:113    .text:000000000000033c .L0 
     /tmp/ccpglLOF.s:556    .text:0000000000000340 .L0 
     /tmp/ccpglLOF.s:557    .text:0000000000000340 .L0 
  src/kernel/tcb.cpp:117    .text:0000000000000340 .L0 
     /tmp/ccpglLOF.s:563    .text:0000000000000344 .L0 
     /tmp/ccpglLOF.s:565    .text:0000000000000344 .L0 
     /tmp/ccpglLOF.s:568    .text:000000000000034c .L0 
     /tmp/ccpglLOF.s:569    .text:000000000000034c .L0 
     /tmp/ccpglLOF.s:571    .text:0000000000000350 .L0 
     /tmp/ccpglLOF.s:573    .text:0000000000000354 .L0 
     /tmp/ccpglLOF.s:591    .bss:0000000000000008 _ZN3TCB8tcbCacheE
     /tmp/ccpglLOF.s:599    .bss:0000000000000018 _ZN3TCB16timeSliceCounterE
     /tmp/ccpglLOF.s:603    .bss:0000000000000020 _ZN3TCB9currentSPE
     /tmp/ccpglLOF.s:607    .bss:0000000000000028 _ZN3TCB9currentPCE
     /tmp/ccpglLOF.s:595    .bss:0000000000000010 _ZN3TCB10putcThreadE
     /tmp/ccpglLOF.s:587    .bss:0000000000000000 _ZN3TCB7runningE
     /tmp/ccpglLOF.s:584    .bss:0000000000000000 .LANCHOR0
     /tmp/ccpglLOF.s:619    .text:0000000000000354 .L0 
     /tmp/ccpglLOF.s:97     .text:0000000000000068 .L0 
     /tmp/ccpglLOF.s:164    .text:00000000000000d4 .L0 
     /tmp/ccpglLOF.s:292    .text:0000000000000164 .L0 
     /tmp/ccpglLOF.s:306    .text:0000000000000180 .L0 
     /tmp/ccpglLOF.s:318    .text:0000000000000198 .L0 
     /tmp/ccpglLOF.s:366    .text:00000000000001e0 .L0 
     /tmp/ccpglLOF.s:408    .text:0000000000000218 .L0 
     /tmp/ccpglLOF.s:409    .text:0000000000000220 .L0 
     /tmp/ccpglLOF.s:384    .rodata.str1.8:0000000000000000 .LC0
     /tmp/ccpglLOF.s:411    .text:000000000000022c .L0 
     /tmp/ccpglLOF.s:415    .text:000000000000023c .L0 
     /tmp/ccpglLOF.s:432    .text:0000000000000270 .L0 
     /tmp/ccpglLOF.s:456    .text:00000000000002b0 .L0 
     /tmp/ccpglLOF.s:461    .text:00000000000002c0 .L0 
     /tmp/ccpglLOF.s:507    .text:0000000000000308 .L0 
     /tmp/ccpglLOF.s:176    .text:00000000000000ec .L10
     /tmp/ccpglLOF.s:182    .text:00000000000000f4 .L11
     /tmp/ccpglLOF.s:151    .text:00000000000000c0 .L8
     /tmp/ccpglLOF.s:161    .text:00000000000000d0 .L9
     /tmp/ccpglLOF.s:337    .text:00000000000001c0 .L21
     /tmp/ccpglLOF.s:322    .text:00000000000001ac .L17
     /tmp/ccpglLOF.s:300    .text:0000000000000178 .L18
     /tmp/ccpglLOF.s:430    .text:0000000000000270 .L25
     /tmp/ccpglLOF.s:459    .text:00000000000002c0 .L26
     /tmp/ccpglLOF.s:2507   .debug_abbrev:0000000000000000 .Ldebug_abbrev0
     /tmp/ccpglLOF.s:4101   .debug_str:0000000000001145 .LASF261
     /tmp/ccpglLOF.s:3729   .debug_str:0000000000000448 .LASF262
     /tmp/ccpglLOF.s:4037   .debug_str:0000000000000ebf .LASF263
     /tmp/ccpglLOF.s:5      .text:0000000000000000 .Ltext0
     /tmp/ccpglLOF.s:610    .text:0000000000000354 .Letext0
     /tmp/ccpglLOF.s:3603   .debug_line:0000000000000000 .Ldebug_line0
     /tmp/ccpglLOF.s:3637   .debug_str:0000000000000130 .LASF0
     /tmp/ccpglLOF.s:4097   .debug_str:000000000000112a .LASF1
     /tmp/ccpglLOF.s:4043   .debug_str:0000000000000f1b .LASF2
     /tmp/ccpglLOF.s:4001   .debug_str:0000000000000d71 .LASF4
     /tmp/ccpglLOF.s:4013   .debug_str:0000000000000dfd .LASF3
     /tmp/ccpglLOF.s:3753   .debug_str:00000000000004fe .LASF5
GAS LISTING /tmp/ccpglLOF.s 			page 22


     /tmp/ccpglLOF.s:3815   .debug_str:0000000000000745 .LASF6
     /tmp/ccpglLOF.s:3943   .debug_str:0000000000000bb6 .LASF7
     /tmp/ccpglLOF.s:3673   .debug_str:000000000000025c .LASF8
     /tmp/ccpglLOF.s:4081   .debug_str:0000000000001067 .LASF9
     /tmp/ccpglLOF.s:3757   .debug_str:0000000000000510 .LASF10
     /tmp/ccpglLOF.s:3699   .debug_str:0000000000000325 .LASF11
     /tmp/ccpglLOF.s:3833   .debug_str:00000000000007d1 .LASF12
     /tmp/ccpglLOF.s:3767   .debug_str:0000000000000565 .LASF13
     /tmp/ccpglLOF.s:3981   .debug_str:0000000000000cfc .LASF14
     /tmp/ccpglLOF.s:3771   .debug_str:000000000000057d .LASF15
     /tmp/ccpglLOF.s:3727   .debug_str:0000000000000432 .LASF16
     /tmp/ccpglLOF.s:3805   .debug_str:00000000000006e5 .LASF17
     /tmp/ccpglLOF.s:4021   .debug_str:0000000000000e3e .LASF18
     /tmp/ccpglLOF.s:4127   .debug_str:00000000000012cb .LASF19
     /tmp/ccpglLOF.s:3707   .debug_str:000000000000035a .LASF20
     /tmp/ccpglLOF.s:3611   .debug_str:0000000000000032 .LASF21
     /tmp/ccpglLOF.s:4125   .debug_str:00000000000012bd .LASF22
     /tmp/ccpglLOF.s:3867   .debug_str:000000000000092d .LASF23
     /tmp/ccpglLOF.s:3823   .debug_str:0000000000000783 .LASF24
     /tmp/ccpglLOF.s:3995   .debug_str:0000000000000d52 .LASF34
     /tmp/ccpglLOF.s:3989   .debug_str:0000000000000d2b .LASF25
     /tmp/ccpglLOF.s:3893   .debug_str:0000000000000a07 .LASF26
     /tmp/ccpglLOF.s:3939   .debug_str:0000000000000ba8 .LASF27
     /tmp/ccpglLOF.s:3821   .debug_str:000000000000077b .LASF28
     /tmp/ccpglLOF.s:3649   .debug_str:000000000000018d .LASF29
     /tmp/ccpglLOF.s:3931   .debug_str:0000000000000b84 .LASF30
     /tmp/ccpglLOF.s:3681   .debug_str:0000000000000288 .LASF31
     /tmp/ccpglLOF.s:4137   .debug_str:0000000000001330 .LASF32
     /tmp/ccpglLOF.s:3977   .debug_str:0000000000000cdf .LASF33
     /tmp/ccpglLOF.s:3983   .debug_str:0000000000000d08 .LASF35
     /tmp/ccpglLOF.s:4117   .debug_str:0000000000001285 .LASF36
     /tmp/ccpglLOF.s:3967   .debug_str:0000000000000c96 .LASF38
     /tmp/ccpglLOF.s:3955   .debug_str:0000000000000c27 .LASF37
     /tmp/ccpglLOF.s:4079   .debug_str:0000000000001054 .LASF39
     /tmp/ccpglLOF.s:3655   .debug_str:00000000000001b1 .LASF40
     /tmp/ccpglLOF.s:3639   .debug_str:000000000000013d .LASF41
     /tmp/ccpglLOF.s:3631   .debug_str:00000000000000f8 .LASF42
     /tmp/ccpglLOF.s:3819   .debug_str:000000000000076b .LASF43
     /tmp/ccpglLOF.s:3947   .debug_str:0000000000000bd4 .LASF44
     /tmp/ccpglLOF.s:3773   .debug_str:0000000000000593 .LASF45
     /tmp/ccpglLOF.s:3935   .debug_str:0000000000000b99 .LASF46
     /tmp/ccpglLOF.s:3937   .debug_str:0000000000000ba0 .LASF264
     /tmp/ccpglLOF.s:3641   .debug_str:0000000000000142 .LASF51
     /tmp/ccpglLOF.s:3901   .debug_str:0000000000000a56 .LASF47
     /tmp/ccpglLOF.s:3863   .debug_str:0000000000000907 .LASF48
     /tmp/ccpglLOF.s:3801   .debug_str:00000000000006be .LASF49
     /tmp/ccpglLOF.s:3991   .debug_str:0000000000000d30 .LASF50
     /tmp/ccpglLOF.s:3941   .debug_str:0000000000000bb1 .LASF52
     /tmp/ccpglLOF.s:3677   .debug_str:000000000000027e .LASF53
     /tmp/ccpglLOF.s:4023   .debug_str:0000000000000e46 .LASF54
     /tmp/ccpglLOF.s:3607   .debug_str:0000000000000013 .LASF55
     /tmp/ccpglLOF.s:3705   .debug_str:0000000000000343 .LASF56
     /tmp/ccpglLOF.s:3777   .debug_str:00000000000005bc .LASF57
     /tmp/ccpglLOF.s:4105   .debug_str:0000000000001239 .LASF58
     /tmp/ccpglLOF.s:3889   .debug_str:00000000000009f0 .LASF60
     /tmp/ccpglLOF.s:4051   .debug_str:0000000000000f54 .LASF62
     /tmp/ccpglLOF.s:3645   .debug_str:000000000000015e .LASF64
GAS LISTING /tmp/ccpglLOF.s 			page 23


     /tmp/ccpglLOF.s:3909   .debug_str:0000000000000a7e .LASF59
     /tmp/ccpglLOF.s:3787   .debug_str:000000000000063e .LASF61
     /tmp/ccpglLOF.s:3905   .debug_str:0000000000000a69 .LASF63
     /tmp/ccpglLOF.s:3651   .debug_str:0000000000000192 .LASF65
     /tmp/ccpglLOF.s:3779   .debug_str:00000000000005c1 .LASF66
     /tmp/ccpglLOF.s:4015   .debug_str:0000000000000e0f .LASF67
     /tmp/ccpglLOF.s:3845   .debug_str:000000000000083e .LASF68
     /tmp/ccpglLOF.s:3897   .debug_str:0000000000000a3b .LASF70
     /tmp/ccpglLOF.s:3755   .debug_str:0000000000000505 .LASF69
     /tmp/ccpglLOF.s:4029   .debug_str:0000000000000e75 .LASF71
     /tmp/ccpglLOF.s:3933   .debug_str:0000000000000b89 .LASF72
     /tmp/ccpglLOF.s:3711   .debug_str:000000000000036f .LASF73
     /tmp/ccpglLOF.s:3759   .debug_str:000000000000051f .LASF74
     /tmp/ccpglLOF.s:3665   .debug_str:0000000000000213 .LASF75
     /tmp/ccpglLOF.s:4077   .debug_str:0000000000001046 .LASF76
     /tmp/ccpglLOF.s:3717   .debug_str:00000000000003af .LASF77
     /tmp/ccpglLOF.s:3619   .debug_str:000000000000008f .LASF78
     /tmp/ccpglLOF.s:3971   .debug_str:0000000000000cb1 .LASF79
     /tmp/ccpglLOF.s:3899   .debug_str:0000000000000a4e .LASF80
     /tmp/ccpglLOF.s:3829   .debug_str:00000000000007be .LASF81
     /tmp/ccpglLOF.s:3679   .debug_str:0000000000000283 .LASF82
     /tmp/ccpglLOF.s:4027   .debug_str:0000000000000e70 .LASF83
     /tmp/ccpglLOF.s:3907   .debug_str:0000000000000a79 .LASF84
     /tmp/ccpglLOF.s:3997   .debug_str:0000000000000d58 .LASF85
     /tmp/ccpglLOF.s:3621   .debug_str:000000000000009b .LASF86
     /tmp/ccpglLOF.s:3747   .debug_str:00000000000004de .LASF87
     /tmp/ccpglLOF.s:3887   .debug_str:00000000000009e8 .LASF88
     /tmp/ccpglLOF.s:3635   .debug_str:0000000000000126 .LASF89
     /tmp/ccpglLOF.s:3957   .debug_str:0000000000000c2f .LASF90
     /tmp/ccpglLOF.s:4035   .debug_str:0000000000000eb6 .LASF91
     /tmp/ccpglLOF.s:3903   .debug_str:0000000000000a5e .LASF92
     /tmp/ccpglLOF.s:4111   .debug_str:0000000000001251 .LASF93
     /tmp/ccpglLOF.s:3885   .debug_str:00000000000009dd .LASF94
     /tmp/ccpglLOF.s:4049   .debug_str:0000000000000f43 .LASF95
     /tmp/ccpglLOF.s:4109   .debug_str:0000000000001248 .LASF96
     /tmp/ccpglLOF.s:3703   .debug_str:0000000000000339 .LASF97
     /tmp/ccpglLOF.s:4107   .debug_str:000000000000123e .LASF98
     /tmp/ccpglLOF.s:4019   .debug_str:0000000000000e34 .LASF99
     /tmp/ccpglLOF.s:3959   .debug_str:0000000000000c38 .LASF100
     /tmp/ccpglLOF.s:4031   .debug_str:0000000000000e8b .LASF265
     /tmp/ccpglLOF.s:3791   .debug_str:0000000000000668 .LASF266
     /tmp/ccpglLOF.s:4073   .debug_str:0000000000001034 .LASF101
     /tmp/ccpglLOF.s:3859   .debug_str:00000000000008dc .LASF102
     /tmp/ccpglLOF.s:3795   .debug_str:0000000000000691 .LASF103
     /tmp/ccpglLOF.s:4017   .debug_str:0000000000000e1e .LASF104
     /tmp/ccpglLOF.s:3647   .debug_str:0000000000000171 .LASF105
     /tmp/ccpglLOF.s:3975   .debug_str:0000000000000cd1 .LASF106
     /tmp/ccpglLOF.s:3731   .debug_str:000000000000045b .LASF108
     /tmp/ccpglLOF.s:4057   .debug_str:0000000000000f8a .LASF107
     /tmp/ccpglLOF.s:3737   .debug_str:000000000000048b .LASF109
     /tmp/ccpglLOF.s:3685   .debug_str:000000000000029e .LASF110
     /tmp/ccpglLOF.s:3891   .debug_str:00000000000009fc .LASF111
     /tmp/ccpglLOF.s:3689   .debug_str:00000000000002b7 .LASF112
     /tmp/ccpglLOF.s:4039   .debug_str:0000000000000ef0 .LASF113
     /tmp/ccpglLOF.s:3733   .debug_str:000000000000047a .LASF114
     /tmp/ccpglLOF.s:3987   .debug_str:0000000000000d1a .LASF115
     /tmp/ccpglLOF.s:4011   .debug_str:0000000000000de6 .LASF116
GAS LISTING /tmp/ccpglLOF.s 			page 24


     /tmp/ccpglLOF.s:3965   .debug_str:0000000000000c72 .LASF117
     /tmp/ccpglLOF.s:4093   .debug_str:0000000000001102 .LASF118
     /tmp/ccpglLOF.s:4083   .debug_str:0000000000001075 .LASF119
     /tmp/ccpglLOF.s:3671   .debug_str:0000000000000241 .LASF120
     /tmp/ccpglLOF.s:3825   .debug_str:0000000000000790 .LASF121
     /tmp/ccpglLOF.s:3713   .debug_str:000000000000037f .LASF122
     /tmp/ccpglLOF.s:4041   .debug_str:0000000000000ef5 .LASF123
     /tmp/ccpglLOF.s:3847   .debug_str:0000000000000847 .LASF124
     /tmp/ccpglLOF.s:3925   .debug_str:0000000000000b3e .LASF125
     /tmp/ccpglLOF.s:3633   .debug_str:0000000000000107 .LASF126
     /tmp/ccpglLOF.s:3781   .debug_str:00000000000005c6 .LASF127
     /tmp/ccpglLOF.s:3797   .debug_str:0000000000000697 .LASF128
     /tmp/ccpglLOF.s:4055   .debug_str:0000000000000f63 .LASF129
     /tmp/ccpglLOF.s:3911   .debug_str:0000000000000a8b .LASF130
     /tmp/ccpglLOF.s:3725   .debug_str:000000000000040f .LASF131
     /tmp/ccpglLOF.s:3715   .debug_str:0000000000000398 .LASF132
     /tmp/ccpglLOF.s:4063   .debug_str:0000000000000fc4 .LASF133
     /tmp/ccpglLOF.s:4087   .debug_str:00000000000010a5 .LASF134
     /tmp/ccpglLOF.s:3919   .debug_str:0000000000000af0 .LASF135
     /tmp/ccpglLOF.s:3661   .debug_str:00000000000001f0 .LASF136
     /tmp/ccpglLOF.s:3917   .debug_str:0000000000000acb .LASF137
     /tmp/ccpglLOF.s:4061   .debug_str:0000000000000fac .LASF138
     /tmp/ccpglLOF.s:3785   .debug_str:0000000000000619 .LASF139
     /tmp/ccpglLOF.s:3687   .debug_str:00000000000002a4 .LASF140
     /tmp/ccpglLOF.s:3851   .debug_str:0000000000000876 .LASF141
     /tmp/ccpglLOF.s:3817   .debug_str:0000000000000758 .LASF142
     /tmp/ccpglLOF.s:3865   .debug_str:000000000000090d .LASF143
     /tmp/ccpglLOF.s:3615   .debug_str:0000000000000058 .LASF144
     /tmp/ccpglLOF.s:4089   .debug_str:00000000000010bb .LASF145
     /tmp/ccpglLOF.s:4115   .debug_str:000000000000126c .LASF146
     /tmp/ccpglLOF.s:3761   .debug_str:0000000000000529 .LASF147
     /tmp/ccpglLOF.s:3775   .debug_str:00000000000005a0 .LASF148
     /tmp/ccpglLOF.s:3895   .debug_str:0000000000000a12 .LASF149
     /tmp/ccpglLOF.s:3605   .debug_str:0000000000000000 .LASF150
     /tmp/ccpglLOF.s:4007   .debug_str:0000000000000da8 .LASF151
     /tmp/ccpglLOF.s:4075   .debug_str:000000000000103a .LASF152
     /tmp/ccpglLOF.s:3993   .debug_str:0000000000000d38 .LASF153
     /tmp/ccpglLOF.s:3953   .debug_str:0000000000000c16 .LASF154
     /tmp/ccpglLOF.s:3883   .debug_str:00000000000009b1 .LASF155
     /tmp/ccpglLOF.s:3625   .debug_str:00000000000000b2 .LASF156
     /tmp/ccpglLOF.s:3949   .debug_str:0000000000000bde .LASF157
     /tmp/ccpglLOF.s:4033   .debug_str:0000000000000ea3 .LASF158
     /tmp/ccpglLOF.s:3617   .debug_str:000000000000006f .LASF159
     /tmp/ccpglLOF.s:4119   .debug_str:000000000000128c .LASF160
     /tmp/ccpglLOF.s:3963   .debug_str:0000000000000c5d .LASF161
     /tmp/ccpglLOF.s:3969   .debug_str:0000000000000ca8 .LASF162
     /tmp/ccpglLOF.s:4059   .debug_str:0000000000000f97 .LASF163
     /tmp/ccpglLOF.s:3709   .debug_str:0000000000000368 .LASF164
     /tmp/ccpglLOF.s:3999   .debug_str:0000000000000d5e .LASF165
     /tmp/ccpglLOF.s:3749   .debug_str:00000000000004e3 .LASF166
     /tmp/ccpglLOF.s:3869   .debug_str:0000000000000932 .LASF167
     /tmp/ccpglLOF.s:4099   .debug_str:000000000000113d .LASF168
     /tmp/ccpglLOF.s:3751   .debug_str:00000000000004ea .LASF169
     /tmp/ccpglLOF.s:3973   .debug_str:0000000000000cc9 .LASF170
     /tmp/ccpglLOF.s:3979   .debug_str:0000000000000ce8 .LASF171
     /tmp/ccpglLOF.s:3763   .debug_str:000000000000054f .LASF172
     /tmp/ccpglLOF.s:3881   .debug_str:000000000000099b .LASF173
GAS LISTING /tmp/ccpglLOF.s 			page 25


     /tmp/ccpglLOF.s:3739   .debug_str:00000000000004a9 .LASF174
     /tmp/ccpglLOF.s:3927   .debug_str:0000000000000b68 .LASF175
     /tmp/ccpglLOF.s:3877   .debug_str:0000000000000976 .LASF176
     /tmp/ccpglLOF.s:4135   .debug_str:0000000000001318 .LASF177
     /tmp/ccpglLOF.s:3663   .debug_str:0000000000000208 .LASF178
     /tmp/ccpglLOF.s:4005   .debug_str:0000000000000d90 .LASF179
     /tmp/ccpglLOF.s:4053   .debug_str:0000000000000f5c .LASF180
     /tmp/ccpglLOF.s:3721   .debug_str:00000000000003ed .LASF181
     /tmp/ccpglLOF.s:3741   .debug_str:00000000000004b3 .LASF182
     /tmp/ccpglLOF.s:3841   .debug_str:000000000000080c .LASF183
     /tmp/ccpglLOF.s:4045   .debug_str:0000000000000f29 .LASF184
     /tmp/ccpglLOF.s:3669   .debug_str:000000000000022e .LASF185
     /tmp/ccpglLOF.s:3807   .debug_str:00000000000006ea .LASF186
     /tmp/ccpglLOF.s:4131   .debug_str:00000000000012ec .LASF187
     /tmp/ccpglLOF.s:4085   .debug_str:0000000000001098 .LASF188
     /tmp/ccpglLOF.s:3879   .debug_str:0000000000000981 .LASF189
     /tmp/ccpglLOF.s:3623   .debug_str:00000000000000a5 .LASF190
     /tmp/ccpglLOF.s:3697   .debug_str:000000000000030b .LASF191
     /tmp/ccpglLOF.s:3693   .debug_str:00000000000002e7 .LASF192
     /tmp/ccpglLOF.s:3743   .debug_str:00000000000004ba .LASF193
     /tmp/ccpglLOF.s:4047   .debug_str:0000000000000f30 .LASF194
     /tmp/ccpglLOF.s:4139   .debug_str:000000000000133c .LASF195
     /tmp/ccpglLOF.s:3849   .debug_str:0000000000000864 .LASF196
     /tmp/ccpglLOF.s:3843   .debug_str:000000000000081f .LASF197
     /tmp/ccpglLOF.s:3861   .debug_str:00000000000008f6 .LASF198
     /tmp/ccpglLOF.s:3803   .debug_str:00000000000006c7 .LASF199
     /tmp/ccpglLOF.s:3789   .debug_str:000000000000064a .LASF200
     /tmp/ccpglLOF.s:3691   .debug_str:00000000000002bc .LASF201
     /tmp/ccpglLOF.s:3945   .debug_str:0000000000000bc9 .LASF202
     /tmp/ccpglLOF.s:3961   .debug_str:0000000000000c45 .LASF203
     /tmp/ccpglLOF.s:3765   .debug_str:0000000000000559 .LASF204
     /tmp/ccpglLOF.s:3913   .debug_str:0000000000000aa1 .LASF205
     /tmp/ccpglLOF.s:3929   .debug_str:0000000000000b7e .LASF206
     /tmp/ccpglLOF.s:3875   .debug_str:0000000000000964 .LASF207
     /tmp/ccpglLOF.s:3723   .debug_str:0000000000000400 .LASF208
     /tmp/ccpglLOF.s:3809   .debug_str:00000000000006f1 .LASF209
     /tmp/ccpglLOF.s:3643   .debug_str:0000000000000149 .LASF210
     /tmp/ccpglLOF.s:3857   .debug_str:00000000000008ba .LASF211
     /tmp/ccpglLOF.s:4141   .debug_str:000000000000135d .LASF212
     /tmp/ccpglLOF.s:4069   .debug_str:0000000000001011 .LASF213
     /tmp/ccpglLOF.s:3675   .debug_str:000000000000026c .LASF214
     /tmp/ccpglLOF.s:4025   .debug_str:0000000000000e51 .LASF215
     /tmp/ccpglLOF.s:4133   .debug_str:00000000000012ff .LASF216
     /tmp/ccpglLOF.s:3923   .debug_str:0000000000000b18 .LASF217
     /tmp/ccpglLOF.s:3613   .debug_str:000000000000003e .LASF218
     /tmp/ccpglLOF.s:3783   .debug_str:00000000000005f2 .LASF219
     /tmp/ccpglLOF.s:3719   .debug_str:00000000000003d7 .LASF220
     /tmp/ccpglLOF.s:4091   .debug_str:00000000000010df .LASF221
     /tmp/ccpglLOF.s:3657   .debug_str:00000000000001b6 .LASF222
     /tmp/ccpglLOF.s:4103   .debug_str:0000000000001215 .LASF223
     /tmp/ccpglLOF.s:3835   .debug_str:00000000000007e1 .LASF224
     /tmp/ccpglLOF.s:4065   .debug_str:0000000000000fe8 .LASF225
     /tmp/ccpglLOF.s:4003   .debug_str:0000000000000d78 .LASF226
     /tmp/ccpglLOF.s:4067   .debug_str:0000000000001008 .LASF227
     /tmp/ccpglLOF.s:3793   .debug_str:000000000000067c .LASF228
     /tmp/ccpglLOF.s:3837   .debug_str:00000000000007f1 .LASF229
     /tmp/ccpglLOF.s:4113   .debug_str:0000000000001259 .LASF230
GAS LISTING /tmp/ccpglLOF.s 			page 26


     /tmp/ccpglLOF.s:3799   .debug_str:00000000000006b1 .LASF231
     /tmp/ccpglLOF.s:4009   .debug_str:0000000000000dc8 .LASF232
     /tmp/ccpglLOF.s:3871   .debug_str:0000000000000945 .LASF233
     /tmp/ccpglLOF.s:3951   .debug_str:0000000000000bfa .LASF234
     /tmp/ccpglLOF.s:3985   .debug_str:0000000000000d0d .LASF235
     /tmp/ccpglLOF.s:3855   .debug_str:00000000000008a0 .LASF236
     /tmp/ccpglLOF.s:3839   .debug_str:00000000000007f8 .LASF267
     /tmp/ccpglLOF.s:3627   .debug_str:00000000000000c1 .LASF268
     /tmp/ccpglLOF.s:3915   .debug_str:0000000000000aba .LASF237
     /tmp/ccpglLOF.s:3629   .debug_str:00000000000000e3 .LASF238
     /tmp/ccpglLOF.s:4129   .debug_str:00000000000012d9 .LASF239
     /tmp/ccpglLOF.s:3609   .debug_str:000000000000001f .LASF240
     /tmp/ccpglLOF.s:3813   .debug_str:000000000000072a .LASF241
     /tmp/ccpglLOF.s:4095   .debug_str:0000000000001118 .LASF242
     /tmp/ccpglLOF.s:45     .text:0000000000000028 .LFB61
     /tmp/ccpglLOF.s:73     .text:0000000000000050 .LFE61
     /tmp/ccpglLOF.s:10     .text:0000000000000000 .LFB60
     /tmp/ccpglLOF.s:39     .text:0000000000000028 .LFE60
     /tmp/ccpglLOF.s:527    .text:0000000000000328 .LFB59
     /tmp/ccpglLOF.s:574    .text:0000000000000354 .LFE59
     /tmp/ccpglLOF.s:4071   .debug_str:000000000000102f .LASF243
     /tmp/ccpglLOF.s:3434   .debug_loc:0000000000000000 .LLST8
     /tmp/ccpglLOF.s:3735   .debug_str:0000000000000486 .LASF244
     /tmp/ccpglLOF.s:3448   .debug_loc:0000000000000039 .LLST9
     /tmp/ccpglLOF.s:3462   .debug_loc:0000000000000072 .LLST10
     /tmp/ccpglLOF.s:492    .text:00000000000002f4 .LFB58
     /tmp/ccpglLOF.s:521    .text:0000000000000328 .LFE58
     /tmp/ccpglLOF.s:3469   .debug_loc:0000000000000095 .LLST7
     /tmp/ccpglLOF.s:510    .text:0000000000000318 .LVL37
     /tmp/ccpglLOF.s:352    .text:00000000000001d0 .LFB57
     /tmp/ccpglLOF.s:380    .text:0000000000000200 .LFE57
     /tmp/ccpglLOF.s:3701   .debug_str:0000000000000334 .LASF245
     /tmp/ccpglLOF.s:3487   .debug_loc:00000000000000e1 .LLST5
     /tmp/ccpglLOF.s:369    .text:00000000000001f0 .LVL24
     /tmp/ccpglLOF.s:79     .text:0000000000000050 .LFB56
     /tmp/ccpglLOF.s:117    .text:0000000000000094 .LFE56
     /tmp/ccpglLOF.s:3501   .debug_loc:000000000000011a .LLST0
     /tmp/ccpglLOF.s:94     .text:0000000000000068 .LVL3
     /tmp/ccpglLOF.s:106    .text:0000000000000084 .LVL5
     /tmp/ccpglLOF.s:277    .text:0000000000000150 .LFB55
     /tmp/ccpglLOF.s:346    .text:00000000000001d0 .LFE55
     /tmp/ccpglLOF.s:3515   .debug_loc:0000000000000153 .LLST4
     /tmp/ccpglLOF.s:304    .text:0000000000000180 .LVL16
     /tmp/ccpglLOF.s:315    .text:0000000000000198 .LVL17
     /tmp/ccpglLOF.s:321    .text:00000000000001ac .LVL18
     /tmp/ccpglLOF.s:343    .text:00000000000001cc .LVL21
     /tmp/ccpglLOF.s:3921   .debug_str:0000000000000b13 .LASF246
     /tmp/ccpglLOF.s:3853   .debug_str:0000000000000896 .LASF247
     /tmp/ccpglLOF.s:3831   .debug_str:00000000000007c5 .LASF248
     /tmp/ccpglLOF.s:231    .text:0000000000000128 .LFB53
     /tmp/ccpglLOF.s:261    .text:0000000000000150 .LFE53
     /tmp/ccpglLOF.s:3526   .debug_loc:0000000000000189 .LLST3
     /tmp/ccpglLOF.s:249    .text:0000000000000140 .LVL14
     /tmp/ccpglLOF.s:197    .text:00000000000000fc .LFB51
     /tmp/ccpglLOF.s:225    .text:0000000000000128 .LFE51
     /tmp/ccpglLOF.s:3540   .debug_loc:00000000000001c2 .LLST2
     /tmp/ccpglLOF.s:214    .text:0000000000000118 .LVL12
GAS LISTING /tmp/ccpglLOF.s 			page 27


     /tmp/ccpglLOF.s:3695   .debug_str:00000000000002f4 .LASF249
     /tmp/ccpglLOF.s:123    .text:0000000000000094 .LFB49
     /tmp/ccpglLOF.s:189    .text:00000000000000fc .LFE49
     /tmp/ccpglLOF.s:3554   .debug_loc:00000000000001fb .LLST1
     /tmp/ccpglLOF.s:391    .text:0000000000000200 .LFB47
     /tmp/ccpglLOF.s:486    .text:00000000000002f4 .LFE47
     /tmp/ccpglLOF.s:3745   .debug_str:00000000000004d4 .LASF250
     /tmp/ccpglLOF.s:3579   .debug_loc:000000000000025d .LLST6
     /tmp/ccpglLOF.s:413    .text:000000000000023c .LVL25
     /tmp/ccpglLOF.s:420    .text:0000000000000250 .LVL26
     /tmp/ccpglLOF.s:429    .text:0000000000000270 .LVL27
     /tmp/ccpglLOF.s:441    .text:000000000000028c .LVL28
     /tmp/ccpglLOF.s:449    .text:000000000000029c .LVL31
     /tmp/ccpglLOF.s:458    .text:00000000000002c0 .LVL32
     /tmp/ccpglLOF.s:470    .text:00000000000002dc .LVL33
     /tmp/ccpglLOF.s:3811   .debug_str:000000000000070d .LASF251
     /tmp/ccpglLOF.s:3873   .debug_str:0000000000000954 .LASF253
     /tmp/ccpglLOF.s:4123   .debug_str:00000000000012a1 .LASF252
     /tmp/ccpglLOF.s:3667   .debug_str:000000000000021d .LASF254
     /tmp/ccpglLOF.s:4121   .debug_str:0000000000001295 .LASF255
     /tmp/ccpglLOF.s:3827   .debug_str:00000000000007b8 .LASF256
     /tmp/ccpglLOF.s:3659   .debug_str:00000000000001cd .LASF257
     /tmp/ccpglLOF.s:3653   .debug_str:000000000000019f .LASF258
     /tmp/ccpglLOF.s:3683   .debug_str:0000000000000292 .LASF259
     /tmp/ccpglLOF.s:3769   .debug_str:0000000000000575 .LASF260
     /tmp/ccpglLOF.s:530    .text:0000000000000328 .LVL38
     /tmp/ccpglLOF.s:561    .text:0000000000000344 .LVL40
     /tmp/ccpglLOF.s:538    .text:0000000000000334 .LVL39
     /tmp/ccpglLOF.s:566    .text:0000000000000348 .LVL41
     /tmp/ccpglLOF.s:495    .text:00000000000002f4 .LVL35
     /tmp/ccpglLOF.s:508    .text:0000000000000310 .LVL36
     /tmp/ccpglLOF.s:355    .text:00000000000001d0 .LVL22
     /tmp/ccpglLOF.s:367    .text:00000000000001e8 .LVL23
     /tmp/ccpglLOF.s:82     .text:0000000000000050 .LVL2
     /tmp/ccpglLOF.s:293    .text:000000000000016c .LVL15
     /tmp/ccpglLOF.s:332    .text:00000000000001b8 .LVL19
     /tmp/ccpglLOF.s:336    .text:00000000000001c0 .LVL20
     /tmp/ccpglLOF.s:236    .text:0000000000000128 .LVL13
     /tmp/ccpglLOF.s:200    .text:00000000000000fc .LVL10
     /tmp/ccpglLOF.s:212    .text:0000000000000110 .LVL11
     /tmp/ccpglLOF.s:126    .text:0000000000000094 .LVL6
     /tmp/ccpglLOF.s:160    .text:00000000000000d0 .LVL7
     /tmp/ccpglLOF.s:175    .text:00000000000000ec .LVL8
     /tmp/ccpglLOF.s:185    .text:00000000000000f8 .LVL9
     /tmp/ccpglLOF.s:443    .text:0000000000000290 .LVL29
     /tmp/ccpglLOF.s:447    .text:0000000000000294 .LVL30
     /tmp/ccpglLOF.s:481    .text:00000000000002ec .LVL34
     /tmp/ccpglLOF.s:620    .debug_info:0000000000000000 .Ldebug_info0
     /tmp/ccpglLOF.s:264    .gcc_except_table:0000000000000000 .LLSDA53

UNDEFINED SYMBOLS
_ZN5RiscV10popSppSpieEv
_ZN5RiscV14threadExitUtilEv
_Z5kfreePKv
__gxx_personality_v0
_ZN9Scheduler3getEv
_ZN5RiscV29jumpToDesignatedPrivilegeModeEv
GAS LISTING /tmp/ccpglLOF.s 			page 28


_ZN3TCB13contextSwitchEPNS_7ContextES1_
_ZN9Scheduler3putEP3TCB
_Z16kmem_cache_allocP5Cache
_Z17kmem_cache_createPKcmPFvPvES3_
_Z7kmallocm
_ZN5RiscV11putcWrapperEPv
_Z15kmem_cache_freeP5CachePv
