GAS LISTING /tmp/ccJvgpd8.s 			page 1


   1              		.file	"utility.cpp"
   2              		.option pic
   3              		.option norelax
   4              		.text
   5              	.Ltext0:
   6              		.align	2
   7              		.globl	_Z6strcpyPKcPc
   9              	_Z6strcpyPKcPc:
  10              	.LFB0:
  11              		.file 1 "src/kernel/utility.cpp"
   1:src/kernel/utility.cpp **** //
   2:src/kernel/utility.cpp **** // Created by os on 1/8/23.
   3:src/kernel/utility.cpp **** //
   4:src/kernel/utility.cpp **** #include "../../h/kernel/utility.hpp"
   5:src/kernel/utility.cpp **** 
   6:src/kernel/utility.cpp **** char* strcpy(const char* src, char* dst){
  12              		.loc 1 6 41
  13              		.cfi_startproc
  14              	.LVL0:
  15 0000 130101FF 		addi	sp,sp,-16
  16              		.cfi_def_cfa_offset 16
  17 0004 23348100 		sd	s0,8(sp)
  18              		.cfi_offset 8, -8
  19 0008 13040101 		addi	s0,sp,16
  20              		.cfi_def_cfa 8, 0
  21 000c 93070500 		mv	a5,a0
  22 0010 13850500 		mv	a0,a1
  23              	.LVL1:
  24              	.L3:
   7:src/kernel/utility.cpp ****     while(*src != '\0')
  25              		.loc 1 7 5
  26              		.loc 1 7 16
  27              		.loc 1 7 11 is_stmt 0
  28 0014 03C70700 		lbu	a4,0(a5)
  29              		.loc 1 7 16
  30 0018 630A0700 		beqz	a4,.L2
   8:src/kernel/utility.cpp ****         *dst++ = *src++;
  31              		.loc 1 8 9 is_stmt 1
  32              		.loc 1 8 22 is_stmt 0
  33 001c 93871700 		addi	a5,a5,1
  34              	.LVL2:
  35              		.loc 1 8 16
  36 0020 2300E500 		sb	a4,0(a0)
  37              		.loc 1 8 13
  38 0024 13051500 		addi	a0,a0,1
  39              	.LVL3:
   7:src/kernel/utility.cpp ****     while(*src != '\0')
  40              		.loc 1 7 5
  41 0028 6FF0DFFE 		j	.L3
  42              	.L2:
   9:src/kernel/utility.cpp ****     *dst = *src;
  43              		.loc 1 9 5 is_stmt 1
  44              		.loc 1 9 10 is_stmt 0
  45 002c 2300E500 		sb	a4,0(a0)
  10:src/kernel/utility.cpp ****     return dst;
  46              		.loc 1 10 5 is_stmt 1
  11:src/kernel/utility.cpp **** }
GAS LISTING /tmp/ccJvgpd8.s 			page 2


  47              		.loc 1 11 1 is_stmt 0
  48 0030 03348100 		ld	s0,8(sp)
  49              		.cfi_restore 8
  50              		.cfi_def_cfa 2, 16
  51 0034 13010101 		addi	sp,sp,16
  52              		.cfi_def_cfa_offset 0
  53 0038 67800000 		jr	ra
  54              		.cfi_endproc
  55              	.LFE0:
  57              		.align	2
  58              		.globl	_Z6strcatPcPKc
  60              	_Z6strcatPcPKc:
  61              	.LFB1:
  12:src/kernel/utility.cpp **** 
  13:src/kernel/utility.cpp **** char* strcat(char* dst, const char* src){
  62              		.loc 1 13 41 is_stmt 1
  63              		.cfi_startproc
  64              	.LVL4:
  65 003c 130101FE 		addi	sp,sp,-32
  66              		.cfi_def_cfa_offset 32
  67 0040 233C1100 		sd	ra,24(sp)
  68 0044 23388100 		sd	s0,16(sp)
  69 0048 23349100 		sd	s1,8(sp)
  70              		.cfi_offset 1, -8
  71              		.cfi_offset 8, -16
  72              		.cfi_offset 9, -24
  73 004c 13040102 		addi	s0,sp,32
  74              		.cfi_def_cfa 8, 0
  75 0050 93040500 		mv	s1,a0
  76 0054 13850500 		mv	a0,a1
  77              	.LVL5:
  14:src/kernel/utility.cpp ****     char *dest = dst;
  78              		.loc 1 14 5
  79              		.loc 1 14 11 is_stmt 0
  80 0058 93850400 		mv	a1,s1
  81              	.LVL6:
  82              	.L7:
  15:src/kernel/utility.cpp ****     while(*dest != '\0')
  83              		.loc 1 15 5 is_stmt 1
  84              		.loc 1 15 17
  85              		.loc 1 15 11 is_stmt 0
  86 005c 83C70500 		lbu	a5,0(a1)
  87              		.loc 1 15 17
  88 0060 63860700 		beqz	a5,.L6
  16:src/kernel/utility.cpp ****         dest++;
  89              		.loc 1 16 9 is_stmt 1
  90              		.loc 1 16 13 is_stmt 0
  91 0064 93851500 		addi	a1,a1,1
  92              	.LVL7:
  15:src/kernel/utility.cpp ****     while(*dest != '\0')
  93              		.loc 1 15 5
  94 0068 6FF05FFF 		j	.L7
  95              	.L6:
  17:src/kernel/utility.cpp ****     strcpy(src, dest);
  96              		.loc 1 17 5 is_stmt 1
  97              		.loc 1 17 11 is_stmt 0
  98 006c 97000000 		call	_Z6strcpyPKcPc
GAS LISTING /tmp/ccJvgpd8.s 			page 3


  98      E7800000 
  99              	.LVL8:
  18:src/kernel/utility.cpp ****     return dst;
 100              		.loc 1 18 5 is_stmt 1
  19:src/kernel/utility.cpp **** }...
 101              		.loc 1 19 1 is_stmt 0
 102 0074 13850400 		mv	a0,s1
 103 0078 83308101 		ld	ra,24(sp)
 104              		.cfi_restore 1
 105 007c 03340101 		ld	s0,16(sp)
 106              		.cfi_restore 8
 107              		.cfi_def_cfa 2, 32
 108 0080 83348100 		ld	s1,8(sp)
 109              		.cfi_restore 9
 110              	.LVL9:
 111 0084 13010102 		addi	sp,sp,32
 112              		.cfi_def_cfa_offset 0
 113 0088 67800000 		jr	ra
 114              		.cfi_endproc
 115              	.LFE1:
 117              	.Letext0:
 118              		.file 2 "src/kernel/../../h/kernel/../../lib/hw.h"
 119              		.file 3 "src/kernel/../../h/kernel/utility.hpp"
GAS LISTING /tmp/ccJvgpd8.s 			page 4


DEFINED SYMBOLS
                            *ABS*:0000000000000000 utility.cpp
     /tmp/ccJvgpd8.s:9      .text:0000000000000000 _Z6strcpyPKcPc
     /tmp/ccJvgpd8.s:13     .text:0000000000000000 .L0 
     /tmp/ccJvgpd8.s:15     .text:0000000000000000 .L0 
     /tmp/ccJvgpd8.s:16     .text:0000000000000004 .L0 
     /tmp/ccJvgpd8.s:18     .text:0000000000000008 .L0 
     /tmp/ccJvgpd8.s:20     .text:000000000000000c .L0 
     /tmp/ccJvgpd8.s:26     .text:0000000000000014 .L0 
     /tmp/ccJvgpd8.s:27     .text:0000000000000014 .L0 
     /tmp/ccJvgpd8.s:28     .text:0000000000000014 .L0 
     /tmp/ccJvgpd8.s:30     .text:0000000000000018 .L0 
     /tmp/ccJvgpd8.s:32     .text:000000000000001c .L0 
     /tmp/ccJvgpd8.s:33     .text:000000000000001c .L0 
     /tmp/ccJvgpd8.s:36     .text:0000000000000020 .L0 
     /tmp/ccJvgpd8.s:38     .text:0000000000000024 .L0 
     /tmp/ccJvgpd8.s:41     .text:0000000000000028 .L0 
     /tmp/ccJvgpd8.s:44     .text:000000000000002c .L0 
     /tmp/ccJvgpd8.s:45     .text:000000000000002c .L0 
     /tmp/ccJvgpd8.s:47     .text:0000000000000030 .L0 
     /tmp/ccJvgpd8.s:48     .text:0000000000000030 .L0 
     /tmp/ccJvgpd8.s:49     .text:0000000000000034 .L0 
     /tmp/ccJvgpd8.s:50     .text:0000000000000034 .L0 
     /tmp/ccJvgpd8.s:52     .text:0000000000000038 .L0 
     /tmp/ccJvgpd8.s:54     .text:000000000000003c .L0 
     /tmp/ccJvgpd8.s:60     .text:000000000000003c _Z6strcatPcPKc
     /tmp/ccJvgpd8.s:63     .text:000000000000003c .L0 
     /tmp/ccJvgpd8.s:65     .text:000000000000003c .L0 
     /tmp/ccJvgpd8.s:66     .text:0000000000000040 .L0 
     /tmp/ccJvgpd8.s:70     .text:000000000000004c .L0 
     /tmp/ccJvgpd8.s:71     .text:000000000000004c .L0 
     /tmp/ccJvgpd8.s:72     .text:000000000000004c .L0 
     /tmp/ccJvgpd8.s:74     .text:0000000000000050 .L0 
     /tmp/ccJvgpd8.s:79     .text:0000000000000058 .L0 
     /tmp/ccJvgpd8.s:80     .text:0000000000000058 .L0 
     /tmp/ccJvgpd8.s:84     .text:000000000000005c .L0 
     /tmp/ccJvgpd8.s:85     .text:000000000000005c .L0 
     /tmp/ccJvgpd8.s:86     .text:000000000000005c .L0 
     /tmp/ccJvgpd8.s:88     .text:0000000000000060 .L0 
     /tmp/ccJvgpd8.s:90     .text:0000000000000064 .L0 
     /tmp/ccJvgpd8.s:91     .text:0000000000000064 .L0 
     /tmp/ccJvgpd8.s:94     .text:0000000000000068 .L0 
     /tmp/ccJvgpd8.s:97     .text:000000000000006c .L0 
     /tmp/ccJvgpd8.s:98     .text:000000000000006c .L0 
     /tmp/ccJvgpd8.s:101    .text:0000000000000074 .L0 
     /tmp/ccJvgpd8.s:102    .text:0000000000000074 .L0 
     /tmp/ccJvgpd8.s:104    .text:000000000000007c .L0 
     /tmp/ccJvgpd8.s:106    .text:0000000000000080 .L0 
     /tmp/ccJvgpd8.s:107    .text:0000000000000080 .L0 
     /tmp/ccJvgpd8.s:109    .text:0000000000000084 .L0 
     /tmp/ccJvgpd8.s:112    .text:0000000000000088 .L0 
     /tmp/ccJvgpd8.s:114    .text:000000000000008c .L0 
     /tmp/ccJvgpd8.s:120    .text:000000000000008c .L0 
     /tmp/ccJvgpd8.s:42     .text:000000000000002c .L2
     /tmp/ccJvgpd8.s:24     .text:0000000000000014 .L3
     /tmp/ccJvgpd8.s:95     .text:000000000000006c .L6
     /tmp/ccJvgpd8.s:82     .text:000000000000005c .L7
GAS LISTING /tmp/ccJvgpd8.s 			page 5


     /tmp/ccJvgpd8.s:356    .debug_abbrev:0000000000000000 .Ldebug_abbrev0
     /tmp/ccJvgpd8.s:715    .debug_str:000000000000009d .LASF24
     /tmp/ccJvgpd8.s:739    .debug_str:000000000000023d .LASF25
     /tmp/ccJvgpd8.s:729    .debug_str:00000000000001c7 .LASF26
     /tmp/ccJvgpd8.s:5      .text:0000000000000000 .Ltext0
     /tmp/ccJvgpd8.s:117    .text:000000000000008c .Letext0
     /tmp/ccJvgpd8.s:685    .debug_line:0000000000000000 .Ldebug_line0
     /tmp/ccJvgpd8.s:689    .debug_str:0000000000000007 .LASF0
     /tmp/ccJvgpd8.s:733    .debug_str:000000000000020b .LASF1
     /tmp/ccJvgpd8.s:719    .debug_str:0000000000000179 .LASF2
     /tmp/ccJvgpd8.s:713    .debug_str:0000000000000096 .LASF4
     /tmp/ccJvgpd8.s:709    .debug_str:000000000000007d .LASF3
     /tmp/ccJvgpd8.s:699    .debug_str:0000000000000044 .LASF5
     /tmp/ccJvgpd8.s:743    .debug_str:0000000000000264 .LASF6
     /tmp/ccJvgpd8.s:731    .debug_str:00000000000001f8 .LASF7
     /tmp/ccJvgpd8.s:741    .debug_str:0000000000000254 .LASF8
     /tmp/ccJvgpd8.s:695    .debug_str:0000000000000027 .LASF9
     /tmp/ccJvgpd8.s:697    .debug_str:0000000000000035 .LASF10
     /tmp/ccJvgpd8.s:737    .debug_str:000000000000022e .LASF11
     /tmp/ccJvgpd8.s:701    .debug_str:000000000000004b .LASF12
     /tmp/ccJvgpd8.s:735    .debug_str:000000000000021e .LASF13
     /tmp/ccJvgpd8.s:717    .debug_str:000000000000016d .LASF14
     /tmp/ccJvgpd8.s:727    .debug_str:00000000000001b1 .LASF15
     /tmp/ccJvgpd8.s:723    .debug_str:000000000000018c .LASF16
     /tmp/ccJvgpd8.s:721    .debug_str:0000000000000187 .LASF17
     /tmp/ccJvgpd8.s:707    .debug_str:0000000000000075 .LASF18
     /tmp/ccJvgpd8.s:745    .debug_str:0000000000000277 .LASF19
     /tmp/ccJvgpd8.s:703    .debug_str:000000000000005b .LASF20
     /tmp/ccJvgpd8.s:705    .debug_str:0000000000000069 .LASF21
     /tmp/ccJvgpd8.s:693    .debug_str:0000000000000019 .LASF22
     /tmp/ccJvgpd8.s:711    .debug_str:000000000000008f .LASF27
     /tmp/ccJvgpd8.s:725    .debug_str:00000000000001a2 .LASF28
     /tmp/ccJvgpd8.s:61     .text:000000000000003c .LFB1
     /tmp/ccJvgpd8.s:115    .text:000000000000008c .LFE1
     /tmp/ccJvgpd8.s:596    .debug_loc:0000000000000000 .LLST2
     /tmp/ccJvgpd8.s:611    .debug_loc:0000000000000049 .LLST3
     /tmp/ccJvgpd8.s:691    .debug_str:0000000000000014 .LASF23
     /tmp/ccJvgpd8.s:629    .debug_loc:0000000000000095 .LLST4
     /tmp/ccJvgpd8.s:99     .text:0000000000000074 .LVL8
     /tmp/ccJvgpd8.s:687    .debug_str:0000000000000000 .LASF29
     /tmp/ccJvgpd8.s:747    .debug_str:0000000000000285 .LASF30
     /tmp/ccJvgpd8.s:10     .text:0000000000000000 .LFB0
     /tmp/ccJvgpd8.s:55     .text:000000000000003c .LFE0
     /tmp/ccJvgpd8.s:640    .debug_loc:00000000000000cb .LLST0
     /tmp/ccJvgpd8.s:651    .debug_loc:0000000000000101 .LLST1
     /tmp/ccJvgpd8.s:64     .text:000000000000003c .LVL4
     /tmp/ccJvgpd8.s:77     .text:0000000000000058 .LVL5
     /tmp/ccJvgpd8.s:110    .text:0000000000000084 .LVL9
     /tmp/ccJvgpd8.s:81     .text:000000000000005c .LVL6
     /tmp/ccJvgpd8.s:14     .text:0000000000000000 .LVL0
     /tmp/ccJvgpd8.s:23     .text:0000000000000014 .LVL1
     /tmp/ccJvgpd8.s:34     .text:0000000000000020 .LVL2
     /tmp/ccJvgpd8.s:39     .text:0000000000000028 .LVL3
     /tmp/ccJvgpd8.s:121    .debug_info:0000000000000000 .Ldebug_info0

NO UNDEFINED SYMBOLS
