GAS LISTING /tmp/ccJvgpd8.s 			page 1


   1              		.file	"utility.cpp"
   2              		.option pic
   3              		.option norelax
   4              		.text
   5              	.Ltext0:
   6              		.align	2
   7              		.globl	_Z6strcpyPKcPc
   9              	_Z6strcpyPKcPc:
  10              	.LFB0:
  11              		.file 1 "src/kernel/utility.cpp"
   1:src/kernel/utility.cpp **** //
   2:src/kernel/utility.cpp **** // Created by os on 1/8/23.
   3:src/kernel/utility.cpp **** //
   4:src/kernel/utility.cpp **** #include "../../h/kernel/utility.hpp"
   5:src/kernel/utility.cpp **** 
   6:src/kernel/utility.cpp **** char* strcpy(const char* src, char* dst){
  12              		.loc 1 6 41
  13              		.cfi_startproc
  14              	.LVL0:
  15 0000 130101FF 		addi	sp,sp,-16
  16              		.cfi_def_cfa_offset 16
  17 0004 23348100 		sd	s0,8(sp)
  18              		.cfi_offset 8, -8
  19 0008 13040101 		addi	s0,sp,16
  20              		.cfi_def_cfa 8, 0
  21 000c 93070500 		mv	a5,a0
  22 0010 13850500 		mv	a0,a1
  23              	.LVL1:
  24              	.L3:
   7:src/kernel/utility.cpp ****     while(*src != '\0')
  25              		.loc 1 7 5
  26              		.loc 1 7 16
  27              		.loc 1 7 11 is_stmt 0
  28 0014 03C70700 		lbu	a4,0(a5)
  29              		.loc 1 7 16
  30 0018 630A0700 		beqz	a4,.L2
   8:src/kernel/utility.cpp ****         *dst++ = *src++;
  31              		.loc 1 8 9 is_stmt 1
  32              		.loc 1 8 22 is_stmt 0
  33 001c 93871700 		addi	a5,a5,1
  34              	.LVL2:
  35              		.loc 1 8 16
  36 0020 2300E500 		sb	a4,0(a0)
  37              		.loc 1 8 13
  38 0024 13051500 		addi	a0,a0,1
  39              	.LVL3:
   7:src/kernel/utility.cpp ****     while(*src != '\0')
  40              		.loc 1 7 5
  41 0028 6FF0DFFE 		j	.L3
  42              	.L2:
   9:src/kernel/utility.cpp ****     *dst = *src;
  43              		.loc 1 9 5 is_stmt 1
  44              		.loc 1 9 10 is_stmt 0
  45 002c 2300E500 		sb	a4,0(a0)
  10:src/kernel/utility.cpp ****     return dst;
  46              		.loc 1 10 5 is_stmt 1
  11:src/kernel/utility.cpp **** }
GAS LISTING /tmp/ccJvgpd8.s 			page 2


  47              		.loc 1 11 1 is_stmt 0
  48 0030 03348100 		ld	s0,8(sp)
  49              		.cfi_restore 8
  50              		.cfi_def_cfa 2, 16
  51 0034 13010101 		addi	sp,sp,16
  52              		.cfi_def_cfa_offset 0
  53 0038 67800000 		jr	ra
  54              		.cfi_endproc
  55              	.LFE0:
  57              		.align	2
  58              		.globl	_Z6strcatPcPKc
  60              	_Z6strcatPcPKc:
  61              	.LFB1:
  12:src/kernel/utility.cpp **** 
  13:src/kernel/utility.cpp **** char* strcat(char* dst, const char* src){
  62              		.loc 1 13 41 is_stmt 1
  63              		.cfi_startproc
  64              	.LVL4:
  65 003c 130101FE 		addi	sp,sp,-32
  66              		.cfi_def_cfa_offset 32
  67 0040 233C1100 		sd	ra,24(sp)
  68 0044 23388100 		sd	s0,16(sp)
  69 0048 23349100 		sd	s1,8(sp)
  70              		.cfi_offset 1, -8
  71              		.cfi_offset 8, -16
  72              		.cfi_offset 9, -24
  73 004c 13040102 		addi	s0,sp,32
  74              		.cfi_def_cfa 8, 0
  75 0050 93040500 		mv	s1,a0
  76 0054 13850500 		mv	a0,a1
  77              	.LVL5:
  14:src/kernel/utility.cpp ****     char *dest = dst;
  78              		.loc 1 14 5
  79              		.loc 1 14 11 is_stmt 0
  80 0058 93850400 		mv	a1,s1
  81              	.LVL6:
  82              	.L7:
  15:src/kernel/utility.cpp ****     while(*dest != '\0')
  83              		.loc 1 15 5 is_stmt 1
  84              		.loc 1 15 17
  85              		.loc 1 15 11 is_stmt 0
  86 005c 83C70500 		lbu	a5,0(a1)
  87              		.loc 1 15 17
  88 0060 63860700 		beqz	a5,.L6
  16:src/kernel/utility.cpp ****         dest++;
  89              		.loc 1 16 9 is_stmt 1
  90              		.loc 1 16 13 is_stmt 0
  91 0064 93851500 		addi	a1,a1,1
  92              	.LVL7:
  15:src/kernel/utility.cpp ****     while(*dest != '\0')
  93              		.loc 1 15 5
  94 0068 6FF05FFF 		j	.L7
  95              	.L6:
  17:src/kernel/utility.cpp ****     strcpy(src, dest);
  96              		.loc 1 17 5 is_stmt 1
  97              		.loc 1 17 11 is_stmt 0
  98 006c 97000000 		call	_Z6strcpyPKcPc
GAS LISTING /tmp/ccJvgpd8.s 			page 3


  98      E7800000 
  99              	.LVL8:
  18:src/kernel/utility.cpp ****     return dst;
 100              		.loc 1 18 5 is_stmt 1
  19:src/kernel/utility.cpp **** }...
 101              		.loc 1 19 1 is_stmt 0
 102 0074 13850400 		mv	a0,s1
 103 0078 83308101 		ld	ra,24(sp)
 104              		.cfi_restore 1
 105 007c 03340101 		ld	s0,16(sp)
 106              		.cfi_restore 8
 107              		.cfi_def_cfa 2, 32
 108 0080 83348100 		ld	s1,8(sp)
 109              		.cfi_restore 9
 110              	.LVL9:
 111 0084 13010102 		addi	sp,sp,32
 112              		.cfi_def_cfa_offset 0
 113 0088 67800000 		jr	ra
 114              		.cfi_endproc
 115              	.LFE1:
 117              	.Letext0:
 118              		.file 2 "src/kernel/../../h/kernel/../../lib/hw.h"
 119              		.file 3 "src/kernel/../../h/kernel/utility.hpp"
GAS LISTING /tmp/ccJvgpd8.s 			page 4

