GAS LISTING /tmp/cc5UDCVQ.s 			page 1


   1              		.file	"_thread.cpp"
   2              		.option pic
   3              		.option norelax
   4              		.text
   5              	.Ltext0:
   6              		.align	2
   7              		.globl	_ZN7_threaddlEPv
   9              	_ZN7_threaddlEPv:
  10              	.LFB22:
  11              		.file 1 "src/user/_thread.cpp"
   1:src/user/_thread.cpp **** //
   2:src/user/_thread.cpp **** // Created by os on 6/3/22.
   3:src/user/_thread.cpp **** //
   4:src/user/_thread.cpp **** 
   5:src/user/_thread.cpp **** #include "../../h/user/_thread.hpp"
   6:src/user/_thread.cpp **** #include "../../h/kernel/tcb.hpp"
   7:src/user/_thread.cpp **** #include "../../h/user/syscall_c.h"
   8:src/user/_thread.cpp **** 
   9:src/user/_thread.cpp **** //operator delete will now call thread_free to safely release all allocated memory
  10:src/user/_thread.cpp **** void _thread::operator delete(void *addr){
  12              		.loc 1 10 42
  13              		.cfi_startproc
  14              	.LVL0:
  15 0000 130101FF 		addi	sp,sp,-16
  16              		.cfi_def_cfa_offset 16
  17 0004 23341100 		sd	ra,8(sp)
  18 0008 23308100 		sd	s0,0(sp)
  19              		.cfi_offset 1, -8
  20              		.cfi_offset 8, -16
  21 000c 13040101 		addi	s0,sp,16
  22              		.cfi_def_cfa 8, 0
  11:src/user/_thread.cpp ****     tcb_free(addr);
  23              		.loc 1 11 5
  24              		.loc 1 11 13 is_stmt 0
  25 0010 97000000 		call	_Z8tcb_freePv@plt
  25      E7800000 
  26              	.LVL1:
  12:src/user/_thread.cpp **** }
  27              		.loc 1 12 1
  28 0018 83308100 		ld	ra,8(sp)
  29              		.cfi_restore 1
  30 001c 03340100 		ld	s0,0(sp)
  31              		.cfi_restore 8
  32              		.cfi_def_cfa 2, 16
  33 0020 13010101 		addi	sp,sp,16
  34              		.cfi_def_cfa_offset 0
  35 0024 67800000 		jr	ra
  36              		.cfi_endproc
  37              	.LFE22:
  39              		.align	2
  40              		.globl	_Z21popSppSpieUserWrapperPFvPvES_
  42              	_Z21popSppSpieUserWrapperPFvPvES_:
  43              	.LFB23:
  13:src/user/_thread.cpp **** 
  14:src/user/_thread.cpp **** void popSppSpieUserWrapper(void (*body)(void*), void* args)
  15:src/user/_thread.cpp **** {
  44              		.loc 1 15 1 is_stmt 1
GAS LISTING /tmp/cc5UDCVQ.s 			page 2


  45              		.cfi_startproc
  46              	.LVL2:
  47 0028 130101FF 		addi	sp,sp,-16
  48              		.cfi_def_cfa_offset 16
  49 002c 23341100 		sd	ra,8(sp)
  50 0030 23308100 		sd	s0,0(sp)
  51              		.cfi_offset 1, -8
  52              		.cfi_offset 8, -16
  53 0034 13040101 		addi	s0,sp,16
  54              		.cfi_def_cfa 8, 0
  55 0038 93070500 		mv	a5,a0
  16:src/user/_thread.cpp ****     body(args);
  56              		.loc 1 16 5
  57              		.loc 1 16 9 is_stmt 0
  58 003c 13850500 		mv	a0,a1
  59              	.LVL3:
  60 0040 E7800700 		jalr	a5
  61              	.LVL4:
  17:src/user/_thread.cpp ****     thread_exit();
  62              		.loc 1 17 5 is_stmt 1
  63              		.loc 1 17 16 is_stmt 0
  64 0044 97000000 		call	_Z11thread_exitv@plt
  64      E7800000 
  65              	.LVL5:
  18:src/user/_thread.cpp **** }...
  66              		.loc 1 18 1
  67 004c 83308100 		ld	ra,8(sp)
  68              		.cfi_restore 1
  69 0050 03340100 		ld	s0,0(sp)
  70              		.cfi_restore 8
  71              		.cfi_def_cfa 2, 16
  72 0054 13010101 		addi	sp,sp,16
  73              		.cfi_def_cfa_offset 0
  74 0058 67800000 		jr	ra
  75              		.cfi_endproc
  76              	.LFE23:
  78              	.Letext0:
  79              		.file 2 "src/user/../../h/user/_thread.hpp"
  80              		.file 3 "src/user/../../h/kernel/../../lib/hw.h"
  81              		.file 4 "src/user/../../h/kernel/utility.hpp"
  82              		.file 5 "src/user/../../h/user/syscall_c.h"
GAS LISTING /tmp/cc5UDCVQ.s 			page 3

