GAS LISTING /tmp/ccr6CgxI.s 			page 1


   1              		.file	"syscall_c.cpp"
   2              		.option pic
   3              		.option norelax
   4              		.text
   5              	.Ltext0:
   6              		.align	2
   7              		.globl	_Z9mem_allocm
   9              	_Z9mem_allocm:
  10              	.LFB12:
  11              		.file 1 "src/user/syscall_c.cpp"
   1:src/user/syscall_c.cpp **** //
   2:src/user/syscall_c.cpp **** // Created by os on 4/29/22.
   3:src/user/syscall_c.cpp **** //
   4:src/user/syscall_c.cpp **** 
   5:src/user/syscall_c.cpp **** #include "../../h/syscall_c.h"
   6:src/user/syscall_c.cpp **** 
   7:src/user/syscall_c.cpp **** //syscall_c.c contains definitions of all implemented syscalls accessible to user
   8:src/user/syscall_c.cpp **** //syscall parameters (if has any) are put into registers a1-a7
   9:src/user/syscall_c.cpp **** //syscall ID is put into a0
  10:src/user/syscall_c.cpp **** //"ecall" is called to jump into supervisor mode trap handler
  11:src/user/syscall_c.cpp **** //return value for syscall is returned by a0 register
  12:src/user/syscall_c.cpp **** 
  13:src/user/syscall_c.cpp **** void *mem_alloc(size_t size){
  12              		.loc 1 13 29
  13              		.cfi_startproc
  14              	.LVL0:
  15 0000 130101FF 		addi	sp,sp,-16
  16              		.cfi_def_cfa_offset 16
  17 0004 23348100 		sd	s0,8(sp)
  18              		.cfi_offset 8, -8
  19 0008 13040101 		addi	s0,sp,16
  20              		.cfi_def_cfa 8, 0
  14:src/user/syscall_c.cpp ****     size_t sz = (size + MEM_BLOCK_SIZE -1) / MEM_BLOCK_SIZE;
  21              		.loc 1 14 5
  22              		.loc 1 14 40 is_stmt 0
  23 000c 1305F503 		addi	a0,a0,63
  24              	.LVL1:
  25              		.loc 1 14 12
  26 0010 13556500 		srli	a0,a0,6
  27              	.LVL2:
  15:src/user/syscall_c.cpp **** 
  16:src/user/syscall_c.cpp ****     asm("mv a1, %[sz]" : : [sz] "r" (sz));  //put number of blocks required in a1
  28              		.loc 1 16 5 is_stmt 1
  29              		.loc 1 16 42 is_stmt 0
  30              	#APP
  31              	# 16 "src/user/syscall_c.cpp" 1
  17              	    asm("li a0, 0x01");  //put number of syscall in a0
  32              		mv a1, a0
  33              	# 0 "" 2
  34              		.loc 1 17 5 is_stmt 1
  35              		.loc 1 17 23 is_stmt 0
  36              	# 17 "src/user/syscall_c.cpp" 1
  18              	    asm("ecall");
  37              		li a0, 0x01
  38              	# 0 "" 2
  39              		.loc 1 18 5 is_stmt 1
  40              		.loc 1 18 17 is_stmt 0
GAS LISTING /tmp/ccr6CgxI.s 			page 2


  41              	# 18 "src/user/syscall_c.cpp" 1
  19              	
  20:src/user/syscall_c.cpp ****     uint64 addr = 0;    //return address of block allocated
  42              		ecall
  43              	# 0 "" 2
  44              		.loc 1 20 5 is_stmt 1
  45              	.LVL3:
  21:src/user/syscall_c.cpp **** 
  22:src/user/syscall_c.cpp ****     asm("mv %[addr], a0" : [addr] "=r" (addr));
  46              		.loc 1 22 5
  47              		.loc 1 22 47 is_stmt 0
  48              	# 22 "src/user/syscall_c.cpp" 1
  23              	
  49              		mv a0, a0
  50              	# 0 "" 2
  51              	.LVL4:
  24:src/user/syscall_c.cpp ****     return (void*)addr;
  52              		.loc 1 24 5 is_stmt 1
  25:src/user/syscall_c.cpp **** }
  53              		.loc 1 25 1 is_stmt 0
  54              	#NO_APP
  55 0024 03348100 		ld	s0,8(sp)
  56              		.cfi_restore 8
  57              		.cfi_def_cfa 2, 16
  58 0028 13010101 		addi	sp,sp,16
  59              		.cfi_def_cfa_offset 0
  60 002c 67800000 		jr	ra
  61              		.cfi_endproc
  62              	.LFE12:
  64              		.align	2
  65              		.globl	_Z8mem_freePv
  67              	_Z8mem_freePv:
  68              	.LFB13:
  26:src/user/syscall_c.cpp **** 
  27:src/user/syscall_c.cpp **** int mem_free(void *ptr){
  69              		.loc 1 27 24 is_stmt 1
  70              		.cfi_startproc
  71              	.LVL5:
  72 0030 130101FF 		addi	sp,sp,-16
  73              		.cfi_def_cfa_offset 16
  74 0034 23348100 		sd	s0,8(sp)
  75              		.cfi_offset 8, -8
  76 0038 13040101 		addi	s0,sp,16
  77              		.cfi_def_cfa 8, 0
  28:src/user/syscall_c.cpp ****     uint64 iptr = (uint64)ptr;
  78              		.loc 1 28 5
  79              	.LVL6:
  29:src/user/syscall_c.cpp **** 
  30:src/user/syscall_c.cpp ****     asm("mv a1, %[iptr]" : : [iptr] "r" (iptr));  //put address in a1
  80              		.loc 1 30 5
  81              		.loc 1 30 48 is_stmt 0
  82              	#APP
  83              	# 30 "src/user/syscall_c.cpp" 1
  31              	    asm("li a0, 0x02");  //put number of syscall in a0
  84              		mv a1, a0
  85              	# 0 "" 2
  86              		.loc 1 31 5 is_stmt 1
GAS LISTING /tmp/ccr6CgxI.s 			page 3


  87              		.loc 1 31 23 is_stmt 0
  88              	# 31 "src/user/syscall_c.cpp" 1
  32              	    asm("ecall");
  89              		li a0, 0x02
  90              	# 0 "" 2
  91              		.loc 1 32 5 is_stmt 1
  92              		.loc 1 32 17 is_stmt 0
  93              	# 32 "src/user/syscall_c.cpp" 1
  33              	
  34:src/user/syscall_c.cpp ****     uint64 status; //return status of mem_free
  94              		ecall
  95              	# 0 "" 2
  96              		.loc 1 34 5 is_stmt 1
  35:src/user/syscall_c.cpp **** 
  36:src/user/syscall_c.cpp ****     asm("mv %[status], a0" : [status] "=r" (status));
  97              		.loc 1 36 5
  98              		.loc 1 36 53 is_stmt 0
  99              	# 36 "src/user/syscall_c.cpp" 1
  37              	    return status;
 100              		mv a0, a0
 101              	# 0 "" 2
 102              	.LVL7:
 103              		.loc 1 37 5 is_stmt 1
  38:src/user/syscall_c.cpp **** }
 104              		.loc 1 38 1 is_stmt 0
 105              	#NO_APP
 106 004c 1B050500 		sext.w	a0,a0
 107              	.LVL8:
 108 0050 03348100 		ld	s0,8(sp)
 109              		.cfi_restore 8
 110              		.cfi_def_cfa 2, 16
 111 0054 13010101 		addi	sp,sp,16
 112              		.cfi_def_cfa_offset 0
 113 0058 67800000 		jr	ra
 114              		.cfi_endproc
 115              	.LFE13:
 117              		.align	2
 118              		.globl	_Z13thread_createPP7_threadPFvPvES2_
 120              	_Z13thread_createPP7_threadPFvPvES2_:
 121              	.LFB14:
  39:src/user/syscall_c.cpp **** 
  40:src/user/syscall_c.cpp **** int thread_create(thread_t* handle, void(*start_routine)(void*), void *arg){
 122              		.loc 1 40 76 is_stmt 1
 123              		.cfi_startproc
 124              	.LVL9:
 125 005c 130101FD 		addi	sp,sp,-48
 126              		.cfi_def_cfa_offset 48
 127 0060 23341102 		sd	ra,40(sp)
 128 0064 23308102 		sd	s0,32(sp)
 129 0068 233C9100 		sd	s1,24(sp)
 130 006c 23382101 		sd	s2,16(sp)
 131 0070 23343101 		sd	s3,8(sp)
 132              		.cfi_offset 1, -8
 133              		.cfi_offset 8, -16
 134              		.cfi_offset 9, -24
 135              		.cfi_offset 18, -32
 136              		.cfi_offset 19, -40
GAS LISTING /tmp/ccr6CgxI.s 			page 4


 137 0074 13040103 		addi	s0,sp,48
 138              		.cfi_def_cfa 8, 0
 139 0078 13090500 		mv	s2,a0
 140 007c 93840500 		mv	s1,a1
 141 0080 93090600 		mv	s3,a2
  41:src/user/syscall_c.cpp ****     uint64 ihandle = (uint64)handle;
 142              		.loc 1 41 5
 143              	.LVL10:
  42:src/user/syscall_c.cpp ****     uint64 iroutine = (uint64)start_routine;
 144              		.loc 1 42 5
  43:src/user/syscall_c.cpp ****     uint64 iarg = (uint64)arg;
 145              		.loc 1 43 5
  44:src/user/syscall_c.cpp ****     uint64 istack = 0;
 146              		.loc 1 44 5
  45:src/user/syscall_c.cpp **** 
  46:src/user/syscall_c.cpp ****     if(start_routine) {
 147              		.loc 1 46 5
 148 0084 638E0504 		beqz	a1,.L8
  47:src/user/syscall_c.cpp ****         istack = (uint64) mem_alloc(DEFAULT_STACK_SIZE);
 149              		.loc 1 47 9
 150              		.loc 1 47 36 is_stmt 0
 151 0088 37150000 		li	a0,4096
 152              	.LVL11:
 153 008c 97000000 		call	_Z9mem_allocm
 153      E7800000 
 154              	.LVL12:
  48:src/user/syscall_c.cpp ****         if(istack == 0) {
 155              		.loc 1 48 9 is_stmt 1
 156 0094 63000504 		beqz	a0,.L10
 157              	.LVL13:
 158              	.L6:
  49:src/user/syscall_c.cpp ****             *handle = nullptr;
  50:src/user/syscall_c.cpp ****             return -1;
  51:src/user/syscall_c.cpp ****         }
  52:src/user/syscall_c.cpp ****     }
  53:src/user/syscall_c.cpp **** 
  54:src/user/syscall_c.cpp ****     asm("mv a7, %[istack]" : : [istack] "r" (istack));
 159              		.loc 1 54 5
 160              		.loc 1 54 54 is_stmt 0
 161              	#APP
 162              	# 54 "src/user/syscall_c.cpp" 1
  55              	    asm("mv a3, %[iarg]" : : [iarg] "r" (iarg));
 163              		mv a7, a0
 164              	# 0 "" 2
 165              		.loc 1 55 5 is_stmt 1
 166              		.loc 1 55 48 is_stmt 0
 167              	# 55 "src/user/syscall_c.cpp" 1
  56              	    asm("mv a2, %[iroutine]" : : [iroutine] "r" (iroutine));
 168              		mv a3, s3
 169              	# 0 "" 2
 170              		.loc 1 56 5 is_stmt 1
 171              		.loc 1 56 60 is_stmt 0
 172              	# 56 "src/user/syscall_c.cpp" 1
  57              	    asm("mv a1, %[ihandle]" : : [ihandle] "r" (ihandle));
 173              		mv a2, s1
 174              	# 0 "" 2
 175              		.loc 1 57 5 is_stmt 1
GAS LISTING /tmp/ccr6CgxI.s 			page 5


 176              		.loc 1 57 57 is_stmt 0
 177              	# 57 "src/user/syscall_c.cpp" 1
  58              	    asm("li a0, 0x11");
 178              		mv a1, s2
 179              	# 0 "" 2
 180              		.loc 1 58 5 is_stmt 1
 181              		.loc 1 58 23 is_stmt 0
 182              	# 58 "src/user/syscall_c.cpp" 1
  59              	
  60:src/user/syscall_c.cpp ****     asm("ecall");
 183              		li a0, 0x11
 184              	# 0 "" 2
 185              		.loc 1 60 5 is_stmt 1
 186              		.loc 1 60 17 is_stmt 0
 187              	# 60 "src/user/syscall_c.cpp" 1
  61              	
  62:src/user/syscall_c.cpp ****     uint64 status;
 188              		ecall
 189              	# 0 "" 2
 190              		.loc 1 62 5 is_stmt 1
  63:src/user/syscall_c.cpp **** 
  64:src/user/syscall_c.cpp ****     asm("mv %[status], a0" : [status] "=r" (status));
 191              		.loc 1 64 5
 192              		.loc 1 64 53 is_stmt 0
 193              	# 64 "src/user/syscall_c.cpp" 1
  65              	
 194              		mv a0, a0
 195              	# 0 "" 2
 196              	.LVL14:
  66:src/user/syscall_c.cpp ****     return status;
 197              		.loc 1 66 5 is_stmt 1
 198              		.loc 1 66 12 is_stmt 0
 199              	#NO_APP
 200 00b4 1B050500 		sext.w	a0,a0
 201              	.LVL15:
 202              	.L7:
  67:src/user/syscall_c.cpp **** }
 203              		.loc 1 67 1
 204 00b8 83308102 		ld	ra,40(sp)
 205              		.cfi_remember_state
 206              		.cfi_restore 1
 207 00bc 03340102 		ld	s0,32(sp)
 208              		.cfi_restore 8
 209              		.cfi_def_cfa 2, 48
 210 00c0 83348101 		ld	s1,24(sp)
 211              		.cfi_restore 9
 212              	.LVL16:
 213 00c4 03390101 		ld	s2,16(sp)
 214              		.cfi_restore 18
 215              	.LVL17:
 216 00c8 83398100 		ld	s3,8(sp)
 217              		.cfi_restore 19
 218              	.LVL18:
 219 00cc 13010103 		addi	sp,sp,48
 220              		.cfi_def_cfa_offset 0
 221 00d0 67800000 		jr	ra
 222              	.LVL19:
GAS LISTING /tmp/ccr6CgxI.s 			page 6


 223              	.L10:
 224              		.cfi_restore_state
  49:src/user/syscall_c.cpp ****             return -1;
 225              		.loc 1 49 13 is_stmt 1
  49:src/user/syscall_c.cpp ****             return -1;
 226              		.loc 1 49 21 is_stmt 0
 227 00d4 23300900 		sd	zero,0(s2)
  50:src/user/syscall_c.cpp ****         }
 228              		.loc 1 50 13 is_stmt 1
  50:src/user/syscall_c.cpp ****         }
 229              		.loc 1 50 21 is_stmt 0
 230 00d8 1305F0FF 		li	a0,-1
 231              	.LVL20:
 232 00dc 6FF0DFFD 		j	.L7
 233              	.LVL21:
 234              	.L8:
  44:src/user/syscall_c.cpp **** 
 235              		.loc 1 44 12
 236 00e0 13050000 		li	a0,0
 237              	.LVL22:
 238 00e4 6FF05FFB 		j	.L6
 239              		.cfi_endproc
 240              	.LFE14:
 242              		.align	2
 243              		.globl	_Z11thread_exitv
 245              	_Z11thread_exitv:
 246              	.LFB15:
  68:src/user/syscall_c.cpp **** 
  69:src/user/syscall_c.cpp **** int thread_exit(){
 247              		.loc 1 69 18 is_stmt 1
 248              		.cfi_startproc
 249 00e8 130101FF 		addi	sp,sp,-16
 250              		.cfi_def_cfa_offset 16
 251 00ec 23348100 		sd	s0,8(sp)
 252              		.cfi_offset 8, -8
 253 00f0 13040101 		addi	s0,sp,16
 254              		.cfi_def_cfa 8, 0
  70:src/user/syscall_c.cpp ****     asm("li a0, 0x12");
 255              		.loc 1 70 5
 256              		.loc 1 70 23 is_stmt 0
 257              	#APP
 258              	# 70 "src/user/syscall_c.cpp" 1
  71              	
  72:src/user/syscall_c.cpp ****     asm("ecall");
 259              		li a0, 0x12
 260              	# 0 "" 2
 261              		.loc 1 72 5 is_stmt 1
 262              		.loc 1 72 17 is_stmt 0
 263              	# 72 "src/user/syscall_c.cpp" 1
  73              	
  74:src/user/syscall_c.cpp ****     uint64 status;
 264              		ecall
 265              	# 0 "" 2
 266              		.loc 1 74 5 is_stmt 1
  75:src/user/syscall_c.cpp **** 
  76:src/user/syscall_c.cpp ****     asm("mv %[status], a0" : [status] "=r" (status));
 267              		.loc 1 76 5
GAS LISTING /tmp/ccr6CgxI.s 			page 7


 268              		.loc 1 76 53 is_stmt 0
 269              	# 76 "src/user/syscall_c.cpp" 1
  77              	
 270              		mv a0, a0
 271              	# 0 "" 2
 272              	.LVL23:
  78:src/user/syscall_c.cpp ****     return status;
 273              		.loc 1 78 5 is_stmt 1
  79:src/user/syscall_c.cpp **** }
 274              		.loc 1 79 1 is_stmt 0
 275              	#NO_APP
 276 0100 1B050500 		sext.w	a0,a0
 277              	.LVL24:
 278 0104 03348100 		ld	s0,8(sp)
 279              		.cfi_restore 8
 280              		.cfi_def_cfa 2, 16
 281 0108 13010101 		addi	sp,sp,16
 282              		.cfi_def_cfa_offset 0
 283 010c 67800000 		jr	ra
 284              		.cfi_endproc
 285              	.LFE15:
 287              		.align	2
 288              		.globl	_Z15thread_dispatchv
 290              	_Z15thread_dispatchv:
 291              	.LFB16:
  80:src/user/syscall_c.cpp **** 
  81:src/user/syscall_c.cpp **** void thread_dispatch(){
 292              		.loc 1 81 23 is_stmt 1
 293              		.cfi_startproc
 294 0110 130101FF 		addi	sp,sp,-16
 295              		.cfi_def_cfa_offset 16
 296 0114 23348100 		sd	s0,8(sp)
 297              		.cfi_offset 8, -8
 298 0118 13040101 		addi	s0,sp,16
 299              		.cfi_def_cfa 8, 0
  82:src/user/syscall_c.cpp ****     asm("li a0, 0x13");
 300              		.loc 1 82 5
 301              		.loc 1 82 23 is_stmt 0
 302              	#APP
 303              	# 82 "src/user/syscall_c.cpp" 1
  83              	
  84:src/user/syscall_c.cpp ****     asm("ecall");
 304              		li a0, 0x13
 305              	# 0 "" 2
 306              		.loc 1 84 5 is_stmt 1
 307              		.loc 1 84 17 is_stmt 0
 308              	# 84 "src/user/syscall_c.cpp" 1
  85              	}
 309              		ecall
 310              	# 0 "" 2
 311              		.loc 1 85 1
 312              	#NO_APP
 313 0124 03348100 		ld	s0,8(sp)
 314              		.cfi_restore 8
 315              		.cfi_def_cfa 2, 16
 316 0128 13010101 		addi	sp,sp,16
 317              		.cfi_def_cfa_offset 0
GAS LISTING /tmp/ccr6CgxI.s 			page 8


 318 012c 67800000 		jr	ra
 319              		.cfi_endproc
 320              	.LFE16:
 322              		.align	2
 323              		.globl	_Z18thread_attach_bodyPP7_threadPFvPvES2_
 325              	_Z18thread_attach_bodyPP7_threadPFvPvES2_:
 326              	.LFB17:
  86:src/user/syscall_c.cpp **** 
  87:src/user/syscall_c.cpp **** int thread_attach_body(thread_t *handle, void(*start_routine)(void*), void *arg){
 327              		.loc 1 87 81 is_stmt 1
 328              		.cfi_startproc
 329              	.LVL25:
 330 0130 130101FD 		addi	sp,sp,-48
 331              		.cfi_def_cfa_offset 48
 332 0134 23341102 		sd	ra,40(sp)
 333 0138 23308102 		sd	s0,32(sp)
 334 013c 233C9100 		sd	s1,24(sp)
 335 0140 23382101 		sd	s2,16(sp)
 336 0144 23343101 		sd	s3,8(sp)
 337              		.cfi_offset 1, -8
 338              		.cfi_offset 8, -16
 339              		.cfi_offset 9, -24
 340              		.cfi_offset 18, -32
 341              		.cfi_offset 19, -40
 342 0148 13040103 		addi	s0,sp,48
 343              		.cfi_def_cfa 8, 0
 344 014c 93040500 		mv	s1,a0
 345 0150 13890500 		mv	s2,a1
 346 0154 93090600 		mv	s3,a2
  88:src/user/syscall_c.cpp ****     uint64 ihandle = (uint64)handle;
 347              		.loc 1 88 5
 348              	.LVL26:
  89:src/user/syscall_c.cpp ****     uint64 iroutine = (uint64)start_routine;
 349              		.loc 1 89 5
  90:src/user/syscall_c.cpp ****     uint64 iarg = (uint64)arg;
 350              		.loc 1 90 5
  91:src/user/syscall_c.cpp ****     uint64 istack = 0;
 351              		.loc 1 91 5
  92:src/user/syscall_c.cpp **** 
  93:src/user/syscall_c.cpp ****     if(handle && start_routine) {
 352              		.loc 1 93 5
 353 0158 630A0504 		beqz	a0,.L18
 354              		.loc 1 93 15 is_stmt 0 discriminator 1
 355 015c 638C0504 		beqz	a1,.L19
  94:src/user/syscall_c.cpp ****         istack = (uint64) mem_alloc(DEFAULT_STACK_SIZE);
 356              		.loc 1 94 9 is_stmt 1
 357              		.loc 1 94 36 is_stmt 0
 358 0160 37150000 		li	a0,4096
 359              	.LVL27:
 360 0164 97000000 		call	_Z9mem_allocm
 360      E7800000 
 361              	.LVL28:
  95:src/user/syscall_c.cpp ****         if(istack == 0) {
 362              		.loc 1 95 9 is_stmt 1
 363 016c 63080504 		beqz	a0,.L22
 364              	.LVL29:
 365              	.L16:
GAS LISTING /tmp/ccr6CgxI.s 			page 9


  96:src/user/syscall_c.cpp ****             return -1;
  97:src/user/syscall_c.cpp ****         }
  98:src/user/syscall_c.cpp ****     }
  99:src/user/syscall_c.cpp **** 
 100:src/user/syscall_c.cpp ****     asm("mv a7, %[istack]" : : [istack] "r" (istack));
 366              		.loc 1 100 5
 367              		.loc 1 100 54 is_stmt 0
 368              	#APP
 369              	# 100 "src/user/syscall_c.cpp" 1
 101              	    asm("mv a3, %[iarg]" : : [iarg] "r" (iarg));
 370              		mv a7, a0
 371              	# 0 "" 2
 372              		.loc 1 101 5 is_stmt 1
 373              		.loc 1 101 48 is_stmt 0
 374              	# 101 "src/user/syscall_c.cpp" 1
 102              	    asm("mv a2, %[iroutine]" : : [iroutine] "r" (iroutine));
 375              		mv a3, s3
 376              	# 0 "" 2
 377              		.loc 1 102 5 is_stmt 1
 378              		.loc 1 102 60 is_stmt 0
 379              	# 102 "src/user/syscall_c.cpp" 1
 103              	    asm("mv a1, %[ihandle]" : : [ihandle] "r" (ihandle));
 380              		mv a2, s2
 381              	# 0 "" 2
 382              		.loc 1 103 5 is_stmt 1
 383              		.loc 1 103 57 is_stmt 0
 384              	# 103 "src/user/syscall_c.cpp" 1
 104              	    asm("li a0, 0x14");
 385              		mv a1, s1
 386              	# 0 "" 2
 387              		.loc 1 104 5 is_stmt 1
 388              		.loc 1 104 23 is_stmt 0
 389              	# 104 "src/user/syscall_c.cpp" 1
 105              	
 106:src/user/syscall_c.cpp ****     asm("ecall");
 390              		li a0, 0x14
 391              	# 0 "" 2
 392              		.loc 1 106 5 is_stmt 1
 393              		.loc 1 106 17 is_stmt 0
 394              	# 106 "src/user/syscall_c.cpp" 1
 107              	
 108:src/user/syscall_c.cpp ****     uint64 status;
 395              		ecall
 396              	# 0 "" 2
 397              		.loc 1 108 5 is_stmt 1
 109:src/user/syscall_c.cpp **** 
 110:src/user/syscall_c.cpp ****     asm("mv %[status], a0" : [status] "=r" (status));
 398              		.loc 1 110 5
 399              		.loc 1 110 53 is_stmt 0
 400              	# 110 "src/user/syscall_c.cpp" 1
 111              	
 401              		mv a0, a0
 402              	# 0 "" 2
 403              	.LVL30:
 112:src/user/syscall_c.cpp ****     return status;
 404              		.loc 1 112 5 is_stmt 1
 405              		.loc 1 112 12 is_stmt 0
GAS LISTING /tmp/ccr6CgxI.s 			page 10


 406              	#NO_APP
 407 018c 1B050500 		sext.w	a0,a0
 408              	.LVL31:
 409              	.L17:
 113:src/user/syscall_c.cpp **** }
 410              		.loc 1 113 1
 411 0190 83308102 		ld	ra,40(sp)
 412              		.cfi_remember_state
 413              		.cfi_restore 1
 414 0194 03340102 		ld	s0,32(sp)
 415              		.cfi_restore 8
 416              		.cfi_def_cfa 2, 48
 417 0198 83348101 		ld	s1,24(sp)
 418              		.cfi_restore 9
 419              	.LVL32:
 420 019c 03390101 		ld	s2,16(sp)
 421              		.cfi_restore 18
 422              	.LVL33:
 423 01a0 83398100 		ld	s3,8(sp)
 424              		.cfi_restore 19
 425              	.LVL34:
 426 01a4 13010103 		addi	sp,sp,48
 427              		.cfi_def_cfa_offset 0
 428 01a8 67800000 		jr	ra
 429              	.LVL35:
 430              	.L18:
 431              		.cfi_restore_state
  91:src/user/syscall_c.cpp **** 
 432              		.loc 1 91 12
 433 01ac 13050000 		li	a0,0
 434 01b0 6FF01FFC 		j	.L16
 435              	.L19:
 436 01b4 13050000 		li	a0,0
 437 01b8 6FF09FFB 		j	.L16
 438              	.LVL36:
 439              	.L22:
  96:src/user/syscall_c.cpp ****         }
 440              		.loc 1 96 21
 441 01bc 1305F0FF 		li	a0,-1
 442              	.LVL37:
 443 01c0 6FF01FFD 		j	.L17
 444              		.cfi_endproc
 445              	.LFE17:
 447              		.align	2
 448              		.globl	_Z12thread_startP7_thread
 450              	_Z12thread_startP7_thread:
 451              	.LFB18:
 114:src/user/syscall_c.cpp **** 
 115:src/user/syscall_c.cpp **** int thread_start(thread_t handle){
 452              		.loc 1 115 34 is_stmt 1
 453              		.cfi_startproc
 454              	.LVL38:
 455 01c4 130101FF 		addi	sp,sp,-16
 456              		.cfi_def_cfa_offset 16
 457 01c8 23348100 		sd	s0,8(sp)
 458              		.cfi_offset 8, -8
 459 01cc 13040101 		addi	s0,sp,16
GAS LISTING /tmp/ccr6CgxI.s 			page 11


 460              		.cfi_def_cfa 8, 0
 116:src/user/syscall_c.cpp ****     uint64 ihandle = (uint64)handle;
 461              		.loc 1 116 5
 462              	.LVL39:
 117:src/user/syscall_c.cpp ****     if(handle == nullptr)
 463              		.loc 1 117 5
 464 01d0 63020502 		beqz	a0,.L25
 118:src/user/syscall_c.cpp ****         return -1;
 119:src/user/syscall_c.cpp **** 
 120:src/user/syscall_c.cpp ****     asm("mv a1, %[ihandle]" : : [ihandle] "r" (ihandle));
 465              		.loc 1 120 5
 466              		.loc 1 120 57 is_stmt 0
 467              	#APP
 468              	# 120 "src/user/syscall_c.cpp" 1
 121              	    asm("li a0, 0x15");
 469              		mv a1, a0
 470              	# 0 "" 2
 471              		.loc 1 121 5 is_stmt 1
 472              		.loc 1 121 23 is_stmt 0
 473              	# 121 "src/user/syscall_c.cpp" 1
 122              	
 123:src/user/syscall_c.cpp ****     asm("ecall");
 474              		li a0, 0x15
 475              	# 0 "" 2
 476              		.loc 1 123 5 is_stmt 1
 477              		.loc 1 123 17 is_stmt 0
 478              	# 123 "src/user/syscall_c.cpp" 1
 124              	
 125:src/user/syscall_c.cpp ****     uint64 status;
 479              		ecall
 480              	# 0 "" 2
 481              		.loc 1 125 5 is_stmt 1
 126:src/user/syscall_c.cpp **** 
 127:src/user/syscall_c.cpp ****     asm("mv %[status], a0" : [status] "=r" (status));
 482              		.loc 1 127 5
 483              		.loc 1 127 53 is_stmt 0
 484              	# 127 "src/user/syscall_c.cpp" 1
 128              	
 485              		mv a0, a0
 486              	# 0 "" 2
 487              	.LVL40:
 129:src/user/syscall_c.cpp ****     return status;
 488              		.loc 1 129 5 is_stmt 1
 489              		.loc 1 129 12 is_stmt 0
 490              	#NO_APP
 491 01e4 1B050500 		sext.w	a0,a0
 492              	.LVL41:
 493              	.L24:
 130:src/user/syscall_c.cpp **** }
 494              		.loc 1 130 1
 495 01e8 03348100 		ld	s0,8(sp)
 496              		.cfi_remember_state
 497              		.cfi_restore 8
 498              		.cfi_def_cfa 2, 16
 499 01ec 13010101 		addi	sp,sp,16
 500              		.cfi_def_cfa_offset 0
 501 01f0 67800000 		jr	ra
GAS LISTING /tmp/ccr6CgxI.s 			page 12


 502              	.LVL42:
 503              	.L25:
 504              		.cfi_restore_state
 118:src/user/syscall_c.cpp **** 
 505              		.loc 1 118 17
 506 01f4 1305F0FF 		li	a0,-1
 507              	.LVL43:
 508 01f8 6FF01FFF 		j	.L24
 509              		.cfi_endproc
 510              	.LFE18:
 512              		.align	2
 513              		.globl	_Z8sem_openPP10_semaphorej
 515              	_Z8sem_openPP10_semaphorej:
 516              	.LFB19:
 131:src/user/syscall_c.cpp **** 
 132:src/user/syscall_c.cpp **** int sem_open(sem_t *handle, unsigned init){
 517              		.loc 1 132 43 is_stmt 1
 518              		.cfi_startproc
 519              	.LVL44:
 520 01fc 130101FF 		addi	sp,sp,-16
 521              		.cfi_def_cfa_offset 16
 522 0200 23348100 		sd	s0,8(sp)
 523              		.cfi_offset 8, -8
 524 0204 13040101 		addi	s0,sp,16
 525              		.cfi_def_cfa 8, 0
 133:src/user/syscall_c.cpp **** 
 134:src/user/syscall_c.cpp ****     uint64 ihandle = (uint64)handle;
 526              		.loc 1 134 5
 527              	.LVL45:
 135:src/user/syscall_c.cpp ****     uint64 iinit = (uint64)init;
 528              		.loc 1 135 5
 529              		.loc 1 135 12 is_stmt 0
 530 0208 93950502 		slli	a1,a1,32
 531              	.LVL46:
 532 020c 93D50502 		srli	a1,a1,32
 533              	.LVL47:
 136:src/user/syscall_c.cpp **** 
 137:src/user/syscall_c.cpp ****     asm("mv a2, %[iinit]" : : [iinit] "r" (iinit));
 534              		.loc 1 137 5 is_stmt 1
 535              		.loc 1 137 51 is_stmt 0
 536              	#APP
 537              	# 137 "src/user/syscall_c.cpp" 1
 138              	    asm("mv a1, %[ihandle]" : : [ihandle] "r" (ihandle));
 538              		mv a2, a1
 539              	# 0 "" 2
 540              		.loc 1 138 5 is_stmt 1
 541              		.loc 1 138 57 is_stmt 0
 542              	# 138 "src/user/syscall_c.cpp" 1
 139              	    asm("li a0, 0x21");
 543              		mv a1, a0
 544              	# 0 "" 2
 545              		.loc 1 139 5 is_stmt 1
 546              		.loc 1 139 23 is_stmt 0
 547              	# 139 "src/user/syscall_c.cpp" 1
 140              	
 141:src/user/syscall_c.cpp **** 
 142:src/user/syscall_c.cpp ****     asm("ecall");
GAS LISTING /tmp/ccr6CgxI.s 			page 13


 548              		li a0, 0x21
 549              	# 0 "" 2
 550              		.loc 1 142 5 is_stmt 1
 551              		.loc 1 142 17 is_stmt 0
 552              	# 142 "src/user/syscall_c.cpp" 1
 143              	
 144:src/user/syscall_c.cpp ****     uint64 status;
 553              		ecall
 554              	# 0 "" 2
 555              		.loc 1 144 5 is_stmt 1
 145:src/user/syscall_c.cpp **** 
 146:src/user/syscall_c.cpp ****     asm("mv %[status], a0" : [status] "=r" (status));
 556              		.loc 1 146 5
 557              		.loc 1 146 53 is_stmt 0
 558              	# 146 "src/user/syscall_c.cpp" 1
 147              	
 559              		mv a0, a0
 560              	# 0 "" 2
 561              	.LVL48:
 148:src/user/syscall_c.cpp ****     return status;
 562              		.loc 1 148 5 is_stmt 1
 149:src/user/syscall_c.cpp **** 
 150:src/user/syscall_c.cpp **** }
 563              		.loc 1 150 1 is_stmt 0
 564              	#NO_APP
 565 0224 1B050500 		sext.w	a0,a0
 566              	.LVL49:
 567 0228 03348100 		ld	s0,8(sp)
 568              		.cfi_restore 8
 569              		.cfi_def_cfa 2, 16
 570 022c 13010101 		addi	sp,sp,16
 571              		.cfi_def_cfa_offset 0
 572 0230 67800000 		jr	ra
 573              		.cfi_endproc
 574              	.LFE19:
 576              		.align	2
 577              		.globl	_Z9sem_closeP10_semaphore
 579              	_Z9sem_closeP10_semaphore:
 580              	.LFB20:
 151:src/user/syscall_c.cpp **** 
 152:src/user/syscall_c.cpp **** int sem_close(sem_t handle){
 581              		.loc 1 152 28 is_stmt 1
 582              		.cfi_startproc
 583              	.LVL50:
 584 0234 130101FF 		addi	sp,sp,-16
 585              		.cfi_def_cfa_offset 16
 586 0238 23348100 		sd	s0,8(sp)
 587              		.cfi_offset 8, -8
 588 023c 13040101 		addi	s0,sp,16
 589              		.cfi_def_cfa 8, 0
 153:src/user/syscall_c.cpp **** 
 154:src/user/syscall_c.cpp ****     uint64 ihandle = (uint64)handle;
 590              		.loc 1 154 5
 591              	.LVL51:
 155:src/user/syscall_c.cpp **** 
 156:src/user/syscall_c.cpp ****     asm("mv a1, %[ihandle]" : : [ihandle] "r" (ihandle));
 592              		.loc 1 156 5
GAS LISTING /tmp/ccr6CgxI.s 			page 14


 593              		.loc 1 156 57 is_stmt 0
 594              	#APP
 595              	# 156 "src/user/syscall_c.cpp" 1
 157              	    asm("li a0, 0x22");
 596              		mv a1, a0
 597              	# 0 "" 2
 598              		.loc 1 157 5 is_stmt 1
 599              		.loc 1 157 23 is_stmt 0
 600              	# 157 "src/user/syscall_c.cpp" 1
 158              	
 159:src/user/syscall_c.cpp **** 
 160:src/user/syscall_c.cpp ****     asm("ecall");
 601              		li a0, 0x22
 602              	# 0 "" 2
 603              		.loc 1 160 5 is_stmt 1
 604              		.loc 1 160 17 is_stmt 0
 605              	# 160 "src/user/syscall_c.cpp" 1
 161              	
 162:src/user/syscall_c.cpp ****     uint64 status;
 606              		ecall
 607              	# 0 "" 2
 608              		.loc 1 162 5 is_stmt 1
 163:src/user/syscall_c.cpp **** 
 164:src/user/syscall_c.cpp ****     asm("mv %[status], a0" : [status] "=r" (status));
 609              		.loc 1 164 5
 610              		.loc 1 164 53 is_stmt 0
 611              	# 164 "src/user/syscall_c.cpp" 1
 165              	
 612              		mv a0, a0
 613              	# 0 "" 2
 614              	.LVL52:
 166:src/user/syscall_c.cpp ****     return status;
 615              		.loc 1 166 5 is_stmt 1
 167:src/user/syscall_c.cpp **** }
 616              		.loc 1 167 1 is_stmt 0
 617              	#NO_APP
 618 0250 1B050500 		sext.w	a0,a0
 619              	.LVL53:
 620 0254 03348100 		ld	s0,8(sp)
 621              		.cfi_restore 8
 622              		.cfi_def_cfa 2, 16
 623 0258 13010101 		addi	sp,sp,16
 624              		.cfi_def_cfa_offset 0
 625 025c 67800000 		jr	ra
 626              		.cfi_endproc
 627              	.LFE20:
 629              		.align	2
 630              		.globl	_Z8sem_waitP10_semaphore
 632              	_Z8sem_waitP10_semaphore:
 633              	.LFB21:
 168:src/user/syscall_c.cpp **** 
 169:src/user/syscall_c.cpp **** int sem_wait(sem_t handle){
 634              		.loc 1 169 27 is_stmt 1
 635              		.cfi_startproc
 636              	.LVL54:
 637 0260 130101FF 		addi	sp,sp,-16
 638              		.cfi_def_cfa_offset 16
GAS LISTING /tmp/ccr6CgxI.s 			page 15


 639 0264 23348100 		sd	s0,8(sp)
 640              		.cfi_offset 8, -8
 641 0268 13040101 		addi	s0,sp,16
 642              		.cfi_def_cfa 8, 0
 170:src/user/syscall_c.cpp ****     uint64 ihandle = (uint64)handle;
 643              		.loc 1 170 5
 644              	.LVL55:
 171:src/user/syscall_c.cpp **** 
 172:src/user/syscall_c.cpp ****     asm("mv a1, %[ihandle]" : : [ihandle] "r" (ihandle));
 645              		.loc 1 172 5
 646              		.loc 1 172 57 is_stmt 0
 647              	#APP
 648              	# 172 "src/user/syscall_c.cpp" 1
 173              	    asm("li a0, 0x23");
 649              		mv a1, a0
 650              	# 0 "" 2
 651              		.loc 1 173 5 is_stmt 1
 652              		.loc 1 173 23 is_stmt 0
 653              	# 173 "src/user/syscall_c.cpp" 1
 174              	
 175:src/user/syscall_c.cpp **** 
 176:src/user/syscall_c.cpp ****     asm("ecall");
 654              		li a0, 0x23
 655              	# 0 "" 2
 656              		.loc 1 176 5 is_stmt 1
 657              		.loc 1 176 17 is_stmt 0
 658              	# 176 "src/user/syscall_c.cpp" 1
 177              	
 178:src/user/syscall_c.cpp ****     uint64 status;
 659              		ecall
 660              	# 0 "" 2
 661              		.loc 1 178 5 is_stmt 1
 179:src/user/syscall_c.cpp **** 
 180:src/user/syscall_c.cpp ****     asm("mv %[status], a0" : [status] "=r" (status));
 662              		.loc 1 180 5
 663              		.loc 1 180 53 is_stmt 0
 664              	# 180 "src/user/syscall_c.cpp" 1
 181              	
 665              		mv a0, a0
 666              	# 0 "" 2
 667              	.LVL56:
 182:src/user/syscall_c.cpp ****     return status;
 668              		.loc 1 182 5 is_stmt 1
 183:src/user/syscall_c.cpp **** }
 669              		.loc 1 183 1 is_stmt 0
 670              	#NO_APP
 671 027c 1B050500 		sext.w	a0,a0
 672              	.LVL57:
 673 0280 03348100 		ld	s0,8(sp)
 674              		.cfi_restore 8
 675              		.cfi_def_cfa 2, 16
 676 0284 13010101 		addi	sp,sp,16
 677              		.cfi_def_cfa_offset 0
 678 0288 67800000 		jr	ra
 679              		.cfi_endproc
 680              	.LFE21:
 682              		.align	2
GAS LISTING /tmp/ccr6CgxI.s 			page 16


 683              		.globl	_Z10sem_signalP10_semaphore
 685              	_Z10sem_signalP10_semaphore:
 686              	.LFB22:
 184:src/user/syscall_c.cpp **** 
 185:src/user/syscall_c.cpp **** int sem_signal(sem_t handle){
 687              		.loc 1 185 29 is_stmt 1
 688              		.cfi_startproc
 689              	.LVL58:
 690 028c 130101FF 		addi	sp,sp,-16
 691              		.cfi_def_cfa_offset 16
 692 0290 23348100 		sd	s0,8(sp)
 693              		.cfi_offset 8, -8
 694 0294 13040101 		addi	s0,sp,16
 695              		.cfi_def_cfa 8, 0
 186:src/user/syscall_c.cpp ****     uint64 ihandle = (uint64)handle;
 696              		.loc 1 186 5
 697              	.LVL59:
 187:src/user/syscall_c.cpp **** 
 188:src/user/syscall_c.cpp ****     asm("mv a1, %[ihandle]" : : [ihandle] "r" (ihandle));
 698              		.loc 1 188 5
 699              		.loc 1 188 57 is_stmt 0
 700              	#APP
 701              	# 188 "src/user/syscall_c.cpp" 1
 189              	    asm("li a0, 0x24");
 702              		mv a1, a0
 703              	# 0 "" 2
 704              		.loc 1 189 5 is_stmt 1
 705              		.loc 1 189 23 is_stmt 0
 706              	# 189 "src/user/syscall_c.cpp" 1
 190              	
 191:src/user/syscall_c.cpp **** 
 192:src/user/syscall_c.cpp ****     asm("ecall");
 707              		li a0, 0x24
 708              	# 0 "" 2
 709              		.loc 1 192 5 is_stmt 1
 710              		.loc 1 192 17 is_stmt 0
 711              	# 192 "src/user/syscall_c.cpp" 1
 193              	
 194:src/user/syscall_c.cpp ****     uint64 status;
 712              		ecall
 713              	# 0 "" 2
 714              		.loc 1 194 5 is_stmt 1
 195:src/user/syscall_c.cpp **** 
 196:src/user/syscall_c.cpp ****     asm("mv %[status], a0" : [status] "=r" (status));
 715              		.loc 1 196 5
 716              		.loc 1 196 53 is_stmt 0
 717              	# 196 "src/user/syscall_c.cpp" 1
 197              	
 718              		mv a0, a0
 719              	# 0 "" 2
 720              	.LVL60:
 198:src/user/syscall_c.cpp ****     return status;
 721              		.loc 1 198 5 is_stmt 1
 199:src/user/syscall_c.cpp **** }
 722              		.loc 1 199 1 is_stmt 0
 723              	#NO_APP
 724 02a8 1B050500 		sext.w	a0,a0
GAS LISTING /tmp/ccr6CgxI.s 			page 17


 725              	.LVL61:
 726 02ac 03348100 		ld	s0,8(sp)
 727              		.cfi_restore 8
 728              		.cfi_def_cfa 2, 16
 729 02b0 13010101 		addi	sp,sp,16
 730              		.cfi_def_cfa_offset 0
 731 02b4 67800000 		jr	ra
 732              		.cfi_endproc
 733              	.LFE22:
 735              		.align	2
 736              		.globl	_Z10time_sleepm
 738              	_Z10time_sleepm:
 739              	.LFB23:
 200:src/user/syscall_c.cpp **** 
 201:src/user/syscall_c.cpp **** int time_sleep(time_t time){
 740              		.loc 1 201 28 is_stmt 1
 741              		.cfi_startproc
 742              	.LVL62:
 743 02b8 130101FF 		addi	sp,sp,-16
 744              		.cfi_def_cfa_offset 16
 745 02bc 23348100 		sd	s0,8(sp)
 746              		.cfi_offset 8, -8
 747 02c0 13040101 		addi	s0,sp,16
 748              		.cfi_def_cfa 8, 0
 202:src/user/syscall_c.cpp ****     uint64 itime = (uint64)time;
 749              		.loc 1 202 5
 750              	.LVL63:
 203:src/user/syscall_c.cpp **** 
 204:src/user/syscall_c.cpp ****     asm("mv a1, %[itime]" : : [itime] "r" (itime));
 751              		.loc 1 204 5
 752              		.loc 1 204 51 is_stmt 0
 753              	#APP
 754              	# 204 "src/user/syscall_c.cpp" 1
 205              	    asm("li a0, 0x31");
 755              		mv a1, a0
 756              	# 0 "" 2
 757              		.loc 1 205 5 is_stmt 1
 758              		.loc 1 205 23 is_stmt 0
 759              	# 205 "src/user/syscall_c.cpp" 1
 206              	
 207:src/user/syscall_c.cpp **** 
 208:src/user/syscall_c.cpp ****     asm("ecall");
 760              		li a0, 0x31
 761              	# 0 "" 2
 762              		.loc 1 208 5 is_stmt 1
 763              		.loc 1 208 17 is_stmt 0
 764              	# 208 "src/user/syscall_c.cpp" 1
 209              	
 210:src/user/syscall_c.cpp ****     uint64 status;
 765              		ecall
 766              	# 0 "" 2
 767              		.loc 1 210 5 is_stmt 1
 211:src/user/syscall_c.cpp **** 
 212:src/user/syscall_c.cpp ****     asm("mv %[status], a0" : [status] "=r" (status));
 768              		.loc 1 212 5
 769              		.loc 1 212 53 is_stmt 0
 770              	# 212 "src/user/syscall_c.cpp" 1
GAS LISTING /tmp/ccr6CgxI.s 			page 18


 213              	
 771              		mv a0, a0
 772              	# 0 "" 2
 773              	.LVL64:
 214:src/user/syscall_c.cpp ****     return status;
 774              		.loc 1 214 5 is_stmt 1
 215:src/user/syscall_c.cpp **** }
 775              		.loc 1 215 1 is_stmt 0
 776              	#NO_APP
 777 02d4 1B050500 		sext.w	a0,a0
 778              	.LVL65:
 779 02d8 03348100 		ld	s0,8(sp)
 780              		.cfi_restore 8
 781              		.cfi_def_cfa 2, 16
 782 02dc 13010101 		addi	sp,sp,16
 783              		.cfi_def_cfa_offset 0
 784 02e0 67800000 		jr	ra
 785              		.cfi_endproc
 786              	.LFE23:
 788              		.align	2
 789              		.globl	_Z4getcv
 791              	_Z4getcv:
 792              	.LFB24:
 216:src/user/syscall_c.cpp **** 
 217:src/user/syscall_c.cpp **** char getc(){
 793              		.loc 1 217 12 is_stmt 1
 794              		.cfi_startproc
 795 02e4 130101FF 		addi	sp,sp,-16
 796              		.cfi_def_cfa_offset 16
 797 02e8 23348100 		sd	s0,8(sp)
 798              		.cfi_offset 8, -8
 799 02ec 13040101 		addi	s0,sp,16
 800              		.cfi_def_cfa 8, 0
 218:src/user/syscall_c.cpp ****     asm("li a0, 0x41");
 801              		.loc 1 218 5
 802              		.loc 1 218 23 is_stmt 0
 803              	#APP
 804              	# 218 "src/user/syscall_c.cpp" 1
 219              	
 220:src/user/syscall_c.cpp ****     asm("ecall");
 805              		li a0, 0x41
 806              	# 0 "" 2
 807              		.loc 1 220 5 is_stmt 1
 808              		.loc 1 220 17 is_stmt 0
 809              	# 220 "src/user/syscall_c.cpp" 1
 221              	
 222:src/user/syscall_c.cpp ****     char c;
 810              		ecall
 811              	# 0 "" 2
 812              		.loc 1 222 5 is_stmt 1
 223:src/user/syscall_c.cpp **** 
 224:src/user/syscall_c.cpp ****     asm("mv %[c], a0" : [c] "=r" (c));
 813              		.loc 1 224 5
 814              		.loc 1 224 38 is_stmt 0
 815              	# 224 "src/user/syscall_c.cpp" 1
 225              	
 816              		mv a0, a0
GAS LISTING /tmp/ccr6CgxI.s 			page 19


 817              	# 0 "" 2
 818              	.LVL66:
 226:src/user/syscall_c.cpp ****     return c;
 819              		.loc 1 226 5 is_stmt 1
 227:src/user/syscall_c.cpp **** }
 820              		.loc 1 227 1 is_stmt 0
 821              	#NO_APP
 822 02fc 1375F50F 		andi	a0,a0,0xff
 823 0300 03348100 		ld	s0,8(sp)
 824              		.cfi_restore 8
 825              		.cfi_def_cfa 2, 16
 826 0304 13010101 		addi	sp,sp,16
 827              		.cfi_def_cfa_offset 0
 828 0308 67800000 		jr	ra
 829              		.cfi_endproc
 830              	.LFE24:
 832              		.align	2
 833              		.globl	_Z4putcc
 835              	_Z4putcc:
 836              	.LFB25:
 228:src/user/syscall_c.cpp **** 
 229:src/user/syscall_c.cpp **** void putc(char c){
 837              		.loc 1 229 18 is_stmt 1
 838              		.cfi_startproc
 839              	.LVL67:
 840 030c 130101FF 		addi	sp,sp,-16
 841              		.cfi_def_cfa_offset 16
 842 0310 23348100 		sd	s0,8(sp)
 843              		.cfi_offset 8, -8
 844 0314 13040101 		addi	s0,sp,16
 845              		.cfi_def_cfa 8, 0
 230:src/user/syscall_c.cpp ****     asm("mv a1, %[c]" : : [c] "r" ((uint64)c));
 846              		.loc 1 230 5
 847              		.loc 1 230 47 is_stmt 0
 848              	#APP
 849              	# 230 "src/user/syscall_c.cpp" 1
 231              	
 232:src/user/syscall_c.cpp ****     asm("li a0, 0x42");
 850              		mv a1, a0
 851              	# 0 "" 2
 852              		.loc 1 232 5 is_stmt 1
 853              		.loc 1 232 23 is_stmt 0
 854              	# 232 "src/user/syscall_c.cpp" 1
 233              	
 234:src/user/syscall_c.cpp ****     asm("ecall");
 855              		li a0, 0x42
 856              	# 0 "" 2
 857              		.loc 1 234 5 is_stmt 1
 858              		.loc 1 234 17 is_stmt 0
 859              	# 234 "src/user/syscall_c.cpp" 1
 235              	}
 860              		ecall
 861              	# 0 "" 2
 862              		.loc 1 235 1
 863              	#NO_APP
 864 0324 03348100 		ld	s0,8(sp)
 865              		.cfi_restore 8
GAS LISTING /tmp/ccr6CgxI.s 			page 20


 866              		.cfi_def_cfa 2, 16
 867 0328 13010101 		addi	sp,sp,16
 868              		.cfi_def_cfa_offset 0
 869 032c 67800000 		jr	ra
 870              		.cfi_endproc
 871              	.LFE25:
 873              		.align	2
 874              		.globl	_Z4forkv
 876              	_Z4forkv:
 877              	.LFB26:
 236:src/user/syscall_c.cpp **** 
 237:src/user/syscall_c.cpp **** 
 238:src/user/syscall_c.cpp **** int fork(){
 878              		.loc 1 238 11 is_stmt 1
 879              		.cfi_startproc
 880 0330 130101FF 		addi	sp,sp,-16
 881              		.cfi_def_cfa_offset 16
 882 0334 23348100 		sd	s0,8(sp)
 883              		.cfi_offset 8, -8
 884 0338 13040101 		addi	s0,sp,16
 885              		.cfi_def_cfa 8, 0
 239:src/user/syscall_c.cpp ****     asm("li a0, 0x61");
 886              		.loc 1 239 5
 887              		.loc 1 239 23 is_stmt 0
 888              	#APP
 889              	# 239 "src/user/syscall_c.cpp" 1
 240              	
 241:src/user/syscall_c.cpp ****     asm("ecall");
 890              		li a0, 0x61
 891              	# 0 "" 2
 892              		.loc 1 241 5 is_stmt 1
 893              		.loc 1 241 17 is_stmt 0
 894              	# 241 "src/user/syscall_c.cpp" 1
 242              	
 243:src/user/syscall_c.cpp ****     uint64 status;
 895              		ecall
 896              	# 0 "" 2
 897              		.loc 1 243 5 is_stmt 1
 244:src/user/syscall_c.cpp **** 
 245:src/user/syscall_c.cpp ****     asm("mv %[status], a0" : [status] "=r" (status));
 898              		.loc 1 245 5
 899              		.loc 1 245 53 is_stmt 0
 900              	# 245 "src/user/syscall_c.cpp" 1
 246              	
 901              		mv a0, a0
 902              	# 0 "" 2
 903              	.LVL68:
 247:src/user/syscall_c.cpp ****     return status;
 904              		.loc 1 247 5 is_stmt 1
 248:src/user/syscall_c.cpp **** }
 905              		.loc 1 248 1 is_stmt 0
 906              	#NO_APP
 907 0348 1B050500 		sext.w	a0,a0
 908              	.LVL69:
 909 034c 03348100 		ld	s0,8(sp)
 910              		.cfi_restore 8
 911              		.cfi_def_cfa 2, 16
GAS LISTING /tmp/ccr6CgxI.s 			page 21


 912 0350 13010101 		addi	sp,sp,16
 913              		.cfi_def_cfa_offset 0
 914 0354 67800000 		jr	ra
 915              		.cfi_endproc
 916              	.LFE26:
 918              		.align	2
 919              		.globl	_Z8tcb_freePv
 921              	_Z8tcb_freePv:
 922              	.LFB27:
 249:src/user/syscall_c.cpp **** 
 250:src/user/syscall_c.cpp **** void tcb_free(void* addr){
 923              		.loc 1 250 26 is_stmt 1
 924              		.cfi_startproc
 925              	.LVL70:
 926 0358 130101FF 		addi	sp,sp,-16
 927              		.cfi_def_cfa_offset 16
 928 035c 23348100 		sd	s0,8(sp)
 929              		.cfi_offset 8, -8
 930 0360 13040101 		addi	s0,sp,16
 931              		.cfi_def_cfa 8, 0
 251:src/user/syscall_c.cpp ****     uint64 iptr = (uint64)addr;
 932              		.loc 1 251 5
 933              	.LVL71:
 252:src/user/syscall_c.cpp **** 
 253:src/user/syscall_c.cpp ****     asm("mv a1, %[iptr]" : : [iptr] "r" (iptr));
 934              		.loc 1 253 5
 935              		.loc 1 253 48 is_stmt 0
 936              	#APP
 937              	# 253 "src/user/syscall_c.cpp" 1
 254              	    asm("li a0, 0x51");
 938              		mv a1, a0
 939              	# 0 "" 2
 940              		.loc 1 254 5 is_stmt 1
 941              		.loc 1 254 23 is_stmt 0
 942              	# 254 "src/user/syscall_c.cpp" 1
 255              	    asm("ecall");
 943              		li a0, 0x51
 944              	# 0 "" 2
 945              		.loc 1 255 5 is_stmt 1
 946              		.loc 1 255 17 is_stmt 0
 947              	# 255 "src/user/syscall_c.cpp" 1
 256              	
 257:src/user/syscall_c.cpp ****     uint64 status;
 948              		ecall
 949              	# 0 "" 2
 950              		.loc 1 257 5 is_stmt 1
 258:src/user/syscall_c.cpp **** 
 259:src/user/syscall_c.cpp ****     asm("mv %[status], a0" : [status] "=r" (status));
 951              		.loc 1 259 5
 952              	.LVL72:
 260:src/user/syscall_c.cpp **** }
 953              		.loc 1 260 1 is_stmt 0
 954              	#NO_APP
 955 0370 03348100 		ld	s0,8(sp)
 956              		.cfi_restore 8
 957              		.cfi_def_cfa 2, 16
 958 0374 13010101 		addi	sp,sp,16
GAS LISTING /tmp/ccr6CgxI.s 			page 22


 959              		.cfi_def_cfa_offset 0
 960 0378 67800000 		jr	ra
 961              		.cfi_endproc
 962              	.LFE27:
 964              	.Letext0:
 965              		.file 2 "src/user/../../h/../lib/hw.h"
 966              		.file 3 "src/user/../../h/../h/_thread.hpp"
 967              		.file 4 "src/user/../../h/../h/_semaphore.hpp"
GAS LISTING /tmp/ccr6CgxI.s 			page 23


DEFINED SYMBOLS
                            *ABS*:0000000000000000 syscall_c.cpp
     /tmp/ccr6CgxI.s:9      .text:0000000000000000 _Z9mem_allocm
     /tmp/ccr6CgxI.s:13     .text:0000000000000000 .L0 
     /tmp/ccr6CgxI.s:15     .text:0000000000000000 .L0 
     /tmp/ccr6CgxI.s:16     .text:0000000000000004 .L0 
     /tmp/ccr6CgxI.s:18     .text:0000000000000008 .L0 
     /tmp/ccr6CgxI.s:20     .text:000000000000000c .L0 
     /tmp/ccr6CgxI.s:22     .text:000000000000000c .L0 
     /tmp/ccr6CgxI.s:23     .text:000000000000000c .L0 
     /tmp/ccr6CgxI.s:26     .text:0000000000000010 .L0 
     /tmp/ccr6CgxI.s:29     .text:0000000000000014 .L0 
src/user/syscall_c.cpp:16     .text:0000000000000014 .L0 
     /tmp/ccr6CgxI.s:35     .text:0000000000000018 .L0 
src/user/syscall_c.cpp:17     .text:0000000000000018 .L0 
     /tmp/ccr6CgxI.s:40     .text:000000000000001c .L0 
src/user/syscall_c.cpp:18     .text:000000000000001c .L0 
     /tmp/ccr6CgxI.s:46     .text:0000000000000020 .L0 
     /tmp/ccr6CgxI.s:47     .text:0000000000000020 .L0 
src/user/syscall_c.cpp:22     .text:0000000000000020 .L0 
     /tmp/ccr6CgxI.s:53     .text:0000000000000024 .L0 
     /tmp/ccr6CgxI.s:55     .text:0000000000000024 .L0 
     /tmp/ccr6CgxI.s:56     .text:0000000000000028 .L0 
     /tmp/ccr6CgxI.s:57     .text:0000000000000028 .L0 
     /tmp/ccr6CgxI.s:59     .text:000000000000002c .L0 
     /tmp/ccr6CgxI.s:61     .text:0000000000000030 .L0 
     /tmp/ccr6CgxI.s:67     .text:0000000000000030 _Z8mem_freePv
     /tmp/ccr6CgxI.s:70     .text:0000000000000030 .L0 
     /tmp/ccr6CgxI.s:72     .text:0000000000000030 .L0 
     /tmp/ccr6CgxI.s:73     .text:0000000000000034 .L0 
     /tmp/ccr6CgxI.s:75     .text:0000000000000038 .L0 
     /tmp/ccr6CgxI.s:77     .text:000000000000003c .L0 
     /tmp/ccr6CgxI.s:80     .text:000000000000003c .L0 
     /tmp/ccr6CgxI.s:81     .text:000000000000003c .L0 
src/user/syscall_c.cpp:30     .text:000000000000003c .L0 
     /tmp/ccr6CgxI.s:87     .text:0000000000000040 .L0 
src/user/syscall_c.cpp:31     .text:0000000000000040 .L0 
     /tmp/ccr6CgxI.s:92     .text:0000000000000044 .L0 
src/user/syscall_c.cpp:32     .text:0000000000000044 .L0 
     /tmp/ccr6CgxI.s:97     .text:0000000000000048 .L0 
     /tmp/ccr6CgxI.s:98     .text:0000000000000048 .L0 
src/user/syscall_c.cpp:36     .text:0000000000000048 .L0 
     /tmp/ccr6CgxI.s:104    .text:000000000000004c .L0 
     /tmp/ccr6CgxI.s:106    .text:000000000000004c .L0 
     /tmp/ccr6CgxI.s:109    .text:0000000000000054 .L0 
     /tmp/ccr6CgxI.s:110    .text:0000000000000054 .L0 
     /tmp/ccr6CgxI.s:112    .text:0000000000000058 .L0 
     /tmp/ccr6CgxI.s:114    .text:000000000000005c .L0 
     /tmp/ccr6CgxI.s:120    .text:000000000000005c _Z13thread_createPP7_threadPFvPvES2_
     /tmp/ccr6CgxI.s:123    .text:000000000000005c .L0 
     /tmp/ccr6CgxI.s:125    .text:000000000000005c .L0 
     /tmp/ccr6CgxI.s:126    .text:0000000000000060 .L0 
     /tmp/ccr6CgxI.s:132    .text:0000000000000074 .L0 
     /tmp/ccr6CgxI.s:133    .text:0000000000000074 .L0 
     /tmp/ccr6CgxI.s:134    .text:0000000000000074 .L0 
     /tmp/ccr6CgxI.s:135    .text:0000000000000074 .L0 
     /tmp/ccr6CgxI.s:136    .text:0000000000000074 .L0 
GAS LISTING /tmp/ccr6CgxI.s 			page 24


     /tmp/ccr6CgxI.s:138    .text:0000000000000078 .L0 
     /tmp/ccr6CgxI.s:144    .text:0000000000000084 .L0 
     /tmp/ccr6CgxI.s:145    .text:0000000000000084 .L0 
     /tmp/ccr6CgxI.s:146    .text:0000000000000084 .L0 
     /tmp/ccr6CgxI.s:147    .text:0000000000000084 .L0 
     /tmp/ccr6CgxI.s:148    .text:0000000000000084 .L0 
     /tmp/ccr6CgxI.s:150    .text:0000000000000088 .L0 
     /tmp/ccr6CgxI.s:151    .text:0000000000000088 .L0 
     /tmp/ccr6CgxI.s:156    .text:0000000000000094 .L0 
     /tmp/ccr6CgxI.s:160    .text:0000000000000098 .L0 
src/user/syscall_c.cpp:54     .text:0000000000000098 .L0 
     /tmp/ccr6CgxI.s:166    .text:000000000000009c .L0 
src/user/syscall_c.cpp:55     .text:000000000000009c .L0 
     /tmp/ccr6CgxI.s:171    .text:00000000000000a0 .L0 
src/user/syscall_c.cpp:56     .text:00000000000000a0 .L0 
     /tmp/ccr6CgxI.s:176    .text:00000000000000a4 .L0 
src/user/syscall_c.cpp:57     .text:00000000000000a4 .L0 
     /tmp/ccr6CgxI.s:181    .text:00000000000000a8 .L0 
src/user/syscall_c.cpp:58     .text:00000000000000a8 .L0 
     /tmp/ccr6CgxI.s:186    .text:00000000000000ac .L0 
src/user/syscall_c.cpp:60     .text:00000000000000ac .L0 
     /tmp/ccr6CgxI.s:191    .text:00000000000000b0 .L0 
     /tmp/ccr6CgxI.s:192    .text:00000000000000b0 .L0 
src/user/syscall_c.cpp:64     .text:00000000000000b0 .L0 
     /tmp/ccr6CgxI.s:198    .text:00000000000000b4 .L0 
     /tmp/ccr6CgxI.s:200    .text:00000000000000b4 .L0 
     /tmp/ccr6CgxI.s:204    .text:00000000000000b8 .L0 
     /tmp/ccr6CgxI.s:205    .text:00000000000000bc .L0 
     /tmp/ccr6CgxI.s:206    .text:00000000000000bc .L0 
     /tmp/ccr6CgxI.s:208    .text:00000000000000c0 .L0 
     /tmp/ccr6CgxI.s:209    .text:00000000000000c0 .L0 
     /tmp/ccr6CgxI.s:211    .text:00000000000000c4 .L0 
     /tmp/ccr6CgxI.s:214    .text:00000000000000c8 .L0 
     /tmp/ccr6CgxI.s:217    .text:00000000000000cc .L0 
     /tmp/ccr6CgxI.s:220    .text:00000000000000d0 .L0 
     /tmp/ccr6CgxI.s:224    .text:00000000000000d4 .L0 
     /tmp/ccr6CgxI.s:226    .text:00000000000000d4 .L0 
     /tmp/ccr6CgxI.s:227    .text:00000000000000d4 .L0 
     /tmp/ccr6CgxI.s:229    .text:00000000000000d8 .L0 
     /tmp/ccr6CgxI.s:230    .text:00000000000000d8 .L0 
     /tmp/ccr6CgxI.s:236    .text:00000000000000e0 .L0 
     /tmp/ccr6CgxI.s:239    .text:00000000000000e8 .L0 
     /tmp/ccr6CgxI.s:245    .text:00000000000000e8 _Z11thread_exitv
     /tmp/ccr6CgxI.s:248    .text:00000000000000e8 .L0 
     /tmp/ccr6CgxI.s:249    .text:00000000000000e8 .L0 
     /tmp/ccr6CgxI.s:250    .text:00000000000000ec .L0 
     /tmp/ccr6CgxI.s:252    .text:00000000000000f0 .L0 
     /tmp/ccr6CgxI.s:254    .text:00000000000000f4 .L0 
     /tmp/ccr6CgxI.s:256    .text:00000000000000f4 .L0 
src/user/syscall_c.cpp:70     .text:00000000000000f4 .L0 
     /tmp/ccr6CgxI.s:262    .text:00000000000000f8 .L0 
src/user/syscall_c.cpp:72     .text:00000000000000f8 .L0 
     /tmp/ccr6CgxI.s:267    .text:00000000000000fc .L0 
     /tmp/ccr6CgxI.s:268    .text:00000000000000fc .L0 
src/user/syscall_c.cpp:76     .text:00000000000000fc .L0 
     /tmp/ccr6CgxI.s:274    .text:0000000000000100 .L0 
     /tmp/ccr6CgxI.s:276    .text:0000000000000100 .L0 
GAS LISTING /tmp/ccr6CgxI.s 			page 25


     /tmp/ccr6CgxI.s:279    .text:0000000000000108 .L0 
     /tmp/ccr6CgxI.s:280    .text:0000000000000108 .L0 
     /tmp/ccr6CgxI.s:282    .text:000000000000010c .L0 
     /tmp/ccr6CgxI.s:284    .text:0000000000000110 .L0 
     /tmp/ccr6CgxI.s:290    .text:0000000000000110 _Z15thread_dispatchv
     /tmp/ccr6CgxI.s:293    .text:0000000000000110 .L0 
     /tmp/ccr6CgxI.s:294    .text:0000000000000110 .L0 
     /tmp/ccr6CgxI.s:295    .text:0000000000000114 .L0 
     /tmp/ccr6CgxI.s:297    .text:0000000000000118 .L0 
     /tmp/ccr6CgxI.s:299    .text:000000000000011c .L0 
     /tmp/ccr6CgxI.s:301    .text:000000000000011c .L0 
src/user/syscall_c.cpp:82     .text:000000000000011c .L0 
     /tmp/ccr6CgxI.s:307    .text:0000000000000120 .L0 
src/user/syscall_c.cpp:84     .text:0000000000000120 .L0 
     /tmp/ccr6CgxI.s:313    .text:0000000000000124 .L0 
     /tmp/ccr6CgxI.s:314    .text:0000000000000128 .L0 
     /tmp/ccr6CgxI.s:315    .text:0000000000000128 .L0 
     /tmp/ccr6CgxI.s:317    .text:000000000000012c .L0 
     /tmp/ccr6CgxI.s:319    .text:0000000000000130 .L0 
     /tmp/ccr6CgxI.s:325    .text:0000000000000130 _Z18thread_attach_bodyPP7_threadPFvPvES2_
     /tmp/ccr6CgxI.s:328    .text:0000000000000130 .L0 
     /tmp/ccr6CgxI.s:330    .text:0000000000000130 .L0 
     /tmp/ccr6CgxI.s:331    .text:0000000000000134 .L0 
     /tmp/ccr6CgxI.s:337    .text:0000000000000148 .L0 
     /tmp/ccr6CgxI.s:338    .text:0000000000000148 .L0 
     /tmp/ccr6CgxI.s:339    .text:0000000000000148 .L0 
     /tmp/ccr6CgxI.s:340    .text:0000000000000148 .L0 
     /tmp/ccr6CgxI.s:341    .text:0000000000000148 .L0 
     /tmp/ccr6CgxI.s:343    .text:000000000000014c .L0 
     /tmp/ccr6CgxI.s:349    .text:0000000000000158 .L0 
     /tmp/ccr6CgxI.s:350    .text:0000000000000158 .L0 
     /tmp/ccr6CgxI.s:351    .text:0000000000000158 .L0 
     /tmp/ccr6CgxI.s:352    .text:0000000000000158 .L0 
     /tmp/ccr6CgxI.s:353    .text:0000000000000158 .L0 
     /tmp/ccr6CgxI.s:355    .text:000000000000015c .L0 
     /tmp/ccr6CgxI.s:357    .text:0000000000000160 .L0 
     /tmp/ccr6CgxI.s:358    .text:0000000000000160 .L0 
     /tmp/ccr6CgxI.s:363    .text:000000000000016c .L0 
     /tmp/ccr6CgxI.s:367    .text:0000000000000170 .L0 
src/user/syscall_c.cpp:100    .text:0000000000000170 .L0 
     /tmp/ccr6CgxI.s:373    .text:0000000000000174 .L0 
src/user/syscall_c.cpp:101    .text:0000000000000174 .L0 
     /tmp/ccr6CgxI.s:378    .text:0000000000000178 .L0 
src/user/syscall_c.cpp:102    .text:0000000000000178 .L0 
     /tmp/ccr6CgxI.s:383    .text:000000000000017c .L0 
src/user/syscall_c.cpp:103    .text:000000000000017c .L0 
     /tmp/ccr6CgxI.s:388    .text:0000000000000180 .L0 
src/user/syscall_c.cpp:104    .text:0000000000000180 .L0 
     /tmp/ccr6CgxI.s:393    .text:0000000000000184 .L0 
src/user/syscall_c.cpp:106    .text:0000000000000184 .L0 
     /tmp/ccr6CgxI.s:398    .text:0000000000000188 .L0 
     /tmp/ccr6CgxI.s:399    .text:0000000000000188 .L0 
src/user/syscall_c.cpp:110    .text:0000000000000188 .L0 
     /tmp/ccr6CgxI.s:405    .text:000000000000018c .L0 
     /tmp/ccr6CgxI.s:407    .text:000000000000018c .L0 
     /tmp/ccr6CgxI.s:411    .text:0000000000000190 .L0 
     /tmp/ccr6CgxI.s:412    .text:0000000000000194 .L0 
GAS LISTING /tmp/ccr6CgxI.s 			page 26


     /tmp/ccr6CgxI.s:413    .text:0000000000000194 .L0 
     /tmp/ccr6CgxI.s:415    .text:0000000000000198 .L0 
     /tmp/ccr6CgxI.s:416    .text:0000000000000198 .L0 
     /tmp/ccr6CgxI.s:418    .text:000000000000019c .L0 
     /tmp/ccr6CgxI.s:421    .text:00000000000001a0 .L0 
     /tmp/ccr6CgxI.s:424    .text:00000000000001a4 .L0 
     /tmp/ccr6CgxI.s:427    .text:00000000000001a8 .L0 
     /tmp/ccr6CgxI.s:431    .text:00000000000001ac .L0 
     /tmp/ccr6CgxI.s:433    .text:00000000000001ac .L0 
     /tmp/ccr6CgxI.s:441    .text:00000000000001bc .L0 
     /tmp/ccr6CgxI.s:444    .text:00000000000001c4 .L0 
     /tmp/ccr6CgxI.s:450    .text:00000000000001c4 _Z12thread_startP7_thread
     /tmp/ccr6CgxI.s:453    .text:00000000000001c4 .L0 
     /tmp/ccr6CgxI.s:455    .text:00000000000001c4 .L0 
     /tmp/ccr6CgxI.s:456    .text:00000000000001c8 .L0 
     /tmp/ccr6CgxI.s:458    .text:00000000000001cc .L0 
     /tmp/ccr6CgxI.s:460    .text:00000000000001d0 .L0 
     /tmp/ccr6CgxI.s:463    .text:00000000000001d0 .L0 
     /tmp/ccr6CgxI.s:464    .text:00000000000001d0 .L0 
     /tmp/ccr6CgxI.s:466    .text:00000000000001d4 .L0 
src/user/syscall_c.cpp:120    .text:00000000000001d4 .L0 
     /tmp/ccr6CgxI.s:472    .text:00000000000001d8 .L0 
src/user/syscall_c.cpp:121    .text:00000000000001d8 .L0 
     /tmp/ccr6CgxI.s:477    .text:00000000000001dc .L0 
src/user/syscall_c.cpp:123    .text:00000000000001dc .L0 
     /tmp/ccr6CgxI.s:482    .text:00000000000001e0 .L0 
     /tmp/ccr6CgxI.s:483    .text:00000000000001e0 .L0 
src/user/syscall_c.cpp:127    .text:00000000000001e0 .L0 
     /tmp/ccr6CgxI.s:489    .text:00000000000001e4 .L0 
     /tmp/ccr6CgxI.s:491    .text:00000000000001e4 .L0 
     /tmp/ccr6CgxI.s:495    .text:00000000000001e8 .L0 
     /tmp/ccr6CgxI.s:496    .text:00000000000001ec .L0 
     /tmp/ccr6CgxI.s:497    .text:00000000000001ec .L0 
     /tmp/ccr6CgxI.s:498    .text:00000000000001ec .L0 
     /tmp/ccr6CgxI.s:500    .text:00000000000001f0 .L0 
     /tmp/ccr6CgxI.s:504    .text:00000000000001f4 .L0 
     /tmp/ccr6CgxI.s:506    .text:00000000000001f4 .L0 
     /tmp/ccr6CgxI.s:509    .text:00000000000001fc .L0 
     /tmp/ccr6CgxI.s:515    .text:00000000000001fc _Z8sem_openPP10_semaphorej
     /tmp/ccr6CgxI.s:518    .text:00000000000001fc .L0 
     /tmp/ccr6CgxI.s:520    .text:00000000000001fc .L0 
     /tmp/ccr6CgxI.s:521    .text:0000000000000200 .L0 
     /tmp/ccr6CgxI.s:523    .text:0000000000000204 .L0 
     /tmp/ccr6CgxI.s:525    .text:0000000000000208 .L0 
     /tmp/ccr6CgxI.s:528    .text:0000000000000208 .L0 
     /tmp/ccr6CgxI.s:529    .text:0000000000000208 .L0 
     /tmp/ccr6CgxI.s:530    .text:0000000000000208 .L0 
     /tmp/ccr6CgxI.s:535    .text:0000000000000210 .L0 
src/user/syscall_c.cpp:137    .text:0000000000000210 .L0 
     /tmp/ccr6CgxI.s:541    .text:0000000000000214 .L0 
src/user/syscall_c.cpp:138    .text:0000000000000214 .L0 
     /tmp/ccr6CgxI.s:546    .text:0000000000000218 .L0 
src/user/syscall_c.cpp:139    .text:0000000000000218 .L0 
     /tmp/ccr6CgxI.s:551    .text:000000000000021c .L0 
src/user/syscall_c.cpp:142    .text:000000000000021c .L0 
     /tmp/ccr6CgxI.s:556    .text:0000000000000220 .L0 
     /tmp/ccr6CgxI.s:557    .text:0000000000000220 .L0 
GAS LISTING /tmp/ccr6CgxI.s 			page 27


src/user/syscall_c.cpp:146    .text:0000000000000220 .L0 
     /tmp/ccr6CgxI.s:563    .text:0000000000000224 .L0 
     /tmp/ccr6CgxI.s:565    .text:0000000000000224 .L0 
     /tmp/ccr6CgxI.s:568    .text:000000000000022c .L0 
     /tmp/ccr6CgxI.s:569    .text:000000000000022c .L0 
     /tmp/ccr6CgxI.s:571    .text:0000000000000230 .L0 
     /tmp/ccr6CgxI.s:573    .text:0000000000000234 .L0 
     /tmp/ccr6CgxI.s:579    .text:0000000000000234 _Z9sem_closeP10_semaphore
     /tmp/ccr6CgxI.s:582    .text:0000000000000234 .L0 
     /tmp/ccr6CgxI.s:584    .text:0000000000000234 .L0 
     /tmp/ccr6CgxI.s:585    .text:0000000000000238 .L0 
     /tmp/ccr6CgxI.s:587    .text:000000000000023c .L0 
     /tmp/ccr6CgxI.s:589    .text:0000000000000240 .L0 
     /tmp/ccr6CgxI.s:592    .text:0000000000000240 .L0 
     /tmp/ccr6CgxI.s:593    .text:0000000000000240 .L0 
src/user/syscall_c.cpp:156    .text:0000000000000240 .L0 
     /tmp/ccr6CgxI.s:599    .text:0000000000000244 .L0 
src/user/syscall_c.cpp:157    .text:0000000000000244 .L0 
     /tmp/ccr6CgxI.s:604    .text:0000000000000248 .L0 
src/user/syscall_c.cpp:160    .text:0000000000000248 .L0 
     /tmp/ccr6CgxI.s:609    .text:000000000000024c .L0 
     /tmp/ccr6CgxI.s:610    .text:000000000000024c .L0 
src/user/syscall_c.cpp:164    .text:000000000000024c .L0 
     /tmp/ccr6CgxI.s:616    .text:0000000000000250 .L0 
     /tmp/ccr6CgxI.s:618    .text:0000000000000250 .L0 
     /tmp/ccr6CgxI.s:621    .text:0000000000000258 .L0 
     /tmp/ccr6CgxI.s:622    .text:0000000000000258 .L0 
     /tmp/ccr6CgxI.s:624    .text:000000000000025c .L0 
     /tmp/ccr6CgxI.s:626    .text:0000000000000260 .L0 
     /tmp/ccr6CgxI.s:632    .text:0000000000000260 _Z8sem_waitP10_semaphore
     /tmp/ccr6CgxI.s:635    .text:0000000000000260 .L0 
     /tmp/ccr6CgxI.s:637    .text:0000000000000260 .L0 
     /tmp/ccr6CgxI.s:638    .text:0000000000000264 .L0 
     /tmp/ccr6CgxI.s:640    .text:0000000000000268 .L0 
     /tmp/ccr6CgxI.s:642    .text:000000000000026c .L0 
     /tmp/ccr6CgxI.s:645    .text:000000000000026c .L0 
     /tmp/ccr6CgxI.s:646    .text:000000000000026c .L0 
src/user/syscall_c.cpp:172    .text:000000000000026c .L0 
     /tmp/ccr6CgxI.s:652    .text:0000000000000270 .L0 
src/user/syscall_c.cpp:173    .text:0000000000000270 .L0 
     /tmp/ccr6CgxI.s:657    .text:0000000000000274 .L0 
src/user/syscall_c.cpp:176    .text:0000000000000274 .L0 
     /tmp/ccr6CgxI.s:662    .text:0000000000000278 .L0 
     /tmp/ccr6CgxI.s:663    .text:0000000000000278 .L0 
src/user/syscall_c.cpp:180    .text:0000000000000278 .L0 
     /tmp/ccr6CgxI.s:669    .text:000000000000027c .L0 
     /tmp/ccr6CgxI.s:671    .text:000000000000027c .L0 
     /tmp/ccr6CgxI.s:674    .text:0000000000000284 .L0 
     /tmp/ccr6CgxI.s:675    .text:0000000000000284 .L0 
     /tmp/ccr6CgxI.s:677    .text:0000000000000288 .L0 
     /tmp/ccr6CgxI.s:679    .text:000000000000028c .L0 
     /tmp/ccr6CgxI.s:685    .text:000000000000028c _Z10sem_signalP10_semaphore
     /tmp/ccr6CgxI.s:688    .text:000000000000028c .L0 
     /tmp/ccr6CgxI.s:690    .text:000000000000028c .L0 
     /tmp/ccr6CgxI.s:691    .text:0000000000000290 .L0 
     /tmp/ccr6CgxI.s:693    .text:0000000000000294 .L0 
     /tmp/ccr6CgxI.s:695    .text:0000000000000298 .L0 
GAS LISTING /tmp/ccr6CgxI.s 			page 28


     /tmp/ccr6CgxI.s:698    .text:0000000000000298 .L0 
     /tmp/ccr6CgxI.s:699    .text:0000000000000298 .L0 
src/user/syscall_c.cpp:188    .text:0000000000000298 .L0 
     /tmp/ccr6CgxI.s:705    .text:000000000000029c .L0 
src/user/syscall_c.cpp:189    .text:000000000000029c .L0 
     /tmp/ccr6CgxI.s:710    .text:00000000000002a0 .L0 
src/user/syscall_c.cpp:192    .text:00000000000002a0 .L0 
     /tmp/ccr6CgxI.s:715    .text:00000000000002a4 .L0 
     /tmp/ccr6CgxI.s:716    .text:00000000000002a4 .L0 
src/user/syscall_c.cpp:196    .text:00000000000002a4 .L0 
     /tmp/ccr6CgxI.s:722    .text:00000000000002a8 .L0 
     /tmp/ccr6CgxI.s:724    .text:00000000000002a8 .L0 
     /tmp/ccr6CgxI.s:727    .text:00000000000002b0 .L0 
     /tmp/ccr6CgxI.s:728    .text:00000000000002b0 .L0 
     /tmp/ccr6CgxI.s:730    .text:00000000000002b4 .L0 
     /tmp/ccr6CgxI.s:732    .text:00000000000002b8 .L0 
     /tmp/ccr6CgxI.s:738    .text:00000000000002b8 _Z10time_sleepm
     /tmp/ccr6CgxI.s:741    .text:00000000000002b8 .L0 
     /tmp/ccr6CgxI.s:743    .text:00000000000002b8 .L0 
     /tmp/ccr6CgxI.s:744    .text:00000000000002bc .L0 
     /tmp/ccr6CgxI.s:746    .text:00000000000002c0 .L0 
     /tmp/ccr6CgxI.s:748    .text:00000000000002c4 .L0 
     /tmp/ccr6CgxI.s:751    .text:00000000000002c4 .L0 
     /tmp/ccr6CgxI.s:752    .text:00000000000002c4 .L0 
src/user/syscall_c.cpp:204    .text:00000000000002c4 .L0 
     /tmp/ccr6CgxI.s:758    .text:00000000000002c8 .L0 
src/user/syscall_c.cpp:205    .text:00000000000002c8 .L0 
     /tmp/ccr6CgxI.s:763    .text:00000000000002cc .L0 
src/user/syscall_c.cpp:208    .text:00000000000002cc .L0 
     /tmp/ccr6CgxI.s:768    .text:00000000000002d0 .L0 
     /tmp/ccr6CgxI.s:769    .text:00000000000002d0 .L0 
src/user/syscall_c.cpp:212    .text:00000000000002d0 .L0 
     /tmp/ccr6CgxI.s:775    .text:00000000000002d4 .L0 
     /tmp/ccr6CgxI.s:777    .text:00000000000002d4 .L0 
     /tmp/ccr6CgxI.s:780    .text:00000000000002dc .L0 
     /tmp/ccr6CgxI.s:781    .text:00000000000002dc .L0 
     /tmp/ccr6CgxI.s:783    .text:00000000000002e0 .L0 
     /tmp/ccr6CgxI.s:785    .text:00000000000002e4 .L0 
     /tmp/ccr6CgxI.s:791    .text:00000000000002e4 _Z4getcv
     /tmp/ccr6CgxI.s:794    .text:00000000000002e4 .L0 
     /tmp/ccr6CgxI.s:795    .text:00000000000002e4 .L0 
     /tmp/ccr6CgxI.s:796    .text:00000000000002e8 .L0 
     /tmp/ccr6CgxI.s:798    .text:00000000000002ec .L0 
     /tmp/ccr6CgxI.s:800    .text:00000000000002f0 .L0 
     /tmp/ccr6CgxI.s:802    .text:00000000000002f0 .L0 
src/user/syscall_c.cpp:218    .text:00000000000002f0 .L0 
     /tmp/ccr6CgxI.s:808    .text:00000000000002f4 .L0 
src/user/syscall_c.cpp:220    .text:00000000000002f4 .L0 
     /tmp/ccr6CgxI.s:813    .text:00000000000002f8 .L0 
     /tmp/ccr6CgxI.s:814    .text:00000000000002f8 .L0 
src/user/syscall_c.cpp:224    .text:00000000000002f8 .L0 
     /tmp/ccr6CgxI.s:820    .text:00000000000002fc .L0 
     /tmp/ccr6CgxI.s:822    .text:00000000000002fc .L0 
     /tmp/ccr6CgxI.s:824    .text:0000000000000304 .L0 
     /tmp/ccr6CgxI.s:825    .text:0000000000000304 .L0 
     /tmp/ccr6CgxI.s:827    .text:0000000000000308 .L0 
     /tmp/ccr6CgxI.s:829    .text:000000000000030c .L0 
GAS LISTING /tmp/ccr6CgxI.s 			page 29


     /tmp/ccr6CgxI.s:835    .text:000000000000030c _Z4putcc
     /tmp/ccr6CgxI.s:838    .text:000000000000030c .L0 
     /tmp/ccr6CgxI.s:840    .text:000000000000030c .L0 
     /tmp/ccr6CgxI.s:841    .text:0000000000000310 .L0 
     /tmp/ccr6CgxI.s:843    .text:0000000000000314 .L0 
     /tmp/ccr6CgxI.s:845    .text:0000000000000318 .L0 
     /tmp/ccr6CgxI.s:847    .text:0000000000000318 .L0 
src/user/syscall_c.cpp:230    .text:0000000000000318 .L0 
     /tmp/ccr6CgxI.s:853    .text:000000000000031c .L0 
src/user/syscall_c.cpp:232    .text:000000000000031c .L0 
     /tmp/ccr6CgxI.s:858    .text:0000000000000320 .L0 
src/user/syscall_c.cpp:234    .text:0000000000000320 .L0 
     /tmp/ccr6CgxI.s:864    .text:0000000000000324 .L0 
     /tmp/ccr6CgxI.s:865    .text:0000000000000328 .L0 
     /tmp/ccr6CgxI.s:866    .text:0000000000000328 .L0 
     /tmp/ccr6CgxI.s:868    .text:000000000000032c .L0 
     /tmp/ccr6CgxI.s:870    .text:0000000000000330 .L0 
     /tmp/ccr6CgxI.s:876    .text:0000000000000330 _Z4forkv
     /tmp/ccr6CgxI.s:879    .text:0000000000000330 .L0 
     /tmp/ccr6CgxI.s:880    .text:0000000000000330 .L0 
     /tmp/ccr6CgxI.s:881    .text:0000000000000334 .L0 
     /tmp/ccr6CgxI.s:883    .text:0000000000000338 .L0 
     /tmp/ccr6CgxI.s:885    .text:000000000000033c .L0 
     /tmp/ccr6CgxI.s:887    .text:000000000000033c .L0 
src/user/syscall_c.cpp:239    .text:000000000000033c .L0 
     /tmp/ccr6CgxI.s:893    .text:0000000000000340 .L0 
src/user/syscall_c.cpp:241    .text:0000000000000340 .L0 
     /tmp/ccr6CgxI.s:898    .text:0000000000000344 .L0 
     /tmp/ccr6CgxI.s:899    .text:0000000000000344 .L0 
src/user/syscall_c.cpp:245    .text:0000000000000344 .L0 
     /tmp/ccr6CgxI.s:905    .text:0000000000000348 .L0 
     /tmp/ccr6CgxI.s:907    .text:0000000000000348 .L0 
     /tmp/ccr6CgxI.s:910    .text:0000000000000350 .L0 
     /tmp/ccr6CgxI.s:911    .text:0000000000000350 .L0 
     /tmp/ccr6CgxI.s:913    .text:0000000000000354 .L0 
     /tmp/ccr6CgxI.s:915    .text:0000000000000358 .L0 
     /tmp/ccr6CgxI.s:921    .text:0000000000000358 _Z8tcb_freePv
     /tmp/ccr6CgxI.s:924    .text:0000000000000358 .L0 
     /tmp/ccr6CgxI.s:926    .text:0000000000000358 .L0 
     /tmp/ccr6CgxI.s:927    .text:000000000000035c .L0 
     /tmp/ccr6CgxI.s:929    .text:0000000000000360 .L0 
     /tmp/ccr6CgxI.s:931    .text:0000000000000364 .L0 
     /tmp/ccr6CgxI.s:934    .text:0000000000000364 .L0 
     /tmp/ccr6CgxI.s:935    .text:0000000000000364 .L0 
src/user/syscall_c.cpp:253    .text:0000000000000364 .L0 
     /tmp/ccr6CgxI.s:941    .text:0000000000000368 .L0 
src/user/syscall_c.cpp:254    .text:0000000000000368 .L0 
     /tmp/ccr6CgxI.s:946    .text:000000000000036c .L0 
src/user/syscall_c.cpp:255    .text:000000000000036c .L0 
     /tmp/ccr6CgxI.s:951    .text:0000000000000370 .L0 
     /tmp/ccr6CgxI.s:953    .text:0000000000000370 .L0 
     /tmp/ccr6CgxI.s:955    .text:0000000000000370 .L0 
     /tmp/ccr6CgxI.s:956    .text:0000000000000374 .L0 
     /tmp/ccr6CgxI.s:957    .text:0000000000000374 .L0 
     /tmp/ccr6CgxI.s:959    .text:0000000000000378 .L0 
     /tmp/ccr6CgxI.s:961    .text:000000000000037c .L0 
     /tmp/ccr6CgxI.s:968    .text:000000000000037c .L0 
GAS LISTING /tmp/ccr6CgxI.s 			page 30


     /tmp/ccr6CgxI.s:234    .text:00000000000000e0 .L8
     /tmp/ccr6CgxI.s:223    .text:00000000000000d4 .L10
     /tmp/ccr6CgxI.s:202    .text:00000000000000b8 .L7
     /tmp/ccr6CgxI.s:158    .text:0000000000000098 .L6
     /tmp/ccr6CgxI.s:430    .text:00000000000001ac .L18
     /tmp/ccr6CgxI.s:435    .text:00000000000001b4 .L19
     /tmp/ccr6CgxI.s:439    .text:00000000000001bc .L22
     /tmp/ccr6CgxI.s:365    .text:0000000000000170 .L16
     /tmp/ccr6CgxI.s:409    .text:0000000000000190 .L17
     /tmp/ccr6CgxI.s:503    .text:00000000000001f4 .L25
     /tmp/ccr6CgxI.s:493    .text:00000000000001e8 .L24
     /tmp/ccr6CgxI.s:1799   .debug_abbrev:0000000000000000 .Ldebug_abbrev0
     /tmp/ccr6CgxI.s:3144   .debug_str:000000000000033e .LASF74
     /tmp/ccr6CgxI.s:3138   .debug_str:000000000000030e .LASF75
     /tmp/ccr6CgxI.s:3184   .debug_str:00000000000004e3 .LASF76
     /tmp/ccr6CgxI.s:5      .text:0000000000000000 .Ltext0
     /tmp/ccr6CgxI.s:964    .text:000000000000037c .Letext0
     /tmp/ccr6CgxI.s:3028   .debug_line:0000000000000000 .Ldebug_line0
     /tmp/ccr6CgxI.s:3116   .debug_str:000000000000027c .LASF0
     /tmp/ccr6CgxI.s:3092   .debug_str:00000000000001b9 .LASF1
     /tmp/ccr6CgxI.s:3080   .debug_str:0000000000000167 .LASF2
     /tmp/ccr6CgxI.s:3048   .debug_str:0000000000000075 .LASF4
     /tmp/ccr6CgxI.s:3090   .debug_str:00000000000001a7 .LASF3
     /tmp/ccr6CgxI.s:3036   .debug_str:0000000000000027 .LASF5
     /tmp/ccr6CgxI.s:3128   .debug_str:00000000000002d3 .LASF6
     /tmp/ccr6CgxI.s:3032   .debug_str:000000000000000e .LASF7
     /tmp/ccr6CgxI.s:3074   .debug_str:0000000000000132 .LASF8
     /tmp/ccr6CgxI.s:3130   .debug_str:00000000000002da .LASF9
     /tmp/ccr6CgxI.s:3046   .debug_str:0000000000000067 .LASF10
     /tmp/ccr6CgxI.s:3186   .debug_str:0000000000000514 .LASF11
     /tmp/ccr6CgxI.s:3078   .debug_str:0000000000000158 .LASF12
     /tmp/ccr6CgxI.s:3172   .debug_str:00000000000004aa .LASF13
     /tmp/ccr6CgxI.s:3140   .debug_str:0000000000000325 .LASF14
     /tmp/ccr6CgxI.s:3096   .debug_str:00000000000001d5 .LASF15
     /tmp/ccr6CgxI.s:3060   .debug_str:00000000000000db .LASF16
     /tmp/ccr6CgxI.s:3134   .debug_str:00000000000002ef .LASF17
     /tmp/ccr6CgxI.s:3156   .debug_str:0000000000000439 .LASF18
     /tmp/ccr6CgxI.s:3066   .debug_str:0000000000000106 .LASF19
     /tmp/ccr6CgxI.s:3038   .debug_str:000000000000002e .LASF20
     /tmp/ccr6CgxI.s:3122   .debug_str:0000000000000299 .LASF25
     /tmp/ccr6CgxI.s:3070   .debug_str:000000000000011c .LASF26
     /tmp/ccr6CgxI.s:3136   .debug_str:0000000000000305 .LASF21
     /tmp/ccr6CgxI.s:3164   .debug_str:0000000000000467 .LASF22
     /tmp/ccr6CgxI.s:3050   .debug_str:000000000000007c .LASF23
     /tmp/ccr6CgxI.s:3054   .debug_str:00000000000000a5 .LASF24
     /tmp/ccr6CgxI.s:3052   .debug_str:0000000000000090 .LASF27
     /tmp/ccr6CgxI.s:3042   .debug_str:0000000000000047 .LASF28
     /tmp/ccr6CgxI.s:3154   .debug_str:0000000000000430 .LASF31
     /tmp/ccr6CgxI.s:3064   .debug_str:00000000000000f8 .LASF33
     /tmp/ccr6CgxI.s:922    .text:0000000000000358 .LFB27
     /tmp/ccr6CgxI.s:962    .text:000000000000037c .LFE27
     /tmp/ccr6CgxI.s:3072   .debug_str:000000000000012d .LASF35
     /tmp/ccr6CgxI.s:3176   .debug_str:00000000000004c6 .LASF29
     /tmp/ccr6CgxI.s:3062   .debug_str:00000000000000f1 .LASF30
     /tmp/ccr6CgxI.s:3118   .debug_str:0000000000000289 .LASF37
     /tmp/ccr6CgxI.s:3086   .debug_str:0000000000000194 .LASF39
     /tmp/ccr6CgxI.s:877    .text:0000000000000330 .LFB26
GAS LISTING /tmp/ccr6CgxI.s 			page 31


     /tmp/ccr6CgxI.s:916    .text:0000000000000358 .LFE26
     /tmp/ccr6CgxI.s:2310   .debug_loc:0000000000000000 .LLST42
     /tmp/ccr6CgxI.s:3150   .debug_str:0000000000000423 .LASF32
     /tmp/ccr6CgxI.s:3094   .debug_str:00000000000001cc .LASF34
     /tmp/ccr6CgxI.s:836    .text:000000000000030c .LFB25
     /tmp/ccr6CgxI.s:871    .text:0000000000000330 .LFE25
     /tmp/ccr6CgxI.s:3124   .debug_str:00000000000002a9 .LASF36
     /tmp/ccr6CgxI.s:3082   .debug_str:0000000000000175 .LASF38
     /tmp/ccr6CgxI.s:3180   .debug_str:00000000000004d5 .LASF40
     /tmp/ccr6CgxI.s:792    .text:00000000000002e4 .LFB24
     /tmp/ccr6CgxI.s:830    .text:000000000000030c .LFE24
     /tmp/ccr6CgxI.s:3120   .debug_str:000000000000028e .LASF41
     /tmp/ccr6CgxI.s:3160   .debug_str:000000000000044e .LASF42
     /tmp/ccr6CgxI.s:739    .text:00000000000002b8 .LFB23
     /tmp/ccr6CgxI.s:786    .text:00000000000002e4 .LFE23
     /tmp/ccr6CgxI.s:3132   .debug_str:00000000000002ea .LASF43
     /tmp/ccr6CgxI.s:2317   .debug_loc:0000000000000023 .LLST39
     /tmp/ccr6CgxI.s:3068   .debug_str:0000000000000116 .LASF44
     /tmp/ccr6CgxI.s:2331   .debug_loc:000000000000005c .LLST40
     /tmp/ccr6CgxI.s:2345   .debug_loc:0000000000000095 .LLST41
     /tmp/ccr6CgxI.s:3102   .debug_str:00000000000001fd .LASF45
     /tmp/ccr6CgxI.s:3114   .debug_str:0000000000000260 .LASF46
     /tmp/ccr6CgxI.s:686    .text:000000000000028c .LFB22
     /tmp/ccr6CgxI.s:733    .text:00000000000002b8 .LFE22
     /tmp/ccr6CgxI.s:3098   .debug_str:00000000000001e1 .LASF47
     /tmp/ccr6CgxI.s:2352   .debug_loc:00000000000000b8 .LLST36
     /tmp/ccr6CgxI.s:3152   .debug_str:0000000000000428 .LASF48
     /tmp/ccr6CgxI.s:2366   .debug_loc:00000000000000f1 .LLST37
     /tmp/ccr6CgxI.s:2380   .debug_loc:000000000000012a .LLST38
     /tmp/ccr6CgxI.s:3112   .debug_str:0000000000000257 .LASF49
     /tmp/ccr6CgxI.s:3166   .debug_str:0000000000000472 .LASF50
     /tmp/ccr6CgxI.s:633    .text:0000000000000260 .LFB21
     /tmp/ccr6CgxI.s:680    .text:000000000000028c .LFE21
     /tmp/ccr6CgxI.s:2387   .debug_loc:000000000000014d .LLST33
     /tmp/ccr6CgxI.s:2401   .debug_loc:0000000000000186 .LLST34
     /tmp/ccr6CgxI.s:2415   .debug_loc:00000000000001bf .LLST35
     /tmp/ccr6CgxI.s:3088   .debug_str:000000000000019d .LASF51
     /tmp/ccr6CgxI.s:3084   .debug_str:000000000000017a .LASF52
     /tmp/ccr6CgxI.s:580    .text:0000000000000234 .LFB20
     /tmp/ccr6CgxI.s:627    .text:0000000000000260 .LFE20
     /tmp/ccr6CgxI.s:2422   .debug_loc:00000000000001e2 .LLST30
     /tmp/ccr6CgxI.s:2436   .debug_loc:000000000000021b .LLST31
     /tmp/ccr6CgxI.s:2450   .debug_loc:0000000000000254 .LLST32
     /tmp/ccr6CgxI.s:3162   .debug_str:000000000000045e .LASF53
     /tmp/ccr6CgxI.s:3056   .debug_str:00000000000000bb .LASF54
     /tmp/ccr6CgxI.s:516    .text:00000000000001fc .LFB19
     /tmp/ccr6CgxI.s:574    .text:0000000000000234 .LFE19
     /tmp/ccr6CgxI.s:2457   .debug_loc:0000000000000277 .LLST26
     /tmp/ccr6CgxI.s:3058   .debug_str:00000000000000d6 .LASF55
     /tmp/ccr6CgxI.s:2471   .debug_loc:00000000000002b0 .LLST27
     /tmp/ccr6CgxI.s:2485   .debug_loc:00000000000002e9 .LLST28
     /tmp/ccr6CgxI.s:3034   .debug_str:0000000000000021 .LASF56
     /tmp/ccr6CgxI.s:2499   .debug_loc:0000000000000322 .LLST29
     /tmp/ccr6CgxI.s:3158   .debug_str:0000000000000441 .LASF57
     /tmp/ccr6CgxI.s:3044   .debug_str:000000000000004d .LASF58
     /tmp/ccr6CgxI.s:451    .text:00000000000001c4 .LFB18
     /tmp/ccr6CgxI.s:510    .text:00000000000001fc .LFE18
GAS LISTING /tmp/ccr6CgxI.s 			page 32


     /tmp/ccr6CgxI.s:2506   .debug_loc:0000000000000345 .LLST23
     /tmp/ccr6CgxI.s:2531   .debug_loc:00000000000003a7 .LLST24
     /tmp/ccr6CgxI.s:2556   .debug_loc:0000000000000409 .LLST25
     /tmp/ccr6CgxI.s:3076   .debug_str:0000000000000145 .LASF59
     /tmp/ccr6CgxI.s:3104   .debug_str:0000000000000208 .LASF60
     /tmp/ccr6CgxI.s:326    .text:0000000000000130 .LFB17
     /tmp/ccr6CgxI.s:445    .text:00000000000001c4 .LFE17
     /tmp/ccr6CgxI.s:2563   .debug_loc:000000000000042c .LLST15
     /tmp/ccr6CgxI.s:3106   .debug_str:0000000000000232 .LASF61
     /tmp/ccr6CgxI.s:2585   .debug_loc:000000000000048b .LLST16
     /tmp/ccr6CgxI.s:2611   .debug_loc:00000000000004fd .LLST17
     /tmp/ccr6CgxI.s:2637   .debug_loc:000000000000056f .LLST18
     /tmp/ccr6CgxI.s:3110   .debug_str:000000000000024e .LASF62
     /tmp/ccr6CgxI.s:2659   .debug_loc:00000000000005ce .LLST19
     /tmp/ccr6CgxI.s:3148   .debug_str:000000000000041e .LASF63
     /tmp/ccr6CgxI.s:2685   .debug_loc:0000000000000640 .LLST20
     /tmp/ccr6CgxI.s:3040   .debug_str:0000000000000040 .LASF64
     /tmp/ccr6CgxI.s:2711   .debug_loc:00000000000006b2 .LLST21
     /tmp/ccr6CgxI.s:2732   .debug_loc:0000000000000710 .LLST22
     /tmp/ccr6CgxI.s:361    .text:000000000000016c .LVL28
     /tmp/ccr6CgxI.s:3146   .debug_str:000000000000040e .LASF77
     /tmp/ccr6CgxI.s:3100   .debug_str:00000000000001e8 .LASF78
     /tmp/ccr6CgxI.s:291    .text:0000000000000110 .LFB16
     /tmp/ccr6CgxI.s:320    .text:0000000000000130 .LFE16
     /tmp/ccr6CgxI.s:3174   .debug_str:00000000000004ba .LASF65
     /tmp/ccr6CgxI.s:3170   .debug_str:0000000000000499 .LASF66
     /tmp/ccr6CgxI.s:246    .text:00000000000000e8 .LFB15
     /tmp/ccr6CgxI.s:285    .text:0000000000000110 .LFE15
     /tmp/ccr6CgxI.s:2739   .debug_loc:0000000000000733 .LLST14
     /tmp/ccr6CgxI.s:3168   .debug_str:000000000000048b .LASF67
     /tmp/ccr6CgxI.s:3126   .debug_str:00000000000002ae .LASF68
     /tmp/ccr6CgxI.s:121    .text:000000000000005c .LFB14
     /tmp/ccr6CgxI.s:240    .text:00000000000000e8 .LFE14
     /tmp/ccr6CgxI.s:2746   .debug_loc:0000000000000756 .LLST6
     /tmp/ccr6CgxI.s:2776   .debug_loc:00000000000007db .LLST7
     /tmp/ccr6CgxI.s:2798   .debug_loc:000000000000083a .LLST8
     /tmp/ccr6CgxI.s:2824   .debug_loc:00000000000008ac .LLST9
     /tmp/ccr6CgxI.s:2854   .debug_loc:0000000000000931 .LLST10
     /tmp/ccr6CgxI.s:2876   .debug_loc:0000000000000990 .LLST11
     /tmp/ccr6CgxI.s:2902   .debug_loc:0000000000000a02 .LLST12
     /tmp/ccr6CgxI.s:2923   .debug_loc:0000000000000a60 .LLST13
     /tmp/ccr6CgxI.s:154    .text:0000000000000094 .LVL12
     /tmp/ccr6CgxI.s:3142   .debug_str:0000000000000335 .LASF69
     /tmp/ccr6CgxI.s:3030   .debug_str:0000000000000000 .LASF70
     /tmp/ccr6CgxI.s:68     .text:0000000000000030 .LFB13
     /tmp/ccr6CgxI.s:115    .text:000000000000005c .LFE13
     /tmp/ccr6CgxI.s:2930   .debug_loc:0000000000000a83 .LLST3
     /tmp/ccr6CgxI.s:2944   .debug_loc:0000000000000abc .LLST4
     /tmp/ccr6CgxI.s:2958   .debug_loc:0000000000000af5 .LLST5
     /tmp/ccr6CgxI.s:3178   .debug_str:00000000000004cb .LASF71
     /tmp/ccr6CgxI.s:3108   .debug_str:0000000000000240 .LASF72
     /tmp/ccr6CgxI.s:10     .text:0000000000000000 .LFB12
     /tmp/ccr6CgxI.s:62     .text:0000000000000030 .LFE12
     /tmp/ccr6CgxI.s:3182   .debug_str:00000000000004de .LASF73
     /tmp/ccr6CgxI.s:2965   .debug_loc:0000000000000b18 .LLST0
     /tmp/ccr6CgxI.s:2985   .debug_loc:0000000000000b66 .LLST1
     /tmp/ccr6CgxI.s:3003   .debug_loc:0000000000000ba3 .LLST2
GAS LISTING /tmp/ccr6CgxI.s 			page 33


     /tmp/ccr6CgxI.s:903    .text:0000000000000348 .LVL68
     /tmp/ccr6CgxI.s:908    .text:000000000000034c .LVL69
     /tmp/ccr6CgxI.s:742    .text:00000000000002b8 .LVL62
     /tmp/ccr6CgxI.s:773    .text:00000000000002d4 .LVL64
     /tmp/ccr6CgxI.s:750    .text:00000000000002c4 .LVL63
     /tmp/ccr6CgxI.s:778    .text:00000000000002d8 .LVL65
     /tmp/ccr6CgxI.s:689    .text:000000000000028c .LVL58
     /tmp/ccr6CgxI.s:720    .text:00000000000002a8 .LVL60
     /tmp/ccr6CgxI.s:697    .text:0000000000000298 .LVL59
     /tmp/ccr6CgxI.s:725    .text:00000000000002ac .LVL61
     /tmp/ccr6CgxI.s:636    .text:0000000000000260 .LVL54
     /tmp/ccr6CgxI.s:667    .text:000000000000027c .LVL56
     /tmp/ccr6CgxI.s:644    .text:000000000000026c .LVL55
     /tmp/ccr6CgxI.s:672    .text:0000000000000280 .LVL57
     /tmp/ccr6CgxI.s:583    .text:0000000000000234 .LVL50
     /tmp/ccr6CgxI.s:614    .text:0000000000000250 .LVL52
     /tmp/ccr6CgxI.s:591    .text:0000000000000240 .LVL51
     /tmp/ccr6CgxI.s:619    .text:0000000000000254 .LVL53
     /tmp/ccr6CgxI.s:519    .text:00000000000001fc .LVL44
     /tmp/ccr6CgxI.s:561    .text:0000000000000224 .LVL48
     /tmp/ccr6CgxI.s:531    .text:000000000000020c .LVL46
     /tmp/ccr6CgxI.s:527    .text:0000000000000208 .LVL45
     /tmp/ccr6CgxI.s:566    .text:0000000000000228 .LVL49
     /tmp/ccr6CgxI.s:454    .text:00000000000001c4 .LVL38
     /tmp/ccr6CgxI.s:487    .text:00000000000001e4 .LVL40
     /tmp/ccr6CgxI.s:502    .text:00000000000001f4 .LVL42
     /tmp/ccr6CgxI.s:507    .text:00000000000001f8 .LVL43
     /tmp/ccr6CgxI.s:462    .text:00000000000001d0 .LVL39
     /tmp/ccr6CgxI.s:492    .text:00000000000001e8 .LVL41
     /tmp/ccr6CgxI.s:329    .text:0000000000000130 .LVL25
     /tmp/ccr6CgxI.s:359    .text:0000000000000164 .LVL27
     /tmp/ccr6CgxI.s:419    .text:000000000000019c .LVL32
     /tmp/ccr6CgxI.s:429    .text:00000000000001ac .LVL35
     /tmp/ccr6CgxI.s:422    .text:00000000000001a0 .LVL33
     /tmp/ccr6CgxI.s:438    .text:00000000000001bc .LVL36
     /tmp/ccr6CgxI.s:425    .text:00000000000001a4 .LVL34
     /tmp/ccr6CgxI.s:348    .text:0000000000000158 .LVL26
     /tmp/ccr6CgxI.s:403    .text:000000000000018c .LVL30
     /tmp/ccr6CgxI.s:442    .text:00000000000001c0 .LVL37
     /tmp/ccr6CgxI.s:408    .text:0000000000000190 .LVL31
     /tmp/ccr6CgxI.s:272    .text:0000000000000100 .LVL23
     /tmp/ccr6CgxI.s:277    .text:0000000000000104 .LVL24
     /tmp/ccr6CgxI.s:124    .text:000000000000005c .LVL9
     /tmp/ccr6CgxI.s:152    .text:000000000000008c .LVL11
     /tmp/ccr6CgxI.s:215    .text:00000000000000c8 .LVL17
     /tmp/ccr6CgxI.s:222    .text:00000000000000d4 .LVL19
     /tmp/ccr6CgxI.s:233    .text:00000000000000e0 .LVL21
     /tmp/ccr6CgxI.s:237    .text:00000000000000e4 .LVL22
     /tmp/ccr6CgxI.s:212    .text:00000000000000c4 .LVL16
     /tmp/ccr6CgxI.s:218    .text:00000000000000cc .LVL18
     /tmp/ccr6CgxI.s:143    .text:0000000000000084 .LVL10
     /tmp/ccr6CgxI.s:196    .text:00000000000000b4 .LVL14
     /tmp/ccr6CgxI.s:231    .text:00000000000000dc .LVL20
     /tmp/ccr6CgxI.s:201    .text:00000000000000b8 .LVL15
     /tmp/ccr6CgxI.s:71     .text:0000000000000030 .LVL5
     /tmp/ccr6CgxI.s:102    .text:000000000000004c .LVL7
     /tmp/ccr6CgxI.s:79     .text:000000000000003c .LVL6
GAS LISTING /tmp/ccr6CgxI.s 			page 34


     /tmp/ccr6CgxI.s:107    .text:0000000000000050 .LVL8
     /tmp/ccr6CgxI.s:14     .text:0000000000000000 .LVL0
     /tmp/ccr6CgxI.s:24     .text:0000000000000010 .LVL1
     /tmp/ccr6CgxI.s:27     .text:0000000000000014 .LVL2
     /tmp/ccr6CgxI.s:51     .text:0000000000000024 .LVL4
     /tmp/ccr6CgxI.s:45     .text:0000000000000020 .LVL3
     /tmp/ccr6CgxI.s:969    .debug_info:0000000000000000 .Ldebug_info0

NO UNDEFINED SYMBOLS
