GAS LISTING /tmp/cc7QMxFM.s 			page 1


   1              		.file	"tcbWrapperUtil.cpp"
   2              		.option pic
   3              		.option norelax
   4              		.text
   5              	.Ltext0:
   6              		.align	2
   7              		.globl	_ZN10TCBWrapper7tcbWrapEP3TCB
   9              	_ZN10TCBWrapper7tcbWrapEP3TCB:
  10              	.LFB22:
  11              		.file 1 "src/user/tcbWrapperUtil.cpp"
   1:src/user/tcbWrapperUtil.cpp **** //
   2:src/user/tcbWrapperUtil.cpp **** // Created by os on 1/8/23.
   3:src/user/tcbWrapperUtil.cpp **** //
   4:src/user/tcbWrapperUtil.cpp **** #include "../../h/tcbWrapperUtil.hpp"
   5:src/user/tcbWrapperUtil.cpp **** #include "../../h/syscall_c.h"
   6:src/user/tcbWrapperUtil.cpp **** 
   7:src/user/tcbWrapperUtil.cpp **** void TCBWrapper::tcbWrap(TCB* tcb)
   8:src/user/tcbWrapperUtil.cpp **** {
  12              		.loc 1 8 1
  13              		.cfi_startproc
  14              	.LVL0:
  15 0000 130101FF 		addi	sp,sp,-16
  16              		.cfi_def_cfa_offset 16
  17 0004 23341100 		sd	ra,8(sp)
  18 0008 23308100 		sd	s0,0(sp)
  19              		.cfi_offset 1, -8
  20              		.cfi_offset 8, -16
  21 000c 13040101 		addi	s0,sp,16
  22              		.cfi_def_cfa 8, 0
   9:src/user/tcbWrapperUtil.cpp ****     tcb->body(tcb->args);
  23              		.loc 1 9 5
  24              		.loc 1 9 10 is_stmt 0
  25 0010 83378501 		ld	a5,24(a0)
  26              		.loc 1 9 14
  27 0014 03350502 		ld	a0,32(a0)
  28              	.LVL1:
  29 0018 E7800700 		jalr	a5
  30              	.LVL2:
  10:src/user/tcbWrapperUtil.cpp ****     thread_exit();
  31              		.loc 1 10 5 is_stmt 1
  32              		.loc 1 10 16 is_stmt 0
  33 001c 97000000 		call	_Z11thread_exitv@plt
  33      E7800000 
  34              	.LVL3:
  11:src/user/tcbWrapperUtil.cpp **** }
  35              		.loc 1 11 1
  36 0024 83308100 		ld	ra,8(sp)
  37              		.cfi_restore 1
  38 0028 03340100 		ld	s0,0(sp)
  39              		.cfi_restore 8
  40              		.cfi_def_cfa 2, 16
  41 002c 13010101 		addi	sp,sp,16
  42              		.cfi_def_cfa_offset 0
  43 0030 67800000 		jr	ra
  44              		.cfi_endproc
  45              	.LFE22:
  47              	.Letext0:
GAS LISTING /tmp/cc7QMxFM.s 			page 2


  48              		.file 2 "src/user/../../h/../h/../lib/hw.h"
  49              		.file 3 "src/user/../../h/../h/../h/../h/../h/utility.hpp"
  50              		.file 4 "src/user/../../h/../h/../h/../h/../h/../h/slab_t.hpp"
  51              		.file 5 "src/user/../../h/../h/../h/../h/../h/cache_t.hpp"
  52              		.file 6 "src/user/../../h/../h/tcb.hpp"
  53              		.file 7 "src/user/../../h/tcbWrapperUtil.hpp"
  54              		.file 8 "src/user/../../h/syscall_c.h"
GAS LISTING /tmp/cc7QMxFM.s 			page 3

