GAS LISTING /tmp/ccv81bAm.s 			page 1


   1              		.file	"user_wrappers.cpp"
   2              		.option pic
   3              		.option norelax
   4              		.text
   5              	.Ltext0:
   6              		.align	2
   7              		.globl	_Z11bodyWrapperPFvPvES_
   9              	_Z11bodyWrapperPFvPvES_:
  10              	.LFB12:
  11              		.file 1 "src/user/user_wrappers.cpp"
   1:src/user/user_wrappers.cpp **** //
   2:src/user/user_wrappers.cpp **** // Created by os on 1/10/23.
   3:src/user/user_wrappers.cpp **** //
   4:src/user/user_wrappers.cpp **** #include "../../h/user/user_wrappers.hpp"
   5:src/user/user_wrappers.cpp **** #include "../../h/user/syscall_c.h"
   6:src/user/user_wrappers.cpp **** #include "tests/userMain.hpp"
   7:src/user/user_wrappers.cpp **** 
   8:src/user/user_wrappers.cpp **** void bodyWrapper(void (*body)(void*), void* args)
   9:src/user/user_wrappers.cpp **** {
  12              		.loc 1 9 1
  13              		.cfi_startproc
  14              	.LVL0:
  15 0000 130101FF 		addi	sp,sp,-16
  16              		.cfi_def_cfa_offset 16
  17 0004 23341100 		sd	ra,8(sp)
  18 0008 23308100 		sd	s0,0(sp)
  19              		.cfi_offset 1, -8
  20              		.cfi_offset 8, -16
  21 000c 13040101 		addi	s0,sp,16
  22              		.cfi_def_cfa 8, 0
  23 0010 93070500 		mv	a5,a0
  10:src/user/user_wrappers.cpp ****     body(args);
  24              		.loc 1 10 5
  25              		.loc 1 10 9 is_stmt 0
  26 0014 13850500 		mv	a0,a1
  27              	.LVL1:
  28 0018 E7800700 		jalr	a5
  29              	.LVL2:
  11:src/user/user_wrappers.cpp ****     thread_exit();
  30              		.loc 1 11 5 is_stmt 1
  31              		.loc 1 11 16 is_stmt 0
  32 001c 97000000 		call	_Z11thread_exitv@plt
  32      E7800000 
  33              	.LVL3:
  12:src/user/user_wrappers.cpp **** }
  34              		.loc 1 12 1
  35 0024 83308100 		ld	ra,8(sp)
  36              		.cfi_restore 1
  37 0028 03340100 		ld	s0,0(sp)
  38              		.cfi_restore 8
  39              		.cfi_def_cfa 2, 16
  40 002c 13010101 		addi	sp,sp,16
  41              		.cfi_def_cfa_offset 0
  42 0030 67800000 		jr	ra
  43              		.cfi_endproc
  44              	.LFE12:
  46              		.align	2
GAS LISTING /tmp/ccv81bAm.s 			page 2


  47              		.globl	_Z15userMainWrapperPv
  49              	_Z15userMainWrapperPv:
  50              	.LFB13:
  13:src/user/user_wrappers.cpp **** 
  14:src/user/user_wrappers.cpp **** void userMainWrapper(void* args) {
  51              		.loc 1 14 34 is_stmt 1
  52              		.cfi_startproc
  53              	.LVL4:
  54 0034 130101FF 		addi	sp,sp,-16
  55              		.cfi_def_cfa_offset 16
  56 0038 23341100 		sd	ra,8(sp)
  57 003c 23308100 		sd	s0,0(sp)
  58              		.cfi_offset 1, -8
  59              		.cfi_offset 8, -16
  60 0040 13040101 		addi	s0,sp,16
  61              		.cfi_def_cfa 8, 0
  15:src/user/user_wrappers.cpp ****     userMain();
  62              		.loc 1 15 5
  63              		.loc 1 15 13 is_stmt 0
  64 0044 97000000 		call	_Z8userMainv@plt
  64      E7800000 
  65              	.LVL5:
  16:src/user/user_wrappers.cpp **** }...
  66              		.loc 1 16 1
  67 004c 83308100 		ld	ra,8(sp)
  68              		.cfi_restore 1
  69 0050 03340100 		ld	s0,0(sp)
  70              		.cfi_restore 8
  71              		.cfi_def_cfa 2, 16
  72 0054 13010101 		addi	sp,sp,16
  73              		.cfi_def_cfa_offset 0
  74 0058 67800000 		jr	ra
  75              		.cfi_endproc
  76              	.LFE13:
  78              	.Letext0:
  79              		.file 2 "src/user/../../h/user/../../lib/hw.h"
  80              		.file 3 "src/user/tests/userMain.hpp"
  81              		.file 4 "src/user/../../h/user/syscall_c.h"
GAS LISTING /tmp/ccv81bAm.s 			page 3


DEFINED SYMBOLS
                            *ABS*:0000000000000000 user_wrappers.cpp
     /tmp/ccv81bAm.s:9      .text:0000000000000000 _Z11bodyWrapperPFvPvES_
     /tmp/ccv81bAm.s:13     .text:0000000000000000 .L0 
     /tmp/ccv81bAm.s:15     .text:0000000000000000 .L0 
     /tmp/ccv81bAm.s:16     .text:0000000000000004 .L0 
     /tmp/ccv81bAm.s:19     .text:000000000000000c .L0 
     /tmp/ccv81bAm.s:20     .text:000000000000000c .L0 
     /tmp/ccv81bAm.s:22     .text:0000000000000010 .L0 
     /tmp/ccv81bAm.s:25     .text:0000000000000014 .L0 
     /tmp/ccv81bAm.s:26     .text:0000000000000014 .L0 
     /tmp/ccv81bAm.s:31     .text:000000000000001c .L0 
     /tmp/ccv81bAm.s:32     .text:000000000000001c .L0 
     /tmp/ccv81bAm.s:35     .text:0000000000000024 .L0 
     /tmp/ccv81bAm.s:36     .text:0000000000000028 .L0 
     /tmp/ccv81bAm.s:38     .text:000000000000002c .L0 
     /tmp/ccv81bAm.s:39     .text:000000000000002c .L0 
     /tmp/ccv81bAm.s:41     .text:0000000000000030 .L0 
     /tmp/ccv81bAm.s:43     .text:0000000000000034 .L0 
     /tmp/ccv81bAm.s:49     .text:0000000000000034 _Z15userMainWrapperPv
     /tmp/ccv81bAm.s:52     .text:0000000000000034 .L0 
     /tmp/ccv81bAm.s:54     .text:0000000000000034 .L0 
     /tmp/ccv81bAm.s:55     .text:0000000000000038 .L0 
     /tmp/ccv81bAm.s:58     .text:0000000000000040 .L0 
     /tmp/ccv81bAm.s:59     .text:0000000000000040 .L0 
     /tmp/ccv81bAm.s:61     .text:0000000000000044 .L0 
     /tmp/ccv81bAm.s:63     .text:0000000000000044 .L0 
     /tmp/ccv81bAm.s:64     .text:0000000000000044 .L0 
     /tmp/ccv81bAm.s:67     .text:000000000000004c .L0 
     /tmp/ccv81bAm.s:68     .text:0000000000000050 .L0 
     /tmp/ccv81bAm.s:70     .text:0000000000000054 .L0 
     /tmp/ccv81bAm.s:71     .text:0000000000000054 .L0 
     /tmp/ccv81bAm.s:73     .text:0000000000000058 .L0 
     /tmp/ccv81bAm.s:75     .text:000000000000005c .L0 
     /tmp/ccv81bAm.s:82     .text:000000000000005c .L0 
     /tmp/ccv81bAm.s:294    .debug_abbrev:0000000000000000 .Ldebug_abbrev0
     /tmp/ccv81bAm.s:615    .debug_str:00000000000000c2 .LASF27
     /tmp/ccv81bAm.s:611    .debug_str:0000000000000094 .LASF28
     /tmp/ccv81bAm.s:631    .debug_str:00000000000001f3 .LASF29
     /tmp/ccv81bAm.s:5      .text:0000000000000000 .Ltext0
     /tmp/ccv81bAm.s:78     .text:000000000000005c .Letext0
     /tmp/ccv81bAm.s:589    .debug_line:0000000000000000 .Ldebug_line0
     /tmp/ccv81bAm.s:593    .debug_str:0000000000000011 .LASF0
     /tmp/ccv81bAm.s:635    .debug_str:0000000000000237 .LASF1
     /tmp/ccv81bAm.s:621    .debug_str:00000000000001ab .LASF2
     /tmp/ccv81bAm.s:643    .debug_str:0000000000000279 .LASF4
     /tmp/ccv81bAm.s:607    .debug_str:0000000000000076 .LASF3
     /tmp/ccv81bAm.s:601    .debug_str:0000000000000053 .LASF5
     /tmp/ccv81bAm.s:613    .debug_str:00000000000000af .LASF6
     /tmp/ccv81bAm.s:633    .debug_str:0000000000000224 .LASF7
     /tmp/ccv81bAm.s:645    .debug_str:0000000000000280 .LASF8
     /tmp/ccv81bAm.s:597    .debug_str:0000000000000036 .LASF9
     /tmp/ccv81bAm.s:599    .debug_str:0000000000000044 .LASF10
     /tmp/ccv81bAm.s:639    .debug_str:000000000000025a .LASF11
     /tmp/ccv81bAm.s:603    .debug_str:000000000000005a .LASF12
     /tmp/ccv81bAm.s:637    .debug_str:000000000000024a .LASF13
     /tmp/ccv81bAm.s:619    .debug_str:000000000000019f .LASF14
GAS LISTING /tmp/ccv81bAm.s 			page 4


     /tmp/ccv81bAm.s:629    .debug_str:00000000000001dd .LASF15
     /tmp/ccv81bAm.s:625    .debug_str:00000000000001be .LASF16
     /tmp/ccv81bAm.s:641    .debug_str:0000000000000269 .LASF17
     /tmp/ccv81bAm.s:649    .debug_str:0000000000000295 .LASF19
     /tmp/ccv81bAm.s:50     .text:0000000000000034 .LFB13
     /tmp/ccv81bAm.s:76     .text:000000000000005c .LFE13
     /tmp/ccv81bAm.s:647    .debug_str:0000000000000290 .LASF21
     /tmp/ccv81bAm.s:530    .debug_loc:0000000000000000 .LLST2
     /tmp/ccv81bAm.s:65     .text:000000000000004c .LVL5
     /tmp/ccv81bAm.s:605    .debug_str:000000000000006a .LASF18
     /tmp/ccv81bAm.s:595    .debug_str:000000000000001e .LASF20
     /tmp/ccv81bAm.s:10     .text:0000000000000000 .LFB12
     /tmp/ccv81bAm.s:44     .text:0000000000000034 .LFE12
     /tmp/ccv81bAm.s:623    .debug_str:00000000000001b9 .LASF22
     /tmp/ccv81bAm.s:544    .debug_loc:0000000000000039 .LLST0
     /tmp/ccv81bAm.s:562    .debug_loc:0000000000000085 .LLST1
     /tmp/ccv81bAm.s:29     .text:000000000000001c .LVL2
     /tmp/ccv81bAm.s:33     .text:0000000000000024 .LVL3
     /tmp/ccv81bAm.s:617    .debug_str:0000000000000192 .LASF23
     /tmp/ccv81bAm.s:627    .debug_str:00000000000001d4 .LASF25
     /tmp/ccv81bAm.s:591    .debug_str:0000000000000000 .LASF24
     /tmp/ccv81bAm.s:609    .debug_str:0000000000000088 .LASF26
     /tmp/ccv81bAm.s:53     .text:0000000000000034 .LVL4
     /tmp/ccv81bAm.s:14     .text:0000000000000000 .LVL0
     /tmp/ccv81bAm.s:27     .text:0000000000000018 .LVL1
     /tmp/ccv81bAm.s:83     .debug_info:0000000000000000 .Ldebug_info0

UNDEFINED SYMBOLS
_Z11thread_exitv
_Z8userMainv
