GAS LISTING /tmp/ccv81bAm.s 			page 1


   1              		.file	"user_wrappers.cpp"
   2              		.option pic
   3              		.option norelax
   4              		.text
   5              	.Ltext0:
   6              		.align	2
   7              		.globl	_Z11bodyWrapperPFvPvES_
   9              	_Z11bodyWrapperPFvPvES_:
  10              	.LFB12:
  11              		.file 1 "src/user/user_wrappers.cpp"
   1:src/user/user_wrappers.cpp **** //
   2:src/user/user_wrappers.cpp **** // Created by os on 1/10/23.
   3:src/user/user_wrappers.cpp **** //
   4:src/user/user_wrappers.cpp **** #include "../../h/user/user_wrappers.hpp"
   5:src/user/user_wrappers.cpp **** #include "../../h/user/syscall_c.h"
   6:src/user/user_wrappers.cpp **** #include "tests/userMain.hpp"
   7:src/user/user_wrappers.cpp **** 
   8:src/user/user_wrappers.cpp **** void bodyWrapper(void (*body)(void*), void* args)
   9:src/user/user_wrappers.cpp **** {
  12              		.loc 1 9 1
  13              		.cfi_startproc
  14              	.LVL0:
  15 0000 130101FF 		addi	sp,sp,-16
  16              		.cfi_def_cfa_offset 16
  17 0004 23341100 		sd	ra,8(sp)
  18 0008 23308100 		sd	s0,0(sp)
  19              		.cfi_offset 1, -8
  20              		.cfi_offset 8, -16
  21 000c 13040101 		addi	s0,sp,16
  22              		.cfi_def_cfa 8, 0
  23 0010 93070500 		mv	a5,a0
  10:src/user/user_wrappers.cpp ****     body(args);
  24              		.loc 1 10 5
  25              		.loc 1 10 9 is_stmt 0
  26 0014 13850500 		mv	a0,a1
  27              	.LVL1:
  28 0018 E7800700 		jalr	a5
  29              	.LVL2:
  11:src/user/user_wrappers.cpp ****     thread_exit();
  30              		.loc 1 11 5 is_stmt 1
  31              		.loc 1 11 16 is_stmt 0
  32 001c 97000000 		call	_Z11thread_exitv@plt
  32      E7800000 
  33              	.LVL3:
  12:src/user/user_wrappers.cpp **** }
  34              		.loc 1 12 1
  35 0024 83308100 		ld	ra,8(sp)
  36              		.cfi_restore 1
  37 0028 03340100 		ld	s0,0(sp)
  38              		.cfi_restore 8
  39              		.cfi_def_cfa 2, 16
  40 002c 13010101 		addi	sp,sp,16
  41              		.cfi_def_cfa_offset 0
  42 0030 67800000 		jr	ra
  43              		.cfi_endproc
  44              	.LFE12:
  46              		.align	2
GAS LISTING /tmp/ccv81bAm.s 			page 2


  47              		.globl	_Z15userMainWrapperPv
  49              	_Z15userMainWrapperPv:
  50              	.LFB13:
  13:src/user/user_wrappers.cpp **** 
  14:src/user/user_wrappers.cpp **** void userMainWrapper(void* args) {
  51              		.loc 1 14 34 is_stmt 1
  52              		.cfi_startproc
  53              	.LVL4:
  54 0034 130101FF 		addi	sp,sp,-16
  55              		.cfi_def_cfa_offset 16
  56 0038 23341100 		sd	ra,8(sp)
  57 003c 23308100 		sd	s0,0(sp)
  58              		.cfi_offset 1, -8
  59              		.cfi_offset 8, -16
  60 0040 13040101 		addi	s0,sp,16
  61              		.cfi_def_cfa 8, 0
  15:src/user/user_wrappers.cpp ****     userMain();
  62              		.loc 1 15 5
  63              		.loc 1 15 13 is_stmt 0
  64 0044 97000000 		call	_Z8userMainv@plt
  64      E7800000 
  65              	.LVL5:
  16:src/user/user_wrappers.cpp **** }...
  66              		.loc 1 16 1
  67 004c 83308100 		ld	ra,8(sp)
  68              		.cfi_restore 1
  69 0050 03340100 		ld	s0,0(sp)
  70              		.cfi_restore 8
  71              		.cfi_def_cfa 2, 16
  72 0054 13010101 		addi	sp,sp,16
  73              		.cfi_def_cfa_offset 0
  74 0058 67800000 		jr	ra
  75              		.cfi_endproc
  76              	.LFE13:
  78              	.Letext0:
  79              		.file 2 "src/user/../../h/user/../../lib/hw.h"
  80              		.file 3 "src/user/tests/userMain.hpp"
  81              		.file 4 "src/user/../../h/user/syscall_c.h"
GAS LISTING /tmp/ccv81bAm.s 			page 3

